Component: ARM Compiler 5.06 update 3 (build 300) Tool: armlink [4d35c9]

==============================================================================

Section Cross References

    startup.o(RESET) refers to startup.o(STACK) for __initial_sp
    startup.o(RESET) refers to startup.o(.text) for Reset_Handler
    startup.o(.text) refers to memseta.o(.text) for __aeabi_memset
    startup.o(.text) refers to startup.o(STACK) for _interrupt_stack
    startup.o(.text) refers to system.o(.init.once.text."..\\..\\..\\..\\ext\\lib\\actions\\startup\\system.c".0) for SystemInit
    startup.o(.text) refers to entry.o(.ARM.Collect$$$$00000000) for __main
    system.o(.init.once.text."..\\..\\..\\..\\ext\\lib\\actions\\startup\\system.c".0) refers to system.o(i.sys_write32) for sys_write32
    system.o(.init.once.text."..\\..\\..\\..\\ext\\lib\\actions\\startup\\system.c".0) refers to system.o(i.debug_uart_init) for debug_uart_init
    system.o(i.debug_uart_init) refers to system.o(i.sys_read32) for sys_read32
    system.o(i.debug_uart_init) refers to system.o(i.sys_write32) for sys_write32
    system.o(i.debug_uart_put_char) refers to system.o(i.sys_write32) for sys_write32
    system.o(i.debug_uart_put_char) refers to system.o(i.sys_read32) for sys_read32
    entry.o(i.main) refers to system.o(i.debug_uart_put_char) for debug_uart_put_char
    entry.o(i.main) refers to kernel_config_init.o(.init.once.text."..\\..\\..\\..\\kernel\\kernel_config_init.c".4) for kernel_config_init
    entry.o(i.main) refers to device.o(i.device_get_binding) for device_get_binding
    entry.o(i.main) refers to device.o(i._sys_device_do_config_level) for _sys_device_do_config_level
    entry.o(i.main) refers to main.o(i.app_main) for app_main
    entry.o(i.main) refers to entry.o(.bss) for _sw_isr_table
    soc_patch.o(.init.once.text."..\\..\\..\\..\\arch\\soc\\atb110x\\soc_patch.c".2) refers to soc_pm.o(i.patch_sys_soc_suspend) for patch_sys_soc_suspend
    soc_pm.o(.ram_retention_code) refers to soc_pm.o(i.request_vd12) for request_vd12
    soc_pm.o(.ram_retention_code) refers to soc_pm.o(i.sys_read32) for sys_read32
    soc_pm.o(.ram_retention_code) refers to soc_pm.o(i.sys_write32) for sys_write32
    soc_pm.o(.ram_retention_code) refers to soc_pm.o(i.switch_cpu_clock_3M) for switch_cpu_clock_3M
    soc_pm.o(.ram_retention_code) refers to soc_pm.o(.constdata) for .constdata
    soc_pm.o(.ram_retention_code) refers to soc_pm.o(.ram_retention_data) for sleep_32k
    soc_pm.o(i._sys_soc_set_power_state) refers to soc_pm.o(i.sys_read32) for sys_read32
    soc_pm.o(i._sys_soc_set_power_state) refers to soc_pm.o(i.sys_write32) for sys_write32
    soc_pm.o(i._sys_soc_set_power_state) refers to soc_pm.o(i.set_deep_sleep_clock) for set_deep_sleep_clock
    soc_pm.o(i._sys_soc_set_power_state) refers to soc_pm.o(i.switch_cpu_clock_3M) for switch_cpu_clock_3M
    soc_pm.o(i._sys_soc_set_power_state) refers to soc_pm.o(i.request_32M_XTAL) for request_32M_XTAL
    soc_pm.o(i._sys_soc_set_power_state) refers to soc_pm.o(.ram_retention_code) for _sys_lower_wfi
    soc_pm.o(i._sys_soc_set_power_state) refers to board.o(.data) for dp_vdd_val
    soc_pm.o(i._sys_soc_suspend_new) refers to soc_pm.o(i.check_pm_policy) for check_pm_policy
    soc_pm.o(i._sys_soc_suspend_new) refers to soc_pm.o(i.low_power_state_entry) for low_power_state_entry
    soc_pm.o(i._sys_soc_suspend_new) refers to soc_pm.o(i.deep_sleep_entry) for deep_sleep_entry
    soc_pm.o(i._sys_soc_suspend_new) refers to soc_pm.o(.data) for pm_state
    soc_pm.o(i.check_pm_policy) refers to device.o(i.device_any_busy_check) for device_any_busy_check
    soc_pm.o(i.check_pm_policy) refers to soc_pm.o(.constdata) for .constdata
    soc_pm.o(i.deep_sleep_entry) refers to soc_pm.o(i.suspend_devices) for suspend_devices
    soc_pm.o(i.deep_sleep_entry) refers to soc_pm.o(i.enable_wake_event) for enable_wake_event
    soc_pm.o(i.deep_sleep_entry) refers to soc_pm.o(i._sys_soc_set_power_state) for _sys_soc_set_power_state
    soc_pm.o(i.deep_sleep_entry) refers to soc_pm.o(i.deep_sleep_exit) for deep_sleep_exit
    soc_pm.o(i.deep_sleep_entry) refers to soc_pm.o(i.__set_primask) for __set_primask
    soc_pm.o(i.deep_sleep_exit) refers to soc_pm.o(i.request_32M_XTAL) for request_32M_XTAL
    soc_pm.o(i.deep_sleep_exit) refers to soc_pm.o(i.sys_read32) for sys_read32
    soc_pm.o(i.deep_sleep_exit) refers to soc_pm.o(i.sys_write32) for sys_write32
    soc_pm.o(i.deep_sleep_exit) refers to soc_pm.o(.ram_retention_code) for request_rc_3M
    soc_pm.o(i.deep_sleep_exit) refers to soc_pm.o(i.request_vd12_largebias) for request_vd12_largebias
    soc_pm.o(i.deep_sleep_exit) refers to soc_pm.o(i.resume_devices) for resume_devices
    soc_pm.o(i.low_power_state_entry) refers to soc_pm.o(i._sys_soc_set_power_state) for _sys_soc_set_power_state
    soc_pm.o(i.patch_sys_soc_suspend) refers to soc_pm.o(i._sys_soc_suspend_new) for _sys_soc_suspend_new
    soc_pm.o(i.request_32M_XTAL) refers to soc_pm.o(i.sys_read32) for sys_read32
    soc_pm.o(i.request_32M_XTAL) refers to soc_pm.o(i.sys_write32) for sys_write32
    soc_pm.o(i.request_vd12_largebias) refers to soc_pm.o(i.sys_read32) for sys_read32
    soc_pm.o(i.request_vd12_largebias) refers to soc_pm.o(i.sys_write32) for sys_write32
    soc_pm.o(i.resume_devices) refers to soc_pm.o(i.sys_write32) for sys_write32
    soc_pm.o(i.resume_devices) refers to device.o(i.set_devices_state) for set_devices_state
    soc_pm.o(i.set_deep_sleep_clock) refers to soc_pm.o(i.sys_read32) for sys_read32
    soc_pm.o(i.set_deep_sleep_clock) refers to soc_pm.o(i.sys_write32) for sys_write32
    soc_pm.o(i.set_deep_sleep_clock) refers to soc_pm.o(.ram_retention_data) for sleep_32k
    soc_pm.o(i.suspend_devices) refers to device.o(i.set_devices_state) for set_devices_state
    soc_pm.o(i.suspend_devices) refers to soc_pm.o(i.sys_write32) for sys_write32
    soc_pm.o(i.switch_cpu_clock_3M) refers to soc_pm.o(.ram_retention_code) for request_rc_3M
    soc_pm.o(i.switch_cpu_clock_3M) refers to soc_pm.o(i.sys_read32) for sys_read32
    soc_pm.o(i.switch_cpu_clock_3M) refers to soc_pm.o(i.sys_write32) for sys_write32
    soc_pm.o(i.sys_pm_reboot) refers to device.o(i.device_get_binding) for device_get_binding
    soc_pm.o(i.sys_pm_reboot) refers to startup.o(.text) for _arch_irq_lock_s
    main.o(i.app_main) refers to main.o(i.key_device_open) for key_device_open
    main.o(i.app_main) refers to app_batt.o(i.batt_manager_init) for batt_manager_init
    main.o(i.app_main) refers to main.o(i.adckey_input_notify) for adckey_input_notify
    main.o(i.get_key_handle) refers to main.o(.bss) for key_handle_entity
    main.o(i.key_device_open) refers to main.o(i.get_key_handle) for get_key_handle
    main.o(i.key_device_open) refers to device.o(i.device_get_binding) for device_get_binding
    app_batt.o(i.adc_batt_read) refers to app_batt.o(.data) for batt_level
    app_batt.o(i.adc_batt_val_read) refers to app_batt.o(.data) for batt_val
    app_batt.o(i.batt_manager_init) refers to app_batt.o(i.update_battry_value) for update_battry_value
    app_batt.o(i.batt_manager_init) refers to app_batt.o(i.batt_timer_handler) for batt_timer_handler
    app_batt.o(i.batt_manager_init) refers to app_batt.o(.bss) for batt_timer
    app_batt.o(i.batt_timer_handler) refers to app_batt.o(i.update_battry_value) for update_battry_value
    app_batt.o(i.update_battry_value) refers to device.o(i.device_get_binding) for device_get_binding
    app_batt.o(i.update_battry_value) refers to app_batt.o(i.low_power_led_indication) for low_power_led_indication
    app_batt.o(i.update_battry_value) refers to app_batt.o(i.very_low_power_handler) for very_low_power_handler
    app_batt.o(i.update_battry_value) refers to app_batt.o(.data) for batt_val
    board.o(.init.once.text."..\\..\\..\\..\\boards\\board.c".1) refers to soc_pm.o(.ram_retention_data) for deepsleep_disable_vd12
    board.o(.init.once.text."..\\..\\..\\..\\boards\\board.c".2) refers to board.o(.init.once.text."..\\..\\..\\..\\boards\\board.c".1) for set_ic_feature
    board.o(.init.once.text."..\\..\\..\\..\\boards\\board.c".2) refers to board.o(i.sys_write32) for sys_write32
    board.o(.init.once.text."..\\..\\..\\..\\boards\\board.c".2) refers to soc_patch.o(.init.once.text."..\\..\\..\\..\\arch\\soc\\atb110x\\soc_patch.c".0) for patch_hw_func
    board.o(.init.once.text."..\\..\\..\\..\\boards\\board.c".2) refers to soc_patch.o(.init.once.text."..\\..\\..\\..\\arch\\soc\\atb110x\\soc_patch.c".1) for patch_hw_code
    board.o(.init.once.text."..\\..\\..\\..\\boards\\board.c".2) refers to soc_patch.o(.init.once.text."..\\..\\..\\..\\arch\\soc\\atb110x\\soc_patch.c".2) for patch_sw
    board.o(.init.once.text."..\\..\\..\\..\\boards\\board.c".2) refers to board.o(.data) for normal_vdd_val
    board.o(.init.once.text."..\\..\\..\\..\\boards\\board.c".2) refers to board.o(.init.once.data."..\\..\\..\\..\\boards\\board.c".0) for board_pin_config
    board.o(.init.once.text."..\\..\\..\\..\\boards\\board.c".2) refers to entry.o(.bss) for _sw_isr_table
    board.o(.devconfig.init) refers to board.o(.conststrlit) for .conststrlit
    board.o(.devconfig.init) refers to board.o(.init.once.text."..\\..\\..\\..\\boards\\board.c".2) for board_early_init
    board.o(.init_PRE_KERNEL_10) refers to board.o(.devconfig.init) for __config_sys_init_board_early_init3
    uart_console.o(.devconfig.init) refers to uart_console.o(.conststrlit) for .conststrlit
    uart_console.o(.devconfig.init) refers to uart_console.o(i.uart_console_init_new) for uart_console_init_new
    uart_console.o(.init_PRE_KERNEL_160) refers to uart_console.o(.devconfig.init) for __config_sys_init_uart_console_init_new0
    sys_clock_init.o(.devconfig.init) refers to sys_clock_init.o(.conststrlit) for .conststrlit
    sys_clock_init.o(.init_PRE_KERNEL_20) refers to sys_clock_init.o(.devconfig.init) for __config_sys_init__sys_clock_driver_init0
    uart_acts.o(.init.once.text."..\\..\\..\\..\\drivers\\uart\\uart_acts.c".0) refers to uart_acts.o(.init_PRE_KERNEL_150) for __device_uart_acts_0
    uart_acts.o(.init.once.text."..\\..\\..\\..\\drivers\\uart\\uart_acts.c".0) refers to entry.o(.bss) for _sw_isr_table
    uart_acts.o(i.uart_acts_resume_device_from_suspend) refers to uart_acts.o(i.sys_write32) for sys_write32
    uart_acts.o(i.uart_device_ctrl) refers to uart_acts.o(i.uart_acts_suspend_device) for uart_acts_suspend_device
    uart_acts.o(i.uart_device_ctrl) refers to uart_acts.o(i.uart_acts_resume_device_from_suspend) for uart_acts_resume_device_from_suspend
    uart_acts.o(.constdata) refers to uart_acts.o(.init.once.text."..\\..\\..\\..\\drivers\\uart\\uart_acts.c".0) for uart_acts_irq_config_0
    uart_acts.o(.devconfig.init) refers to uart_acts.o(.conststrlit) for .conststrlit
    uart_acts.o(.devconfig.init) refers to uart_acts.o(i.uart_device_ctrl) for uart_device_ctrl
    uart_acts.o(.devconfig.init) refers to uart_acts.o(.constdata) for uart_acts_dev_cfg_0
    uart_acts.o(.init_PRE_KERNEL_150) refers to uart_acts.o(.devconfig.init) for __config_uart_acts_0
    uart_acts.o(.init_PRE_KERNEL_150) refers to uart_acts.o(.data) for uart_acts_dev_data_0
    timer_acts.o(i.timer_acts_config_irq) refers to timer_acts.o(.init_POST_KERNEL20) for __device_timer_acts
    timer_acts.o(i.timer_acts_config_irq) refers to entry.o(.bss) for _sw_isr_table
    timer_acts.o(i.timer_acts_config_irq) refers to timer_acts.o(i.timer_acts_isr) for timer_acts_isr
    timer_acts.o(i.timer_acts_init) refers to timer_acts.o(i.sys_write32) for sys_write32
    timer_acts.o(i.timer_acts_isr) refers to timer_acts.o(i._ms_to_cycle) for _ms_to_cycle
    timer_acts.o(i.timer_acts_isr) refers to timer_acts.o(i.sys_write32) for sys_write32
    timer_acts.o(i.timer_acts_isr) refers to timer_acts.o(i.timer_reload) for timer_reload
    timer_acts.o(i.timer_acts_start) refers to timer_acts.o(i._ms_to_cycle) for _ms_to_cycle
    timer_acts.o(i.timer_acts_start) refers to startup.o(.text) for _arch_irq_lock_s
    timer_acts.o(i.timer_acts_start) refers to timer_acts.o(i.timer_reload) for timer_reload
    timer_acts.o(i.timer_acts_stop) refers to startup.o(.text) for _arch_irq_lock_s
    timer_acts.o(i.timer_acts_stop) refers to timer_acts.o(i.sys_write32) for sys_write32
    timer_acts.o(i.timer_reload) refers to timer_acts.o(i.sys_write32) for sys_write32
    timer_acts.o(.constdata) refers to timer_acts.o(i.timer_acts_start) for timer_acts_start
    timer_acts.o(.constdata) refers to timer_acts.o(i.timer_acts_stop) for timer_acts_stop
    timer_acts.o(.constdata) refers to timer_acts.o(i.timer_acts_callback_set) for timer_acts_callback_set
    timer_acts.o(.constdata) refers to timer_acts.o(i.timer_acts_user_data_set) for timer_acts_user_data_set
    timer_acts.o(.constdata) refers to timer_acts.o(i.timer_acts_user_data_get) for timer_acts_user_data_get
    timer_acts.o(.data) refers to timer_acts.o(i.timer_acts_config_irq) for timer_acts_config_irq
    timer_acts.o(.devconfig.init) refers to timer_acts.o(.conststrlit) for .conststrlit
    timer_acts.o(.devconfig.init) refers to timer_acts.o(i.timer_acts_init) for timer_acts_init
    timer_acts.o(.devconfig.init) refers to timer_acts.o(.data) for acts_timer_config_info1
    timer_acts.o(.init_POST_KERNEL20) refers to timer_acts.o(.devconfig.init) for __config_timer_acts
    timer_acts.o(.init_POST_KERNEL20) refers to timer_acts.o(.constdata) for timer_acts_drv_api
    timer_acts.o(.init_POST_KERNEL20) refers to timer_acts.o(.data) for acts_timer_data0
    adc_acts.o(i.adc_acts_read_new) refers to startup.o(.text) for _arch_irq_lock_s
    adc_acts.o(.constdata) refers to adc_acts.o(i.adc_acts_read_new) for adc_acts_read_new
    adc_acts.o(.devconfig.init) refers to adc_acts.o(.conststrlit) for .conststrlit
    adc_acts.o(.devconfig.init) refers to adc_acts.o(.constdata) for adc_acts_cdata
    adc_acts.o(.init_PRE_KERNEL_280) refers to adc_acts.o(.devconfig.init) for __config_adc_acts
    adc_acts.o(.init_PRE_KERNEL_280) refers to adc_acts.o(.constdata) for adc_acts_driver_api_new
    adc_acts.o(.init_PRE_KERNEL_280) refers to adc_acts.o(.data) for adc_acts_ddata
    adckey_acts.o(i.adckey_acts_disable_new) refers to adckey_acts.o(i.remove_adckey) for remove_adckey
    adckey_acts.o(i.adckey_acts_enable_new) refers to adckey_acts.o(i.add_adckey) for add_adckey
    adckey_acts.o(i.adckey_acts_get_keycode_new) refers to app_batt.o(i.adc_batt_val_read) for adc_batt_val_read
    adckey_acts.o(i.adckey_acts_get_keycode_new) refers to adckey_acts.o(i.update_adckey_map) for update_adckey_map
    adckey_acts.o(i.adckey_acts_get_keycode_new) refers to ffltui.o(.text) for __aeabi_ui2f
    adckey_acts.o(i.adckey_acts_get_keycode_new) refers to fdiv.o(.text) for __aeabi_fdiv
    adckey_acts.o(i.adckey_acts_get_keycode_new) refers to fmul.o(.text) for __aeabi_fmul
    adckey_acts.o(i.adckey_acts_get_keycode_new) refers to ffixui.o(.text) for __aeabi_f2uiz
    adckey_acts.o(i.adckey_acts_init_new) refers to device.o(i.device_get_binding) for device_get_binding
    adckey_acts.o(i.adckey_acts_init_new) refers to adckey_acts.o(i.sys_write32) for sys_write32
    adckey_acts.o(i.adckey_acts_init_new) refers to adckey_acts.o(i.sys_read32) for sys_read32
    adckey_acts.o(i.adckey_acts_init_new) refers to adckey_acts.o(.data) for adc_init
    adckey_acts.o(i.adckey_acts_init_new) refers to adckey_acts.o(i.adckey_acts_poll_new) for adckey_acts_poll_new
    adckey_acts.o(i.adckey_acts_irq_config) refers to entry.o(.bss) for _sw_isr_table
    adckey_acts.o(i.adckey_acts_irq_config) refers to adckey_acts.o(i.adckey_acts_wakeup_isr) for adckey_acts_wakeup_isr
    adckey_acts.o(i.adckey_acts_poll_new) refers to adckey_acts.o(i.adckey_acts_get_keycode_new) for adckey_acts_get_keycode_new
    adckey_acts.o(i.adckey_acts_poll_new) refers to adckey_acts.o(i.adckey_timer_stop) for adckey_timer_stop
    adckey_acts.o(i.adckey_acts_poll_new) refers to adckey_acts.o(i.adckey_acts_report_key_new) for adckey_acts_report_key_new
    adckey_acts.o(i.adckey_acts_poll_new) refers to adckey_acts.o(.data) for adckey_timer
    adckey_acts.o(i.adckey_acts_resume_device_from_suspend) refers to adckey_acts.o(.data) for adckey_int_resume_cnt
    adckey_acts.o(i.adckey_acts_suspend_device) refers to adckey_acts.o(.data) for adckey_int_suspend_cnt
    adckey_acts.o(i.adckey_acts_wakeup_isr) refers to adckey_acts.o(i.sys_read32) for sys_read32
    adckey_acts.o(i.adckey_acts_wakeup_isr) refers to adckey_acts.o(i.sys_write32) for sys_write32
    adckey_acts.o(i.adckey_acts_wakeup_isr) refers to adckey_acts.o(i.adckey_timer_start) for adckey_timer_start
    adckey_acts.o(i.adckey_acts_wakeup_isr) refers to adckey_acts.o(.data) for adckey_timer
    adckey_acts.o(i.adckey_device_ctrl) refers to adckey_acts.o(i.adckey_acts_suspend_device) for adckey_acts_suspend_device
    adckey_acts.o(i.adckey_device_ctrl) refers to adckey_acts.o(i.adckey_acts_resume_device_from_suspend) for adckey_acts_resume_device_from_suspend
    adckey_acts.o(i.adckey_timer_start) refers to adckey_acts.o(.data) for adckey_timer_start_flag
    adckey_acts.o(i.adckey_timer_stop) refers to adckey_acts.o(.data) for adckey_timer_start_flag
    adckey_acts.o(i.add_adckey) refers to adckey_acts.o(.bss) for adckey_devs
    adckey_acts.o(i.add_adckey) refers to adckey_acts.o(.data) for adckey_timer
    adckey_acts.o(i.remove_adckey) refers to adckey_acts.o(.bss) for adckey_devs
    adckey_acts.o(.constdata) refers to adckey_acts.o(i.adckey_acts_enable_new) for adckey_acts_enable_new
    adckey_acts.o(.constdata) refers to adckey_acts.o(i.adckey_acts_disable_new) for adckey_acts_disable_new
    adckey_acts.o(.constdata) refers to adckey_acts.o(i.adckey_acts_register_notify_new) for adckey_acts_register_notify_new
    adckey_acts.o(.constdata) refers to adckey_acts.o(i.adckey_acts_unregister_notify_new) for adckey_acts_unregister_notify_new
    adckey_acts.o(.constdata) refers to adckey_acts.o(.conststring) for .conststring
    adckey_acts.o(.constdata) refers to adckey_acts.o(.data) for adckey_0_acts_keymaps
    adckey_acts.o(.constdata) refers to adckey_acts.o(i.adckey_acts_irq_config) for adckey_acts_irq_config
    adckey_acts.o(.devconfig.init) refers to adckey_acts.o(.conststrlit) for .conststrlit
    adckey_acts.o(.devconfig.init) refers to adckey_acts.o(i.adckey_acts_init_new) for adckey_acts_init_new
    adckey_acts.o(.devconfig.init) refers to adckey_acts.o(i.adckey_device_ctrl) for adckey_device_ctrl
    adckey_acts.o(.devconfig.init) refers to adckey_acts.o(.constdata) for adckey_0_acts_cdata
    adckey_acts.o(.init_POST_KERNEL50) refers to adckey_acts.o(.devconfig.init) for __config_adckey_0_acts
    adckey_acts.o(.init_POST_KERNEL50) refers to adckey_acts.o(.constdata) for adckey_acts_driver_api_new
    adckey_acts.o(.init_POST_KERNEL50) refers to adckey_acts.o(.bss) for adckey_0_acts_ddata
    device.o(i._sys_device_do_config_level) refers to device.o(.data) for config_levels
    device.o(i.device_any_busy_check) refers to device.o(.device_BUSY) for device_busy
    device.o(i.device_busy_clear_new) refers to device.o(.device_BUSY) for device_busy
    device.o(i.device_busy_set_new) refers to device.o(.device_BUSY) for device_busy
    device.o(.patch_hw_func) refers to device.o(i.device_busy_set_new) for device_busy_set_new
    device.o(.patch_hw_func) refers to device.o(i.device_busy_clear_new) for device_busy_clear_new
    kernel_config_init.o(.init.once.text."..\\..\\..\\..\\kernel\\kernel_config_init.c".4) refers to kernel_config_init.o(.noinit."..\\..\\..\\..\\kernel\\kernel_config_init.c".0) for _main_stack
    kernel_config_init.o(.init.once.text."..\\..\\..\\..\\kernel\\kernel_config_init.c".4) refers to kernel_config_init.o(.ram_retention_data) for _idle_stack
    kernel_config_init.o(.init.once.text."..\\..\\..\\..\\kernel\\kernel_config_init.c".4) refers to startup.o(STACK) for _interrupt_stack
    kernel_config_init.o(.init.once.text."..\\..\\..\\..\\kernel\\kernel_config_init.c".4) refers to kernel_config_init.o(.noinit."..\\..\\..\\..\\kernel\\kernel_config_init.c".1) for sys_work_q_stack
    kernel_config_init.o(.init.once.text."..\\..\\..\\..\\kernel\\kernel_config_init.c".4) refers to kernel_config_init.o(.noinit."..\\..\\..\\..\\kernel\\kernel_config_init.c".2) for async_msg_array
    kernel_config_init.o(.init.once.text."..\\..\\..\\..\\kernel\\kernel_config_init.c".4) refers to kernel_config_init.o(._k_stack.static.async_msg_free) for async_msg_free
    kernel_config_init.o(._k_stack.static.async_msg_free) refers to kernel_config_init.o(.noinit."..\\..\\..\\..\\kernel\\kernel_config_init.c".3) for _k_stack_buf_async_msg_free
    system_work_q.o(i.new_k_delayed_work_cancel) refers to startup.o(.text) for _arch_irq_lock_s
    system_work_q.o(i.new_k_delayed_work_cancel) refers to system_work_q.o(i.sys_slist_find_and_remove) for sys_slist_find_and_remove
    system_work_q.o(i.new_k_delayed_work_cancel) refers to system_work_q.o(i._abort_timeout) for _abort_timeout
    system_work_q.o(.devconfig.init) refers to system_work_q.o(.conststrlit) for .conststrlit
    system_work_q.o(.init_POST_KERNEL40) refers to system_work_q.o(.devconfig.init) for __config_sys_init_k_sys_work_q_init0
    system_work_q.o(.patch_hw_func) refers to system_work_q.o(i.new_k_delayed_work_cancel) for new_k_delayed_work_cancel
    entry.o(.ARM.Collect$$$$00000000) refers (Special) to entry10a.o(.ARM.Collect$$$$0000000D) for __rt_final_cpp
    entry.o(.ARM.Collect$$$$00000000) refers (Special) to entry11a.o(.ARM.Collect$$$$0000000F) for __rt_final_exit
    entry.o(.ARM.Collect$$$$00000000) refers (Special) to entry7b.o(.ARM.Collect$$$$00000008) for _main_clock
    entry.o(.ARM.Collect$$$$00000000) refers (Special) to entry8b.o(.ARM.Collect$$$$0000000A) for _main_cpp_init
    entry.o(.ARM.Collect$$$$00000000) refers (Special) to entry9a.o(.ARM.Collect$$$$0000000B) for _main_init
    entry.o(.ARM.Collect$$$$00000000) refers (Special) to entry5.o(.ARM.Collect$$$$00000004) for _main_scatterload
    entry.o(.ARM.Collect$$$$00000000) refers (Special) to entry2.o(.ARM.Collect$$$$00000001) for _main_stk
    fmul.o(.text) refers (Special) to iusefp.o(.text) for __I$use$fp
    fdiv.o(.text) refers (Special) to iusefp.o(.text) for __I$use$fp
    fdiv.o(.text) refers to fepilogue.o(.text) for _float_round
    ffltui.o(.text) refers (Special) to iusefp.o(.text) for __I$use$fp
    ffltui.o(.text) refers to fepilogue.o(.text) for _float_epilogue
    ffixui.o(.text) refers (Special) to iusefp.o(.text) for __I$use$fp
    entry2.o(.ARM.Collect$$$$00000001) refers to entry2.o(.ARM.Collect$$$$00002712) for __lit__00000000
    entry2.o(.ARM.Collect$$$$00002712) refers to startup.o(STACK) for __initial_sp
    entry2.o(__vectab_stack_and_reset_area) refers to startup.o(STACK) for __initial_sp
    entry2.o(__vectab_stack_and_reset_area) refers to entry.o(.ARM.Collect$$$$00000000) for __main
    entry5.o(.ARM.Collect$$$$00000004) refers to init.o(.text) for __scatterload
    entry9a.o(.ARM.Collect$$$$0000000B) refers to entry.o(i.main) for main
    entry9b.o(.ARM.Collect$$$$0000000C) refers to entry.o(i.main) for main
    init.o(.text) refers to entry5.o(.ARM.Collect$$$$00000004) for __main_after_scatterload


==============================================================================

Removing Unused input sections from the image.

    Removing startup.o(HEAP), (0 bytes).
    Removing startup.o(.asm_patch), (56 bytes).
    Removing soc_patch.o(i.dump_hw_func), (204 bytes).
    Removing soc_pm.o(i.sys_pm_reboot), (236 bytes).
    Removing main.o(i.key_device_close), (40 bytes).
    Removing app_batt.o(i.adc_batt_read), (12 bytes).

6 unused section(s) (total 548 bytes) removed from the image.

==============================================================================

Adding Veneers to the image

    Adding TT veneer (12 bytes, Long) for call to 'printk' from soc_patch.o(.init.once.text."..\\..\\..\\..\\arch\\soc\\atb110x\\soc_patch.c".0).
    Adding TT veneer (12 bytes, Long) for call to 'acts_efuse_read' from board.o(.init.once.text."..\\..\\..\\..\\boards\\board.c".1).
    Adding TT veneer (12 bytes, Long) for call to 'acts_set_vdd' from board.o(.init.once.text."..\\..\\..\\..\\boards\\board.c".2).
    Adding TT veneer (12 bytes, Long) for call to 'acts_delay_us' from board.o(.init.once.text."..\\..\\..\\..\\boards\\board.c".2).
    Adding TT veneer (12 bytes, Long) for call to 'acts_request_vd12_pd' from board.o(.init.once.text."..\\..\\..\\..\\boards\\board.c".2).
    Adding TT veneer (12 bytes, Long) for call to 'acts_request_vd12_largebias' from board.o(.init.once.text."..\\..\\..\\..\\boards\\board.c".2).
    Adding TT veneer (12 bytes, Long) for call to 'acts_request_rc_3M' from board.o(.init.once.text."..\\..\\..\\..\\boards\\board.c".2).
    Adding TT veneer (12 bytes, Long) for call to 'acts_pinmux_setup_pins' from board.o(.init.once.text."..\\..\\..\\..\\boards\\board.c".2).
    Adding TT veneer (12 bytes, Long) for call to '_irq_priority_set' from board.o(.init.once.text."..\\..\\..\\..\\boards\\board.c".2).
    Adding TT veneer (12 bytes, Long) for call to '_arch_irq_enable' from uart_acts.o(.init.once.text."..\\..\\..\\..\\drivers\\uart\\uart_acts.c".0).
    Adding TT veneer (12 bytes, Long) for call to 'main_thread_init' from kernel_config_init.o(.init.once.text."..\\..\\..\\..\\kernel\\kernel_config_init.c".4).
    Adding TT veneer (12 bytes, Long) for call to 'idle_thread_init' from kernel_config_init.o(.init.once.text."..\\..\\..\\..\\kernel\\kernel_config_init.c".4).
    Adding TT veneer (12 bytes, Long) for call to 'interrupt_stack_init' from kernel_config_init.o(.init.once.text."..\\..\\..\\..\\kernel\\kernel_config_init.c".4).
    Adding TT veneer (12 bytes, Long) for call to 'sys_work_queue_init' from kernel_config_init.o(.init.once.text."..\\..\\..\\..\\kernel\\kernel_config_init.c".4).
    Adding TT veneer (12 bytes, Long) for call to '__aeabi_uidivmod' from timer_acts.o(i._ms_to_cycle).
    Adding TT veneer (12 bytes, Long) for call to '_arch_irq_disable' from adckey_acts.o(i.adckey_acts_wakeup_isr).
    Adding TT veneer (12 bytes, Long) for call to 'app_get_wake_lock' from main.o(i.app_main).
    Adding TT veneer (12 bytes, Long) for call to 'k_sleep' from main.o(i.app_main).
    Adding TT veneer (12 bytes, Long) for call to 'app_release_wake_lock' from main.o(i.app_main).
    Adding TT veneer (12 bytes, Long) for call to 'k_timer_init' from app_batt.o(i.batt_manager_init).
    Adding TT veneer (12 bytes, Long) for call to 'k_timer_start' from app_batt.o(i.batt_manager_init).
    Adding TT veneer (12 bytes, Long) for call to '_timer_deepsleep_enter' from soc_pm.o(i.deep_sleep_entry).
    Adding TT veneer (12 bytes, Long) for call to '_timer_deepsleep_exit' from soc_pm.o(i.deep_sleep_entry).
    Adding TT veneer (12 bytes, Long) for call to 'atomic_get' from device.o(i.device_any_busy_check).
    Adding TT veneer (12 bytes, Long) for call to '__aeabi_idivmod' from device.o(i.device_busy_clear_new).
    Adding TT veneer (12 bytes, Long) for call to 'atomic_and' from device.o(i.device_busy_clear_new).
    Adding TT veneer (12 bytes, Long) for call to 'atomic_or' from device.o(i.device_busy_set_new).
    Adding TT veneer (12 bytes, Long) for call to 'strcmp' from device.o(i.device_get_binding).
    Adding TT veneer (12 bytes, Long) for call to '_PrepC' from entry.o(i.main).
    Adding TT veneer (12 bytes, Long) for call to 'acts_clock_peripheral_enable' from timer_acts.o(i.timer_acts_init).
    Adding TT veneer (12 bytes, Long) for call to 'acts_reset_peripheral' from uart_acts.o(i.uart_acts_resume_device_from_suspend).
    Adding TT veneer (12 bytes, Long) for call to 'acts_clock_peripheral_disable' from uart_acts.o(i.uart_acts_suspend_device).
    Adding TT veneer (12 bytes, Long) for call to 'uart_console_init' from uart_console.o(i.uart_console_init_new).

33 Veneer(s) (total 396 bytes) added to the image.

==============================================================================

Image Symbol Table

    Local Symbols

    Symbol Name                              Value     Ov Type        Size  Object(Section)

    ../clib/microlib/init/entry.s            0x00000000   Number         0  entry9b.o ABSOLUTE
    ../clib/microlib/init/entry.s            0x00000000   Number         0  entry10a.o ABSOLUTE
    ../clib/microlib/init/entry.s            0x00000000   Number         0  entry8a.o ABSOLUTE
    ../clib/microlib/init/entry.s            0x00000000   Number         0  entry11b.o ABSOLUTE
    ../clib/microlib/init/entry.s            0x00000000   Number         0  entry10b.o ABSOLUTE
    ../clib/microlib/init/entry.s            0x00000000   Number         0  entry.o ABSOLUTE
    ../clib/microlib/init/entry.s            0x00000000   Number         0  entry2.o ABSOLUTE
    ../clib/microlib/init/entry.s            0x00000000   Number         0  entry5.o ABSOLUTE
    ../clib/microlib/init/entry.s            0x00000000   Number         0  entry7a.o ABSOLUTE
    ../clib/microlib/init/entry.s            0x00000000   Number         0  entry7b.o ABSOLUTE
    ../clib/microlib/init/entry.s            0x00000000   Number         0  entry8b.o ABSOLUTE
    ../clib/microlib/init/entry.s            0x00000000   Number         0  entry11a.o ABSOLUTE
    ../clib/microlib/init/entry.s            0x00000000   Number         0  entry9a.o ABSOLUTE
    ../clib/microlib/string/memset.c         0x00000000   Number         0  memseta.o ABSOLUTE
    ../clib/microlib/stubs.s                 0x00000000   Number         0  iusefp.o ABSOLUTE
    ../fplib/microlib/fpdiv.c                0x00000000   Number         0  fdiv.o ABSOLUTE
    ../fplib/microlib/fpepilogue.c           0x00000000   Number         0  fepilogue.o ABSOLUTE
    ../fplib/microlib/fpfix.c                0x00000000   Number         0  ffixui.o ABSOLUTE
    ../fplib/microlib/fpflt.c                0x00000000   Number         0  ffltui.o ABSOLUTE
    ../fplib/microlib/fpmul.c                0x00000000   Number         0  fmul.o ABSOLUTE
    ..\..\..\..\arch\soc\atb110x\soc_patch.c 0x00000000   Number         0  soc_patch.o ABSOLUTE
    ..\..\..\..\arch\soc\atb110x\soc_pm.c    0x00000000   Number         0  soc_pm.o ABSOLUTE
    ..\..\..\..\boards\board.c               0x00000000   Number         0  board.o ABSOLUTE
    ..\..\..\..\drivers\console\uart_console.c 0x00000000   Number         0  uart_console.o ABSOLUTE
    ..\..\..\..\drivers\timer\sys_clock_init.c 0x00000000   Number         0  sys_clock_init.o ABSOLUTE
    ..\..\..\..\drivers\timer\timer_acts.c   0x00000000   Number         0  timer_acts.o ABSOLUTE
    ..\..\..\..\drivers\uart\uart_acts.c     0x00000000   Number         0  uart_acts.o ABSOLUTE
    ..\..\..\..\ext\lib\actions\startup\entry.c 0x00000000   Number         0  entry.o ABSOLUTE
    ..\..\..\..\ext\lib\actions\startup\startup.s 0x00000000   Number         0  startup.o ABSOLUTE
    ..\..\..\..\ext\lib\actions\startup\system.c 0x00000000   Number         0  system.o ABSOLUTE
    ..\..\..\..\kernel\device.c              0x00000000   Number         0  device.o ABSOLUTE
    ..\..\..\..\kernel\kernel_config_init.c  0x00000000   Number         0  kernel_config_init.o ABSOLUTE
    ..\..\..\..\kernel\system_work_q.c       0x00000000   Number         0  system_work_q.o ABSOLUTE
    ..\src\app_batt.c                        0x00000000   Number         0  app_batt.o ABSOLUTE
    ..\src\drivers\adc_acts.c                0x00000000   Number         0  adc_acts.o ABSOLUTE
    ..\src\drivers\adckey_acts.c             0x00000000   Number         0  adckey_acts.o ABSOLUTE
    ..\src\main.c                            0x00000000   Number         0  main.o ABSOLUTE
    handlers.s                               0x00000000   Number         0  handlers.o ABSOLUTE
    init.s                                   0x00000000   Number         0  init.o ABSOLUTE
    RESET                                    0x20001000   Section      224  startup.o(RESET)
    .ARM.Collect$$$$00000000                 0x200010e0   Section        0  entry.o(.ARM.Collect$$$$00000000)
    .ARM.Collect$$$$00000001                 0x200010e0   Section        4  entry2.o(.ARM.Collect$$$$00000001)
    .ARM.Collect$$$$00000004                 0x200010e4   Section        4  entry5.o(.ARM.Collect$$$$00000004)
    .ARM.Collect$$$$00000008                 0x200010e8   Section        0  entry7b.o(.ARM.Collect$$$$00000008)
    .ARM.Collect$$$$0000000A                 0x200010e8   Section        0  entry8b.o(.ARM.Collect$$$$0000000A)
    .ARM.Collect$$$$0000000B                 0x200010e8   Section        8  entry9a.o(.ARM.Collect$$$$0000000B)
    .ARM.Collect$$$$0000000D                 0x200010f0   Section        0  entry10a.o(.ARM.Collect$$$$0000000D)
    .ARM.Collect$$$$0000000F                 0x200010f0   Section        0  entry11a.o(.ARM.Collect$$$$0000000F)
    .ARM.Collect$$$$00002712                 0x200010f0   Section        4  entry2.o(.ARM.Collect$$$$00002712)
    __lit__00000000                          0x200010f0   Data           4  entry2.o(.ARM.Collect$$$$00002712)
    .init.once.text."..\\..\\..\\..\\arch\\soc\\atb110x\\soc_patch.c".0 0x200010f4   Section        0  soc_patch.o(.init.once.text."..\\..\\..\\..\\arch\\soc\\atb110x\\soc_patch.c".0)
    .init.once.text."..\\..\\..\\..\\arch\\soc\\atb110x\\soc_patch.c".1 0x20001180   Section        0  soc_patch.o(.init.once.text."..\\..\\..\\..\\arch\\soc\\atb110x\\soc_patch.c".1)
    .init.once.text."..\\..\\..\\..\\arch\\soc\\atb110x\\soc_patch.c".2 0x20001204   Section        0  soc_patch.o(.init.once.text."..\\..\\..\\..\\arch\\soc\\atb110x\\soc_patch.c".2)
    .init.once.text."..\\..\\..\\..\\boards\\board.c".1 0x2000120c   Section        0  board.o(.init.once.text."..\\..\\..\\..\\boards\\board.c".1)
    .init.once.text."..\\..\\..\\..\\boards\\board.c".2 0x20001234   Section        0  board.o(.init.once.text."..\\..\\..\\..\\boards\\board.c".2)
    .init.once.text."..\\..\\..\\..\\drivers\\uart\\uart_acts.c".0 0x200012c0   Section        0  uart_acts.o(.init.once.text."..\\..\\..\\..\\drivers\\uart\\uart_acts.c".0)
    uart_acts_irq_config_0                   0x200012c1   Thumb Code    36  uart_acts.o(.init.once.text."..\\..\\..\\..\\drivers\\uart\\uart_acts.c".0)
    .init.once.text."..\\..\\..\\..\\ext\\lib\\actions\\startup\\system.c".0 0x200012f0   Section        0  system.o(.init.once.text."..\\..\\..\\..\\ext\\lib\\actions\\startup\\system.c".0)
    .init.once.text."..\\..\\..\\..\\kernel\\kernel_config_init.c".4 0x20001304   Section        0  kernel_config_init.o(.init.once.text."..\\..\\..\\..\\kernel\\kernel_config_init.c".4)
    .text                                    0x200013b8   Section       88  startup.o(.text)
    .text                                    0x20001410   Section        0  memseta.o(.text)
    .text                                    0x20001434   Section        0  fmul.o(.text)
    .text                                    0x200014ae   Section        0  fdiv.o(.text)
    .text                                    0x2000152a   Section        0  ffltui.o(.text)
    .text                                    0x20001538   Section        0  ffixui.o(.text)
    .text                                    0x20001560   Section        0  iusefp.o(.text)
    .text                                    0x20001560   Section        0  fepilogue.o(.text)
    .text                                    0x200015e4   Section       36  init.o(.text)
    i.__scatterload_copy                     0x20001794   Section       14  handlers.o(i.__scatterload_copy)
    i.__scatterload_null                     0x200017a2   Section        2  handlers.o(i.__scatterload_null)
    i.__scatterload_zeroinit                 0x200017a4   Section       14  handlers.o(i.__scatterload_zeroinit)
    i.__set_primask                          0x200017b2   Section        0  soc_pm.o(i.__set_primask)
    __set_primask                            0x200017b3   Thumb Code     6  soc_pm.o(i.__set_primask)
    i._abort_timeout                         0x200017b8   Section        0  system_work_q.o(i._abort_timeout)
    _abort_timeout                           0x200017b9   Thumb Code   106  system_work_q.o(i._abort_timeout)
    i._ms_to_cycle                           0x20001828   Section        0  timer_acts.o(i._ms_to_cycle)
    i._sys_device_do_config_level            0x2000186c   Section        0  device.o(i._sys_device_do_config_level)
    i._sys_soc_set_power_state               0x20001894   Section        0  soc_pm.o(i._sys_soc_set_power_state)
    _sys_soc_set_power_state                 0x20001895   Thumb Code    88  soc_pm.o(i._sys_soc_set_power_state)
    i._sys_soc_suspend_new                   0x200018f8   Section        0  soc_pm.o(i._sys_soc_suspend_new)
    i.adc_acts_read_new                      0x20001948   Section        0  adc_acts.o(i.adc_acts_read_new)
    i.adc_batt_val_read                      0x200019f4   Section        0  app_batt.o(i.adc_batt_val_read)
    i.adckey_acts_disable_new                0x20001a00   Section        0  adckey_acts.o(i.adckey_acts_disable_new)
    i.adckey_acts_enable_new                 0x20001a1e   Section        0  adckey_acts.o(i.adckey_acts_enable_new)
    i.adckey_acts_get_keycode_new            0x20001a48   Section        0  adckey_acts.o(i.adckey_acts_get_keycode_new)
    i.adckey_acts_init_new                   0x20001aa8   Section        0  adckey_acts.o(i.adckey_acts_init_new)
    i.adckey_acts_irq_config                 0x20001bb8   Section        0  adckey_acts.o(i.adckey_acts_irq_config)
    i.adckey_acts_poll_new                   0x20001c04   Section        0  adckey_acts.o(i.adckey_acts_poll_new)
    i.adckey_acts_register_notify_new        0x20001ce8   Section        0  adckey_acts.o(i.adckey_acts_register_notify_new)
    i.adckey_acts_report_key_new             0x20001cee   Section        0  adckey_acts.o(i.adckey_acts_report_key_new)
    i.adckey_acts_resume_device_from_suspend 0x20001d10   Section        0  adckey_acts.o(i.adckey_acts_resume_device_from_suspend)
    i.adckey_acts_suspend_device             0x20001d24   Section        0  adckey_acts.o(i.adckey_acts_suspend_device)
    i.adckey_acts_unregister_notify_new      0x20001d40   Section        0  adckey_acts.o(i.adckey_acts_unregister_notify_new)
    i.adckey_acts_wakeup_isr                 0x20001d4c   Section        0  adckey_acts.o(i.adckey_acts_wakeup_isr)
    i.adckey_device_ctrl                     0x20001d94   Section        0  adckey_acts.o(i.adckey_device_ctrl)
    adckey_device_ctrl                       0x20001d95   Thumb Code    44  adckey_acts.o(i.adckey_device_ctrl)
    i.adckey_input_notify                    0x20001dc0   Section        0  main.o(i.adckey_input_notify)
    i.adckey_timer_start                     0x20001df8   Section        0  adckey_acts.o(i.adckey_timer_start)
    i.adckey_timer_stop                      0x20001e38   Section        0  adckey_acts.o(i.adckey_timer_stop)
    i.add_adckey                             0x20001e70   Section        0  adckey_acts.o(i.add_adckey)
    add_adckey                               0x20001e71   Thumb Code    82  adckey_acts.o(i.add_adckey)
    i.app_main                               0x20001ecc   Section        0  main.o(i.app_main)
    i.batt_manager_init                      0x20001f48   Section        0  app_batt.o(i.batt_manager_init)
    i.batt_timer_handler                     0x20001f70   Section        0  app_batt.o(i.batt_timer_handler)
    i.check_pm_policy                        0x20001f7c   Section        0  soc_pm.o(i.check_pm_policy)
    check_pm_policy                          0x20001f7d   Thumb Code    50  soc_pm.o(i.check_pm_policy)
    i.debug_uart_init                        0x20001fb8   Section        0  system.o(i.debug_uart_init)
    i.debug_uart_put_char                    0x20002060   Section        0  system.o(i.debug_uart_put_char)
    i.deep_sleep_entry                       0x20002098   Section        0  soc_pm.o(i.deep_sleep_entry)
    i.deep_sleep_exit                        0x200020c4   Section        0  soc_pm.o(i.deep_sleep_exit)
    deep_sleep_exit                          0x200020c5   Thumb Code    70  soc_pm.o(i.deep_sleep_exit)
    i.device_any_busy_check                  0x2000211c   Section        0  device.o(i.device_any_busy_check)
    i.device_busy_clear_new                  0x20002158   Section        0  device.o(i.device_busy_clear_new)
    i.device_busy_set_new                    0x2000218c   Section        0  device.o(i.device_busy_set_new)
    i.device_get_binding                     0x200021c0   Section        0  device.o(i.device_get_binding)
    i.enable_wake_event                      0x200021f4   Section        0  soc_pm.o(i.enable_wake_event)
    enable_wake_event                        0x200021f5   Thumb Code     2  soc_pm.o(i.enable_wake_event)
    i.get_key_handle                         0x200021f8   Section        0  main.o(i.get_key_handle)
    i.key_device_open                        0x2000221c   Section        0  main.o(i.key_device_open)
    i.low_power_led_indication               0x20002266   Section        0  app_batt.o(i.low_power_led_indication)
    i.low_power_state_entry                  0x20002268   Section        0  soc_pm.o(i.low_power_state_entry)
    low_power_state_entry                    0x20002269   Thumb Code    14  soc_pm.o(i.low_power_state_entry)
    i.main                                   0x20002278   Section        0  entry.o(i.main)
    i.new_k_delayed_work_cancel              0x200022a8   Section        0  system_work_q.o(i.new_k_delayed_work_cancel)
    i.patch_sys_soc_suspend                  0x20002340   Section        0  soc_pm.o(i.patch_sys_soc_suspend)
    i.remove_adckey                          0x20002350   Section        0  adckey_acts.o(i.remove_adckey)
    remove_adckey                            0x20002351   Thumb Code    40  adckey_acts.o(i.remove_adckey)
    i.request_32M_XTAL                       0x2000237c   Section        0  soc_pm.o(i.request_32M_XTAL)
    request_32M_XTAL                         0x2000237d   Thumb Code    70  soc_pm.o(i.request_32M_XTAL)
    i.request_vd12                           0x200023c8   Section        0  soc_pm.o(i.request_vd12)
    request_vd12                             0x200023c9   Thumb Code     2  soc_pm.o(i.request_vd12)
    i.request_vd12_largebias                 0x200023cc   Section        0  soc_pm.o(i.request_vd12_largebias)
    request_vd12_largebias                   0x200023cd   Thumb Code    52  soc_pm.o(i.request_vd12_largebias)
    i.resume_devices                         0x20002404   Section        0  soc_pm.o(i.resume_devices)
    i.set_deep_sleep_clock                   0x2000241c   Section        0  soc_pm.o(i.set_deep_sleep_clock)
    set_deep_sleep_clock                     0x2000241d   Thumb Code    70  soc_pm.o(i.set_deep_sleep_clock)
    i.set_devices_state                      0x20002470   Section        0  device.o(i.set_devices_state)
    i.suspend_devices                        0x200024a8   Section        0  soc_pm.o(i.suspend_devices)
    i.switch_cpu_clock_3M                    0x200024c0   Section        0  soc_pm.o(i.switch_cpu_clock_3M)
    switch_cpu_clock_3M                      0x200024c1   Thumb Code    34  soc_pm.o(i.switch_cpu_clock_3M)
    i.sys_read32                             0x200024f0   Section        0  system.o(i.sys_read32)
    sys_read32                               0x200024f1   Thumb Code     6  system.o(i.sys_read32)
    i.sys_read32                             0x200024f6   Section        0  soc_pm.o(i.sys_read32)
    sys_read32                               0x200024f7   Thumb Code     6  soc_pm.o(i.sys_read32)
    i.sys_read32                             0x200024fc   Section        0  adckey_acts.o(i.sys_read32)
    sys_read32                               0x200024fd   Thumb Code     6  adckey_acts.o(i.sys_read32)
    i.sys_slist_find_and_remove              0x20002502   Section        0  system_work_q.o(i.sys_slist_find_and_remove)
    sys_slist_find_and_remove                0x20002503   Thumb Code    92  system_work_q.o(i.sys_slist_find_and_remove)
    i.sys_write32                            0x2000255e   Section        0  system.o(i.sys_write32)
    sys_write32                              0x2000255f   Thumb Code     4  system.o(i.sys_write32)
    i.sys_write32                            0x20002562   Section        0  soc_pm.o(i.sys_write32)
    sys_write32                              0x20002563   Thumb Code     4  soc_pm.o(i.sys_write32)
    i.sys_write32                            0x20002566   Section        0  board.o(i.sys_write32)
    sys_write32                              0x20002567   Thumb Code     4  board.o(i.sys_write32)
    i.sys_write32                            0x2000256a   Section        0  uart_acts.o(i.sys_write32)
    sys_write32                              0x2000256b   Thumb Code     4  uart_acts.o(i.sys_write32)
    i.sys_write32                            0x2000256e   Section        0  timer_acts.o(i.sys_write32)
    sys_write32                              0x2000256f   Thumb Code     4  timer_acts.o(i.sys_write32)
    i.sys_write32                            0x20002572   Section        0  adckey_acts.o(i.sys_write32)
    sys_write32                              0x20002573   Thumb Code     4  adckey_acts.o(i.sys_write32)
    i.timer_acts_callback_set                0x20002576   Section        0  timer_acts.o(i.timer_acts_callback_set)
    i.timer_acts_config_irq                  0x2000257c   Section        0  timer_acts.o(i.timer_acts_config_irq)
    i.timer_acts_init                        0x200025b8   Section        0  timer_acts.o(i.timer_acts_init)
    i.timer_acts_isr                         0x200025e8   Section        0  timer_acts.o(i.timer_acts_isr)
    i.timer_acts_start                       0x20002638   Section        0  timer_acts.o(i.timer_acts_start)
    i.timer_acts_stop                        0x20002672   Section        0  timer_acts.o(i.timer_acts_stop)
    i.timer_acts_user_data_get               0x20002698   Section        0  timer_acts.o(i.timer_acts_user_data_get)
    i.timer_acts_user_data_set               0x200026a0   Section        0  timer_acts.o(i.timer_acts_user_data_set)
    i.timer_reload                           0x200026a6   Section        0  timer_acts.o(i.timer_reload)
    timer_reload                             0x200026a7   Thumb Code    46  timer_acts.o(i.timer_reload)
    i.uart_acts_resume_device_from_suspend   0x200026d4   Section        0  uart_acts.o(i.uart_acts_resume_device_from_suspend)
    i.uart_acts_suspend_device               0x20002706   Section        0  uart_acts.o(i.uart_acts_suspend_device)
    i.uart_console_init_new                  0x20002730   Section        0  uart_console.o(i.uart_console_init_new)
    i.uart_device_ctrl                       0x20002750   Section        0  uart_acts.o(i.uart_device_ctrl)
    uart_device_ctrl                         0x20002751   Thumb Code    44  uart_acts.o(i.uart_device_ctrl)
    i.update_adckey_map                      0x2000277c   Section        0  adckey_acts.o(i.update_adckey_map)
    i.update_battry_value                    0x200027ac   Section        0  app_batt.o(i.update_battry_value)
    i.very_low_power_handler                 0x20002904   Section        0  app_batt.o(i.very_low_power_handler)
    .constdata                               0x20002908   Section       44  soc_pm.o(.constdata)
    .constdata                               0x20002934   Section       12  uart_acts.o(.constdata)
    uart_acts_dev_cfg_0                      0x20002934   Data          12  uart_acts.o(.constdata)
    .constdata                               0x20002940   Section       20  timer_acts.o(.constdata)
    .constdata                               0x20002954   Section       20  adc_acts.o(.constdata)
    .constdata                               0x20002968   Section       56  adckey_acts.o(.constdata)
    adckey_0_acts_cdata                      0x20002978   Data          20  adckey_acts.o(.constdata)
    adckey_1_acts_cdata                      0x2000298c   Data          20  adckey_acts.o(.constdata)
    .conststring                             0x200029a0   Section        6  adckey_acts.o(.conststring)
    .conststrlit                             0x200029a8   Section        1  board.o(.conststrlit)
    .conststrlit                             0x200029ac   Section        1  uart_console.o(.conststrlit)
    .conststrlit                             0x200029b0   Section       10  sys_clock_init.o(.conststrlit)
    .conststrlit                             0x200029bc   Section        7  uart_acts.o(.conststrlit)
    .conststrlit                             0x200029c4   Section        8  timer_acts.o(.conststrlit)
    .conststrlit                             0x200029cc   Section        6  adc_acts.o(.conststrlit)
    .conststrlit                             0x200029d4   Section       21  adckey_acts.o(.conststrlit)
    .conststrlit                             0x200029ec   Section        1  system_work_q.o(.conststrlit)
    .init.once.data."..\\..\\..\\..\\boards\\board.c".0 0x200029f0   Section       32  board.o(.init.once.data."..\\..\\..\\..\\boards\\board.c".0)
    board_pin_config                         0x200029f0   Data          32  board.o(.init.once.data."..\\..\\..\\..\\boards\\board.c".0)
    .ram_retention_code                      0x20002a20   Section        0  soc_pm.o(.ram_retention_code)
    request_rc_3M                            0x20002a21   Thumb Code    76  soc_pm.o(.ram_retention_code)
    __tagsym$$used                           0x20002a21   Number         0  soc_pm.o(.ram_retention_code)
    delay_cpu_cycle                          0x20002a6d   Thumb Code    28  soc_pm.o(.ram_retention_code)
    __tagsym$$used                           0x20002a6d   Number         0  soc_pm.o(.ram_retention_code)
    __tagsym$$used                           0x20002a89   Number         0  soc_pm.o(.ram_retention_code)
    .ram_retention_data                      0x20002bd8   Section        2  soc_pm.o(.ram_retention_data)
    __tagsym$$used                           0x20002bd8   Number         0  soc_pm.o(.ram_retention_data)
    sleep_32k                                0x20002bd8   Data           1  soc_pm.o(.ram_retention_data)
    __tagsym$$used                           0x20002bd9   Number         0  soc_pm.o(.ram_retention_data)
    .ram_retention_data                      0x20002bda   Section      256  kernel_config_init.o(.ram_retention_data)
    __tagsym$$used                           0x20002bda   Number         0  kernel_config_init.o(.ram_retention_data)
    .init_PRE_KERNEL_10                      0x20002cdc   Section       12  board.o(.init_PRE_KERNEL_10)
    __device_sys_init_board_early_init3      0x20002cdc   Data          12  board.o(.init_PRE_KERNEL_10)
    __tagsym$$used                           0x20002cdc   Number         0  board.o(.init_PRE_KERNEL_10)
    .init_PRE_KERNEL_150                     0x20002ce8   Section       12  uart_acts.o(.init_PRE_KERNEL_150)
    __device_uart_acts_0                     0x20002ce8   Data          12  uart_acts.o(.init_PRE_KERNEL_150)
    __tagsym$$used                           0x20002ce8   Number         0  uart_acts.o(.init_PRE_KERNEL_150)
    .init_PRE_KERNEL_160                     0x20002cf4   Section       12  uart_console.o(.init_PRE_KERNEL_160)
    __device_sys_init_uart_console_init_new0 0x20002cf4   Data          12  uart_console.o(.init_PRE_KERNEL_160)
    __tagsym$$used                           0x20002cf4   Number         0  uart_console.o(.init_PRE_KERNEL_160)
    .init_PRE_KERNEL_20                      0x20002d00   Section       12  sys_clock_init.o(.init_PRE_KERNEL_20)
    __device_sys_init__sys_clock_driver_init0 0x20002d00   Data          12  sys_clock_init.o(.init_PRE_KERNEL_20)
    __tagsym$$used                           0x20002d00   Number         0  sys_clock_init.o(.init_PRE_KERNEL_20)
    .init_PRE_KERNEL_280                     0x20002d0c   Section       12  adc_acts.o(.init_PRE_KERNEL_280)
    __device_adc_acts                        0x20002d0c   Data          12  adc_acts.o(.init_PRE_KERNEL_280)
    __tagsym$$used                           0x20002d0c   Number         0  adc_acts.o(.init_PRE_KERNEL_280)
    .init_POST_KERNEL20                      0x20002d18   Section       12  timer_acts.o(.init_POST_KERNEL20)
    __device_timer_acts                      0x20002d18   Data          12  timer_acts.o(.init_POST_KERNEL20)
    __tagsym$$used                           0x20002d18   Number         0  timer_acts.o(.init_POST_KERNEL20)
    .init_POST_KERNEL40                      0x20002d24   Section       12  system_work_q.o(.init_POST_KERNEL40)
    __device_sys_init_k_sys_work_q_init0     0x20002d24   Data          12  system_work_q.o(.init_POST_KERNEL40)
    __tagsym$$used                           0x20002d24   Number         0  system_work_q.o(.init_POST_KERNEL40)
    .init_POST_KERNEL50                      0x20002d30   Section       24  adckey_acts.o(.init_POST_KERNEL50)
    __device_adckey_0_acts                   0x20002d30   Data          12  adckey_acts.o(.init_POST_KERNEL50)
    __tagsym$$used                           0x20002d30   Number         0  adckey_acts.o(.init_POST_KERNEL50)
    __device_adckey_1_acts                   0x20002d3c   Data          12  adckey_acts.o(.init_POST_KERNEL50)
    __tagsym$$used                           0x20002d3c   Number         0  adckey_acts.o(.init_POST_KERNEL50)
    .device_BUSY                             0x20002d48   Section        8  device.o(.device_BUSY)
    __tagsym$$used                           0x20002d48   Number         0  device.o(.device_BUSY)
    .patch_hw_func                           0x20002d50   Section       16  device.o(.patch_hw_func)
    __function_patch_device_busy_set         0x20002d50   Data           8  device.o(.patch_hw_func)
    __tagsym$$used                           0x20002d50   Number         0  device.o(.patch_hw_func)
    __function_patch_device_busy_clear       0x20002d58   Data           8  device.o(.patch_hw_func)
    __tagsym$$used                           0x20002d58   Number         0  device.o(.patch_hw_func)
    .patch_hw_func                           0x20002d60   Section        8  system_work_q.o(.patch_hw_func)
    __function_patch_k_delayed_work_cancel   0x20002d60   Data           8  system_work_q.o(.patch_hw_func)
    __tagsym$$used                           0x20002d60   Number         0  system_work_q.o(.patch_hw_func)
    .patch_hw_code                           0x20002d68   Section        8  soc_pm.o(.patch_hw_code)
    __code_patch_idle_wfi                    0x20002d68   Data           8  soc_pm.o(.patch_hw_code)
    __tagsym$$used                           0x20002d68   Number         0  soc_pm.o(.patch_hw_code)
    ._k_stack.static.async_msg_free          0x20002d70   Section       20  kernel_config_init.o(._k_stack.static.async_msg_free)
    .data                                    0x20002d84   Section        4  soc_pm.o(.data)
    pm_state                                 0x20002d84   Data           4  soc_pm.o(.data)
    .data                                    0x20002d88   Section        4  app_batt.o(.data)
    batt_level                               0x20002d88   Data           1  app_batt.o(.data)
    batt_val                                 0x20002d8a   Data           2  app_batt.o(.data)
    .data                                    0x20002d8c   Section        2  board.o(.data)
    .data                                    0x20002d90   Section       24  uart_acts.o(.data)
    uart_acts_dev_data_0                     0x20002d90   Data          24  uart_acts.o(.data)
    .data                                    0x20002da8   Section       44  timer_acts.o(.data)
    .data                                    0x20002dd4   Section        4  adc_acts.o(.data)
    .data                                    0x20002dd8   Section       84  adckey_acts.o(.data)
    adckey_0_acts_keymaps                    0x20002de4   Data          36  adckey_acts.o(.data)
    adckey_1_acts_keymaps                    0x20002e08   Data          36  adckey_acts.o(.data)
    .data                                    0x20002e2c   Section       20  device.o(.data)
    config_levels                            0x20002e2c   Data          20  device.o(.data)
    .devconfig.init                          0x20002e40   Section       16  board.o(.devconfig.init)
    __config_sys_init_board_early_init3      0x20002e40   Data          16  board.o(.devconfig.init)
    __tagsym$$used                           0x20002e40   Number         0  board.o(.devconfig.init)
    .devconfig.init                          0x20002e50   Section       16  uart_console.o(.devconfig.init)
    __config_sys_init_uart_console_init_new0 0x20002e50   Data          16  uart_console.o(.devconfig.init)
    __tagsym$$used                           0x20002e50   Number         0  uart_console.o(.devconfig.init)
    .devconfig.init                          0x20002e60   Section       16  sys_clock_init.o(.devconfig.init)
    __config_sys_init__sys_clock_driver_init0 0x20002e60   Data          16  sys_clock_init.o(.devconfig.init)
    __tagsym$$used                           0x20002e60   Number         0  sys_clock_init.o(.devconfig.init)
    .devconfig.init                          0x20002e70   Section       16  uart_acts.o(.devconfig.init)
    __config_uart_acts_0                     0x20002e70   Data          16  uart_acts.o(.devconfig.init)
    __tagsym$$used                           0x20002e70   Number         0  uart_acts.o(.devconfig.init)
    .devconfig.init                          0x20002e80   Section       16  timer_acts.o(.devconfig.init)
    __config_timer_acts                      0x20002e80   Data          16  timer_acts.o(.devconfig.init)
    __tagsym$$used                           0x20002e80   Number         0  timer_acts.o(.devconfig.init)
    .devconfig.init                          0x20002e90   Section       16  adc_acts.o(.devconfig.init)
    __config_adc_acts                        0x20002e90   Data          16  adc_acts.o(.devconfig.init)
    __tagsym$$used                           0x20002e90   Number         0  adc_acts.o(.devconfig.init)
    .devconfig.init                          0x20002ea0   Section       32  adckey_acts.o(.devconfig.init)
    __config_adckey_0_acts                   0x20002ea0   Data          16  adckey_acts.o(.devconfig.init)
    __tagsym$$used                           0x20002ea0   Number         0  adckey_acts.o(.devconfig.init)
    __config_adckey_1_acts                   0x20002eb0   Data          16  adckey_acts.o(.devconfig.init)
    __tagsym$$used                           0x20002eb0   Number         0  adckey_acts.o(.devconfig.init)
    .devconfig.init                          0x20002ec0   Section       16  system_work_q.o(.devconfig.init)
    __config_sys_init_k_sys_work_q_init0     0x20002ec0   Data          16  system_work_q.o(.devconfig.init)
    __tagsym$$used                           0x20002ec0   Number         0  system_work_q.o(.devconfig.init)
    .noinit."..\\..\\..\\..\\kernel\\kernel_config_init.c".0 0x20002ed0   Section     1024  kernel_config_init.o(.noinit."..\\..\\..\\..\\kernel\\kernel_config_init.c".0)
    .noinit."..\\..\\..\\..\\kernel\\kernel_config_init.c".1 0x200032d0   Section     1024  kernel_config_init.o(.noinit."..\\..\\..\\..\\kernel\\kernel_config_init.c".1)
    .noinit."..\\..\\..\\..\\kernel\\kernel_config_init.c".2 0x200036d0   Section      840  kernel_config_init.o(.noinit."..\\..\\..\\..\\kernel\\kernel_config_init.c".2)
    async_msg_array                          0x200036d0   Data         840  kernel_config_init.o(.noinit."..\\..\\..\\..\\kernel\\kernel_config_init.c".2)
    .noinit."..\\..\\..\\..\\kernel\\kernel_config_init.c".3 0x20003a18   Section       40  kernel_config_init.o(.noinit."..\\..\\..\\..\\kernel\\kernel_config_init.c".3)
    .bss                                     0x20003a40   Section      256  entry.o(.bss)
    .bss                                     0x20003b40   Section       32  main.o(.bss)
    .bss                                     0x20003b60   Section       52  app_batt.o(.bss)
    batt_timer                               0x20003b60   Data          52  app_batt.o(.bss)
    .bss                                     0x20003b94   Section      232  adckey_acts.o(.bss)
    adckey_0_acts_ddata                      0x20003bbc   Data          96  adckey_acts.o(.bss)
    adckey_1_acts_ddata                      0x20003c1c   Data          96  adckey_acts.o(.bss)
    STACK                                    0x20003c80   Section      640  startup.o(STACK)

    Global Symbols

    Symbol Name                              Value     Ov Type        Size  Object(Section)

    BuildAttributes$$THM_ISAv3M$S$PE$A:L22$X:L11$S22$IEEE1$IW$USESV6$~STKCKD$USESV7$~SHL$OTIME$ROPI$EBA8$MICROLIB$REQ8$PRES8$EABIv2 0x00000000   Number         0  anon$$obj.o ABSOLUTE
    __ARM_use_no_argv                        0x00000000   Number         0  entry.o ABSOLUTE
    __cpp_initialize__aeabi_                  - Undefined Weak Reference
    __cxa_finalize                            - Undefined Weak Reference
    __decompress                              - Undefined Weak Reference
    _clock_init                               - Undefined Weak Reference
    _microlib_exit                            - Undefined Weak Reference
    compute_checksum                          - Undefined Weak Reference
    uart_adfu_close                          0x00000e19   Thumb Code     0  rom_zephyr_symdefs.txt ABSOLUTE
    uart_adfu_server                         0x000012dd   Thumb Code     0  rom_zephyr_symdefs.txt ABSOLUTE
    uart_connect                             0x00001e45   Thumb Code     0  rom_zephyr_symdefs.txt ABSOLUTE
    uart_open                                0x00002201   Thumb Code     0  rom_zephyr_symdefs.txt ABSOLUTE
    _vector_table                            0x00004001   Thumb Code     0  rom_zephyr_symdefs.txt ABSOLUTE
    _irq_vector_table                        0x00004041   Thumb Code     0  rom_zephyr_symdefs.txt ABSOLUTE
    __gnu_thumb1_case_sqi                    0x000041c1   Thumb Code     0  rom_zephyr_symdefs.txt ABSOLUTE
    __gnu_thumb1_case_uqi                    0x000041d5   Thumb Code     0  rom_zephyr_symdefs.txt ABSOLUTE
    __gnu_thumb1_case_uhi                    0x000041e9   Thumb Code     0  rom_zephyr_symdefs.txt ABSOLUTE
    __aeabi_uidiv                            0x000041fd   Thumb Code     0  rom_zephyr_symdefs.txt ABSOLUTE
    __udivsi3                                0x000041fd   Thumb Code     0  rom_zephyr_symdefs.txt ABSOLUTE
    __aeabi_uidivmod                         0x00004285   Thumb Code     0  rom_zephyr_symdefs.txt ABSOLUTE
    __aeabi_idiv                             0x00004299   Thumb Code     0  rom_zephyr_symdefs.txt ABSOLUTE
    __divsi3                                 0x00004299   Thumb Code     0  rom_zephyr_symdefs.txt ABSOLUTE
    __aeabi_idivmod                          0x00004345   Thumb Code     0  rom_zephyr_symdefs.txt ABSOLUTE
    __aeabi_idiv0                            0x00004359   Thumb Code     0  rom_zephyr_symdefs.txt ABSOLUTE
    __aeabi_ldiv0                            0x00004359   Thumb Code     0  rom_zephyr_symdefs.txt ABSOLUTE
    __aeabi_llsr                             0x0000435d   Thumb Code     0  rom_zephyr_symdefs.txt ABSOLUTE
    __lshrdi3                                0x0000435d   Thumb Code     0  rom_zephyr_symdefs.txt ABSOLUTE
    __aeabi_llsl                             0x00004375   Thumb Code     0  rom_zephyr_symdefs.txt ABSOLUTE
    __ashldi3                                0x00004375   Thumb Code     0  rom_zephyr_symdefs.txt ABSOLUTE
    __clzsi2                                 0x0000438d   Thumb Code     0  rom_zephyr_symdefs.txt ABSOLUTE
    __aeabi_uldivmod                         0x000043c9   Thumb Code     0  rom_zephyr_symdefs.txt ABSOLUTE
    __aeabi_lmul                             0x00004409   Thumb Code     0  rom_zephyr_symdefs.txt ABSOLUTE
    __muldi3                                 0x00004409   Thumb Code     0  rom_zephyr_symdefs.txt ABSOLUTE
    __ffssi2                                 0x0000445d   Thumb Code     0  rom_zephyr_symdefs.txt ABSOLUTE
    __udivmoddi4                             0x00004471   Thumb Code     0  rom_zephyr_symdefs.txt ABSOLUTE
    __clzdi2                                 0x000045f1   Thumb Code     0  rom_zephyr_symdefs.txt ABSOLUTE
    __ctzsi2                                 0x00004609   Thumb Code     0  rom_zephyr_symdefs.txt ABSOLUTE
    ASC_I_Encoder_Set_Buffer                 0x000094b1   Thumb Code     0  rom_zephyr_symdefs.txt ABSOLUTE
    ROM_ASC_I_Encoder_Init                   0x000094e5   Thumb Code     0  rom_zephyr_symdefs.txt ABSOLUTE
    ROM_ASC_I_Encoder                        0x00009529   Thumb Code     0  rom_zephyr_symdefs.txt ABSOLUTE
    fprintf                                  0x00009a31   Thumb Code     0  rom_zephyr_symdefs.txt ABSOLUTE
    vfprintf                                 0x00009a51   Thumb Code     0  rom_zephyr_symdefs.txt ABSOLUTE
    printf                                   0x00009a65   Thumb Code     0  rom_zephyr_symdefs.txt ABSOLUTE
    vprintf                                  0x00009a85   Thumb Code     0  rom_zephyr_symdefs.txt ABSOLUTE
    _prf                                     0x00009bc1   Thumb Code     0  rom_zephyr_symdefs.txt ABSOLUTE
    snprintf_rom                             0x0000a2c9   Thumb Code     0  rom_zephyr_symdefs.txt ABSOLUTE
    sprintf                                  0x0000a2f9   Thumb Code     0  rom_zephyr_symdefs.txt ABSOLUTE
    vsnprintf                                0x0000a329   Thumb Code     0  rom_zephyr_symdefs.txt ABSOLUTE
    vsprintf                                 0x0000a34d   Thumb Code     0  rom_zephyr_symdefs.txt ABSOLUTE
    __stdout_hook_install                    0x0000a379   Thumb Code     0  rom_zephyr_symdefs.txt ABSOLUTE
    fputc                                    0x0000a385   Thumb Code     0  rom_zephyr_symdefs.txt ABSOLUTE
    fputs                                    0x0000a39d   Thumb Code     0  rom_zephyr_symdefs.txt ABSOLUTE
    fwrite                                   0x0000a3c5   Thumb Code     0  rom_zephyr_symdefs.txt ABSOLUTE
    puts                                     0x0000a409   Thumb Code     0  rom_zephyr_symdefs.txt ABSOLUTE
    strcpy                                   0x0000a42d   Thumb Code     0  rom_zephyr_symdefs.txt ABSOLUTE
    strncpy                                  0x0000a43f   Thumb Code     0  rom_zephyr_symdefs.txt ABSOLUTE
    strchr                                   0x0000a463   Thumb Code     0  rom_zephyr_symdefs.txt ABSOLUTE
    strrchr                                  0x0000a47d   Thumb Code     0  rom_zephyr_symdefs.txt ABSOLUTE
    strlen                                   0x0000a493   Thumb Code     0  rom_zephyr_symdefs.txt ABSOLUTE
    strcmp                                   0x0000a4a5   Thumb Code     0  rom_zephyr_symdefs.txt ABSOLUTE
    strncmp                                  0x0000a4bd   Thumb Code     0  rom_zephyr_symdefs.txt ABSOLUTE
    strcat                                   0x0000a4db   Thumb Code     0  rom_zephyr_symdefs.txt ABSOLUTE
    strncat                                  0x0000a4f1   Thumb Code     0  rom_zephyr_symdefs.txt ABSOLUTE
    memcmp                                   0x0000a51b   Thumb Code     0  rom_zephyr_symdefs.txt ABSOLUTE
    memmove                                  0x0000a541   Thumb Code     0  rom_zephyr_symdefs.txt ABSOLUTE
    memcpy                                   0x0000a563   Thumb Code     0  rom_zephyr_symdefs.txt ABSOLUTE
    memset                                   0x0000a5b7   Thumb Code     0  rom_zephyr_symdefs.txt ABSOLUTE
    memchr                                   0x0000a601   Thumb Code     0  rom_zephyr_symdefs.txt ABSOLUTE
    strncasecmp                              0x0000a61d   Thumb Code     0  rom_zephyr_symdefs.txt ABSOLUTE
    strstr                                   0x0000a649   Thumb Code     0  rom_zephyr_symdefs.txt ABSOLUTE
    strtol                                   0x0000a681   Thumb Code     0  rom_zephyr_symdefs.txt ABSOLUTE
    strtoul                                  0x0000a785   Thumb Code     0  rom_zephyr_symdefs.txt ABSOLUTE
    atoi                                     0x0000a895   Thumb Code     0  rom_zephyr_symdefs.txt ABSOLUTE
    sys_kernel_version_get                   0x0000a8d9   Thumb Code     0  rom_zephyr_symdefs.txt ABSOLUTE
    _tick_get_32                             0x0000a8e1   Thumb Code     0  rom_zephyr_symdefs.txt ABSOLUTE
    sys_tick_get_32                          0x0000a8e1   Thumb Code     0  rom_zephyr_symdefs.txt ABSOLUTE
    k_uptime_get_32                          0x0000a8ed   Thumb Code     0  rom_zephyr_symdefs.txt ABSOLUTE
    _tick_get                                0x0000a905   Thumb Code     0  rom_zephyr_symdefs.txt ABSOLUTE
    sys_tick_get                             0x0000a905   Thumb Code     0  rom_zephyr_symdefs.txt ABSOLUTE
    k_uptime_get                             0x0000a91d   Thumb Code     0  rom_zephyr_symdefs.txt ABSOLUTE
    sys_tick_delta                           0x0000a92d   Thumb Code     0  rom_zephyr_symdefs.txt ABSOLUTE
    sys_tick_delta_32                        0x0000a95d   Thumb Code     0  rom_zephyr_symdefs.txt ABSOLUTE
    k_uptime_delta                           0x0000a989   Thumb Code     0  rom_zephyr_symdefs.txt ABSOLUTE
    k_uptime_delta_32                        0x0000a9a3   Thumb Code     0  rom_zephyr_symdefs.txt ABSOLUTE
    _nano_sys_clock_tick_announce            0x0000a9ad   Thumb Code     0  rom_zephyr_symdefs.txt ABSOLUTE
    k_is_in_isr                              0x0000ac69   Thumb Code     0  rom_zephyr_symdefs.txt ABSOLUTE
    _thread_essential_set                    0x0000ac7d   Thumb Code     0  rom_zephyr_symdefs.txt ABSOLUTE
    _thread_essential_clear                  0x0000ac91   Thumb Code     0  rom_zephyr_symdefs.txt ABSOLUTE
    _is_thread_essential                     0x0000aca5   Thumb Code     0  rom_zephyr_symdefs.txt ABSOLUTE
    k_busy_wait                              0x0000acb5   Thumb Code     0  rom_zephyr_symdefs.txt ABSOLUTE
    _thread_entry                            0x0000ace9   Thumb Code     0  rom_zephyr_symdefs.txt ABSOLUTE
    k_thread_cancel                          0x0000ad11   Thumb Code     0  rom_zephyr_symdefs.txt ABSOLUTE
    _k_thread_group_op                       0x0000ad41   Thumb Code     0  rom_zephyr_symdefs.txt ABSOLUTE
    _k_thread_single_start                   0x0000adad   Thumb Code     0  rom_zephyr_symdefs.txt ABSOLUTE
    k_thread_create                          0x0000ae41   Thumb Code     0  rom_zephyr_symdefs.txt ABSOLUTE
    k_thread_spawn                           0x0000ae7d   Thumb Code     0  rom_zephyr_symdefs.txt ABSOLUTE
    _k_thread_single_suspend                 0x0000aea5   Thumb Code     0  rom_zephyr_symdefs.txt ABSOLUTE
    k_thread_suspend                         0x0000aec1   Thumb Code     0  rom_zephyr_symdefs.txt ABSOLUTE
    _k_thread_single_resume                  0x0000aef1   Thumb Code     0  rom_zephyr_symdefs.txt ABSOLUTE
    k_thread_resume                          0x0000af0d   Thumb Code     0  rom_zephyr_symdefs.txt ABSOLUTE
    _k_thread_single_abort                   0x0000af21   Thumb Code     0  rom_zephyr_symdefs.txt ABSOLUTE
    _init_static_threads                     0x0000af71   Thumb Code     0  rom_zephyr_symdefs.txt ABSOLUTE
    _init_thread_base                        0x0000aff1   Thumb Code     0  rom_zephyr_symdefs.txt ABSOLUTE
    _k_thread_group_mask_get                 0x0000b009   Thumb Code     0  rom_zephyr_symdefs.txt ABSOLUTE
    _k_thread_group_join                     0x0000b00f   Thumb Code     0  rom_zephyr_symdefs.txt ABSOLUTE
    _k_thread_group_leave                    0x0000b019   Thumb Code     0  rom_zephyr_symdefs.txt ABSOLUTE
    main_thread_init                         0x0000b099   Thumb Code     0  rom_zephyr_symdefs.txt ABSOLUTE
    idle_thread_init                         0x0000b0c9   Thumb Code     0  rom_zephyr_symdefs.txt ABSOLUTE
    interrupt_stack_init                     0x0000b0f1   Thumb Code     0  rom_zephyr_symdefs.txt ABSOLUTE
    k_call_stacks_analyze                    0x0000b111   Thumb Code     0  rom_zephyr_symdefs.txt ABSOLUTE
    _bss_zero                                0x0000b189   Thumb Code     0  rom_zephyr_symdefs.txt ABSOLUTE
    _data_copy                               0x0000b1a1   Thumb Code     0  rom_zephyr_symdefs.txt ABSOLUTE
    register_app_main                        0x0000b1bd   Thumb Code     0  rom_zephyr_symdefs.txt ABSOLUTE
    register_kernel_cfg_func                 0x0000b1cd   Thumb Code     0  rom_zephyr_symdefs.txt ABSOLUTE
    _Cstart                                  0x0000b1d9   Thumb Code     0  rom_zephyr_symdefs.txt ABSOLUTE
    k_sem_init                               0x0000b441   Thumb Code     0  rom_zephyr_symdefs.txt ABSOLUTE
    _sem_give_non_preemptible                0x0000b453   Thumb Code     0  rom_zephyr_symdefs.txt ABSOLUTE
    k_sem_give                               0x0000b481   Thumb Code     0  rom_zephyr_symdefs.txt ABSOLUTE
    k_sem_take                               0x0000b4f9   Thumb Code     0  rom_zephyr_symdefs.txt ABSOLUTE
    device_pm_control_nop                    0x0000b535   Thumb Code     0  rom_zephyr_symdefs.txt ABSOLUTE
    device_busy_set                          0x0000b5c5   Thumb Code     0  rom_zephyr_symdefs.txt ABSOLUTE
    device_busy_clear                        0x0000b5f9   Thumb Code     0  rom_zephyr_symdefs.txt ABSOLUTE
    _sys_soc_resume                          0x0000b62d   Thumb Code     0  rom_zephyr_symdefs.txt ABSOLUTE
    _sys_soc_resume_from_deep_sleep          0x0000b62f   Thumb Code     0  rom_zephyr_symdefs.txt ABSOLUTE
    _sys_power_save_idle_exit                0x0000b631   Thumb Code     0  rom_zephyr_symdefs.txt ABSOLUTE
    idle                                     0x0000b65d   Thumb Code     0  rom_zephyr_symdefs.txt ABSOLUTE
    _add_thread_to_ready_q                   0x0000b6b9   Thumb Code     0  rom_zephyr_symdefs.txt ABSOLUTE
    _remove_thread_from_ready_q              0x0000b7a5   Thumb Code     0  rom_zephyr_symdefs.txt ABSOLUTE
    k_sched_lock                             0x0000b7f9   Thumb Code     0  rom_zephyr_symdefs.txt ABSOLUTE
    _pend_thread                             0x0000b809   Thumb Code     0  rom_zephyr_symdefs.txt ABSOLUTE
    _pend_current_thread                     0x0000b875   Thumb Code     0  rom_zephyr_symdefs.txt ABSOLUTE
    __must_switch_threads                    0x0000b895   Thumb Code     0  rom_zephyr_symdefs.txt ABSOLUTE
    _reschedule_threads                      0x0000b8b9   Thumb Code     0  rom_zephyr_symdefs.txt ABSOLUTE
    k_sched_unlock                           0x0000b8ed   Thumb Code     0  rom_zephyr_symdefs.txt ABSOLUTE
    k_thread_priority_get                    0x0000b909   Thumb Code     0  rom_zephyr_symdefs.txt ABSOLUTE
    k_thread_priority_set                    0x0000b90f   Thumb Code     0  rom_zephyr_symdefs.txt ABSOLUTE
    _move_thread_to_end_of_prio_q            0x0000b941   Thumb Code     0  rom_zephyr_symdefs.txt ABSOLUTE
    k_yield                                  0x0000b985   Thumb Code     0  rom_zephyr_symdefs.txt ABSOLUTE
    k_sleep                                  0x0000b9bd   Thumb Code     0  rom_zephyr_symdefs.txt ABSOLUTE
    k_wakeup                                 0x0000ba09   Thumb Code     0  rom_zephyr_symdefs.txt ABSOLUTE
    k_current_get                            0x0000ba65   Thumb Code     0  rom_zephyr_symdefs.txt ABSOLUTE
    k_sched_time_slice_set                   0x0000ba71   Thumb Code     0  rom_zephyr_symdefs.txt ABSOLUTE
    _is_thread_time_slicing                  0x0000ba8d   Thumb Code     0  rom_zephyr_symdefs.txt ABSOLUTE
    _update_time_slice_before_swap           0x0000bae1   Thumb Code     0  rom_zephyr_symdefs.txt ABSOLUTE
    k_is_preempt_thread                      0x0000baed   Thumb Code     0  rom_zephyr_symdefs.txt ABSOLUTE
    k_mutex_init                             0x0000bb39   Thumb Code     0  rom_zephyr_symdefs.txt ABSOLUTE
    k_mutex_lock                             0x0000bb45   Thumb Code     0  rom_zephyr_symdefs.txt ABSOLUTE
    k_mutex_unlock                           0x0000bc09   Thumb Code     0  rom_zephyr_symdefs.txt ABSOLUTE
    k_queue_init                             0x0000bce9   Thumb Code     0  rom_zephyr_symdefs.txt ABSOLUTE
    k_queue_cancel_wait                      0x0000bcf9   Thumb Code     0  rom_zephyr_symdefs.txt ABSOLUTE
    k_queue_insert                           0x0000bd21   Thumb Code     0  rom_zephyr_symdefs.txt ABSOLUTE
    k_queue_append                           0x0000bd77   Thumb Code     0  rom_zephyr_symdefs.txt ABSOLUTE
    k_queue_prepend                          0x0000bd83   Thumb Code     0  rom_zephyr_symdefs.txt ABSOLUTE
    k_queue_append_list                      0x0000bd8f   Thumb Code     0  rom_zephyr_symdefs.txt ABSOLUTE
    k_queue_merge_slist                      0x0000bdc5   Thumb Code     0  rom_zephyr_symdefs.txt ABSOLUTE
    k_queue_get                              0x0000bdd9   Thumb Code     0  rom_zephyr_symdefs.txt ABSOLUTE
    k_stack_init                             0x0000be67   Thumb Code     0  rom_zephyr_symdefs.txt ABSOLUTE
    k_stack_push                             0x0000be79   Thumb Code     0  rom_zephyr_symdefs.txt ABSOLUTE
    k_stack_pop                              0x0000bf51   Thumb Code     0  rom_zephyr_symdefs.txt ABSOLUTE
    k_mem_slab_init                          0x0000bfa9   Thumb Code     0  rom_zephyr_symdefs.txt ABSOLUTE
    k_mem_slab_alloc                         0x0000bfcd   Thumb Code     0  rom_zephyr_symdefs.txt ABSOLUTE
    k_mem_slab_free                          0x0000c025   Thumb Code     0  rom_zephyr_symdefs.txt ABSOLUTE
    init_static_pools                        0x0000c1e1   Thumb Code     0  rom_zephyr_symdefs.txt ABSOLUTE
    k_mem_pool_alloc                         0x0000c229   Thumb Code     0  rom_zephyr_symdefs.txt ABSOLUTE
    k_mem_pool_free                          0x0000c491   Thumb Code     0  rom_zephyr_symdefs.txt ABSOLUTE
    k_msgq_init                              0x0000c691   Thumb Code     0  rom_zephyr_symdefs.txt ABSOLUTE
    k_msgq_put                               0x0000c6ad   Thumb Code     0  rom_zephyr_symdefs.txt ABSOLUTE
    k_msgq_get                               0x0000c759   Thumb Code     0  rom_zephyr_symdefs.txt ABSOLUTE
    k_msgq_purge                             0x0000c81d   Thumb Code     0  rom_zephyr_symdefs.txt ABSOLUTE
    init_mbox_module                         0x0000ca11   Thumb Code     0  rom_zephyr_symdefs.txt ABSOLUTE
    k_mbox_init                              0x0000ca55   Thumb Code     0  rom_zephyr_symdefs.txt ABSOLUTE
    k_mbox_put                               0x0000ca65   Thumb Code     0  rom_zephyr_symdefs.txt ABSOLUTE
    k_mbox_async_put                         0x0000ca79   Thumb Code     0  rom_zephyr_symdefs.txt ABSOLUTE
    k_mbox_data_get                          0x0000cac9   Thumb Code     0  rom_zephyr_symdefs.txt ABSOLUTE
    k_mbox_data_block_get                    0x0000caed   Thumb Code     0  rom_zephyr_symdefs.txt ABSOLUTE
    k_mbox_get                               0x0000cb31   Thumb Code     0  rom_zephyr_symdefs.txt ABSOLUTE
    _alert_deliver                           0x0000cbfd   Thumb Code     0  rom_zephyr_symdefs.txt ABSOLUTE
    k_alert_init                             0x0000cc25   Thumb Code     0  rom_zephyr_symdefs.txt ABSOLUTE
    k_alert_send                             0x0000cc41   Thumb Code     0  rom_zephyr_symdefs.txt ABSOLUTE
    k_alert_recv                             0x0000cc81   Thumb Code     0  rom_zephyr_symdefs.txt ABSOLUTE
    init_pipes_module                        0x0000ce09   Thumb Code     0  rom_zephyr_symdefs.txt ABSOLUTE
    k_pipe_init                              0x0000ce45   Thumb Code     0  rom_zephyr_symdefs.txt ABSOLUTE
    _k_pipe_put_internal                     0x0000ce61   Thumb Code     0  rom_zephyr_symdefs.txt ABSOLUTE
    k_pipe_get                               0x0000cfd5   Thumb Code     0  rom_zephyr_symdefs.txt ABSOLUTE
    k_pipe_put                               0x0000d191   Thumb Code     0  rom_zephyr_symdefs.txt ABSOLUTE
    k_pipe_block_put                         0x0000d1ad   Thumb Code     0  rom_zephyr_symdefs.txt ABSOLUTE
    __errno                                  0x0000d205   Thumb Code     0  rom_zephyr_symdefs.txt ABSOLUTE
    k_work_q_start                           0x0000d26d   Thumb Code     0  rom_zephyr_symdefs.txt ABSOLUTE
    k_delayed_work_init                      0x0000d2a1   Thumb Code     0  rom_zephyr_symdefs.txt ABSOLUTE
    k_delayed_work_cancel                    0x0000d2cd   Thumb Code     0  rom_zephyr_symdefs.txt ABSOLUTE
    k_delayed_work_submit_to_queue           0x0000d361   Thumb Code     0  rom_zephyr_symdefs.txt ABSOLUTE
    sys_work_queue_init                      0x0000d411   Thumb Code     0  rom_zephyr_symdefs.txt ABSOLUTE
    k_sys_work_q_init                        0x0000d439   Thumb Code     0  rom_zephyr_symdefs.txt ABSOLUTE
    uart_console_isr                         0x0000d4f9   Thumb Code     0  rom_zephyr_symdefs.txt ABSOLUTE
    uart_register_input                      0x0000d851   Thumb Code     0  rom_zephyr_symdefs.txt ABSOLUTE
    uart_console_hook_install                0x0000d8cd   Thumb Code     0  rom_zephyr_symdefs.txt ABSOLUTE
    uart_console_init                        0x0000d8dd   Thumb Code     0  rom_zephyr_symdefs.txt ABSOLUTE
    uart_acts_poll_in                        0x0000d901   Thumb Code     0  rom_zephyr_symdefs.txt ABSOLUTE
    uart_acts_poll_out                       0x0000d91b   Thumb Code     0  rom_zephyr_symdefs.txt ABSOLUTE
    uart_acts_fifo_fill                      0x0000d92f   Thumb Code     0  rom_zephyr_symdefs.txt ABSOLUTE
    uart_acts_fifo_read                      0x0000d957   Thumb Code     0  rom_zephyr_symdefs.txt ABSOLUTE
    uart_acts_irq_tx_enable                  0x0000d97f   Thumb Code     0  rom_zephyr_symdefs.txt ABSOLUTE
    uart_acts_irq_tx_disable                 0x0000d991   Thumb Code     0  rom_zephyr_symdefs.txt ABSOLUTE
    uart_acts_irq_tx_ready                   0x0000d9a5   Thumb Code     0  rom_zephyr_symdefs.txt ABSOLUTE
    uart_acts_irq_rx_enable                  0x0000d9bb   Thumb Code     0  rom_zephyr_symdefs.txt ABSOLUTE
    uart_acts_irq_rx_disable                 0x0000d9cd   Thumb Code     0  rom_zephyr_symdefs.txt ABSOLUTE
    uart_acts_irq_tx_complete                0x0000d9e1   Thumb Code     0  rom_zephyr_symdefs.txt ABSOLUTE
    uart_acts_irq_rx_ready                   0x0000d9f1   Thumb Code     0  rom_zephyr_symdefs.txt ABSOLUTE
    uart_acts_irq_update                     0x0000da07   Thumb Code     0  rom_zephyr_symdefs.txt ABSOLUTE
    uart_acts_irq_callback_set               0x0000da0b   Thumb Code     0  rom_zephyr_symdefs.txt ABSOLUTE
    uart_acts_irq_is_pending                 0x0000da11   Thumb Code     0  rom_zephyr_symdefs.txt ABSOLUTE
    baudrate_set                             0x0000da2d   Thumb Code     0  rom_zephyr_symdefs.txt ABSOLUTE
    uart_acts_init                           0x0000da49   Thumb Code     0  rom_zephyr_symdefs.txt ABSOLUTE
    uart_acts_isr                            0x0000da91   Thumb Code     0  rom_zephyr_symdefs.txt ABSOLUTE
    timer_irq_handler                        0x0000daa1   Thumb Code     0  rom_zephyr_symdefs.txt ABSOLUTE
    _timer_idle_enter                        0x0000db41   Thumb Code     0  rom_zephyr_symdefs.txt ABSOLUTE
    _timer_deepsleep_enter                   0x0000db45   Thumb Code     0  rom_zephyr_symdefs.txt ABSOLUTE
    _timer_idle_exit                         0x0000dbf5   Thumb Code     0  rom_zephyr_symdefs.txt ABSOLUTE
    _timer_deepsleep_exit                    0x0000dbf9   Thumb Code     0  rom_zephyr_symdefs.txt ABSOLUTE
    _sys_clock_driver_init                   0x0000dcd9   Thumb Code     0  rom_zephyr_symdefs.txt ABSOLUTE
    _timer_cycle_get_32                      0x0000dd4d   Thumb Code     0  rom_zephyr_symdefs.txt ABSOLUTE
    llcc_tx_cb                               0x0000dd6d   Thumb Code     0  rom_zephyr_symdefs.txt ABSOLUTE
    llcc_send                                0x0000ddfd   Thumb Code     0  rom_zephyr_symdefs.txt ABSOLUTE
    sys_bt_hexdump                           0x0000de5d   Thumb Code     0  rom_zephyr_symdefs.txt ABSOLUTE
    bt_acl_buf_need_copy                     0x0000de5f   Thumb Code     0  rom_zephyr_symdefs.txt ABSOLUTE
    llcc_rx_isr_cb                           0x0000de85   Thumb Code     0  rom_zephyr_symdefs.txt ABSOLUTE
    llcc_device_ctrl                         0x0000df4d   Thumb Code     0  rom_zephyr_symdefs.txt ABSOLUTE
    _bt_llcc_init                            0x0000df8d   Thumb Code     0  rom_zephyr_symdefs.txt ABSOLUTE
    llc_reset                                0x0000dfa5   Thumb Code     0  rom_zephyr_symdefs.txt ABSOLUTE
    llc_request_battery_status               0x0000dfcd   Thumb Code     0  rom_zephyr_symdefs.txt ABSOLUTE
    llc_request_switching_regulator          0x0000dfe9   Thumb Code     0  rom_zephyr_symdefs.txt ABSOLUTE
    llc_getstatus_flags                      0x0000e005   Thumb Code     0  rom_zephyr_symdefs.txt ABSOLUTE
    llcc_trim_set_tx_power_mode              0x0000e015   Thumb Code     0  rom_zephyr_symdefs.txt ABSOLUTE
    llc_set_volatage_mode                    0x0000e039   Thumb Code     0  rom_zephyr_symdefs.txt ABSOLUTE
    llcc_clk_enable_req_handler              0x0000e06d   Thumb Code     0  rom_zephyr_symdefs.txt ABSOLUTE
    llcc_wdog_tx_ena                         0x0000e171   Thumb Code     0  rom_zephyr_symdefs.txt ABSOLUTE
    llcc_wdog_rx_ena                         0x0000e1cd   Thumb Code     0  rom_zephyr_symdefs.txt ABSOLUTE
    llcc_wdog_tx_dis                         0x0000e219   Thumb Code     0  rom_zephyr_symdefs.txt ABSOLUTE
    llcc_wdog_rx_dis                         0x0000e275   Thumb Code     0  rom_zephyr_symdefs.txt ABSOLUTE
    get_llcc_debug_info                      0x0000e33d   Thumb Code     0  rom_zephyr_symdefs.txt ABSOLUTE
    platform_wake_lock_inc                   0x0000e47d   Thumb Code     0  rom_zephyr_symdefs.txt ABSOLUTE
    platform_wake_lock_dec                   0x0000e4a1   Thumb Code     0  rom_zephyr_symdefs.txt ABSOLUTE
    llc_hci_wr_cback                         0x0000e4c5   Thumb Code     0  rom_zephyr_symdefs.txt ABSOLUTE
    llc_hci_alloc_cback                      0x0000e4dd   Thumb Code     0  rom_zephyr_symdefs.txt ABSOLUTE
    llc_hci_free_cback                       0x0000e4ed   Thumb Code     0  rom_zephyr_symdefs.txt ABSOLUTE
    llc_hci_legacy_rd_cback                  0x0000e4fd   Thumb Code     0  rom_zephyr_symdefs.txt ABSOLUTE
    llcc_tx_cmd                              0x0000e56d   Thumb Code     0  rom_zephyr_symdefs.txt ABSOLUTE
    llcc_tx_cmd_crc                          0x0000e5a9   Thumb Code     0  rom_zephyr_symdefs.txt ABSOLUTE
    llcc_tx_event                            0x0000e615   Thumb Code     0  rom_zephyr_symdefs.txt ABSOLUTE
    llcc_tx_soft_reset_ack_cmd               0x0000e651   Thumb Code     0  rom_zephyr_symdefs.txt ABSOLUTE
    llcc_tx_xfer_req_cmd                     0x0000e669   Thumb Code     0  rom_zephyr_symdefs.txt ABSOLUTE
    llcc_tx_xfer_req2_cmd                    0x0000e67f   Thumb Code     0  rom_zephyr_symdefs.txt ABSOLUTE
    llcc_tx_error_cmd                        0x0000e69d   Thumb Code     0  rom_zephyr_symdefs.txt ABSOLUTE
    llcc_tx_error2_cmd                       0x0000e6b1   Thumb Code     0  rom_zephyr_symdefs.txt ABSOLUTE
    llcc_hci_xfer_ack2_cmd                   0x0000e6f1   Thumb Code     0  rom_zephyr_symdefs.txt ABSOLUTE
    llcc_hci_xfer_done2_cmd                  0x0000e703   Thumb Code     0  rom_zephyr_symdefs.txt ABSOLUTE
    llcc_dma_setup_rx                        0x0000e715   Thumb Code     0  rom_zephyr_symdefs.txt ABSOLUTE
    llcc_dma_setup_tx                        0x0000e79d   Thumb Code     0  rom_zephyr_symdefs.txt ABSOLUTE
    llcc_init                                0x0000e7c5   Thumb Code     0  rom_zephyr_symdefs.txt ABSOLUTE
    hci_tx_done                              0x0000e951   Thumb Code     0  rom_zephyr_symdefs.txt ABSOLUTE
    hci_tx_failure                           0x0000e995   Thumb Code     0  rom_zephyr_symdefs.txt ABSOLUTE
    llcc_tx_retry_helper                     0x0000e9c5   Thumb Code     0  rom_zephyr_symdefs.txt ABSOLUTE
    TIMER1_Handler                           0x0000f03d   Thumb Code     0  rom_zephyr_symdefs.txt ABSOLUTE
    llcc_rxevt_valid_handler                 0x0000f055   Thumb Code     0  rom_zephyr_symdefs.txt ABSOLUTE
    llcc_rxcmd_valid_handler                 0x0000f05d   Thumb Code     0  rom_zephyr_symdefs.txt ABSOLUTE
    llcc_txdmal_done_handler                 0x0000f065   Thumb Code     0  rom_zephyr_symdefs.txt ABSOLUTE
    llcc_rxdmal_done_handler                 0x0000f06d   Thumb Code     0  rom_zephyr_symdefs.txt ABSOLUTE
    llc_hci_buf_alloc                        0x0000f081   Thumb Code     0  rom_zephyr_symdefs.txt ABSOLUTE
    llc_hci_buf_free                         0x0000f0a9   Thumb Code     0  rom_zephyr_symdefs.txt ABSOLUTE
    llc_init_tx_message                      0x0000f0b9   Thumb Code     0  rom_zephyr_symdefs.txt ABSOLUTE
    llc_init_wait_for_rx_message             0x0000f101   Thumb Code     0  rom_zephyr_symdefs.txt ABSOLUTE
    llc_init_tx_command                      0x0000f135   Thumb Code     0  rom_zephyr_symdefs.txt ABSOLUTE
    llc_init_trim_upload                     0x0000f185   Thumb Code     0  rom_zephyr_symdefs.txt ABSOLUTE
    llcc_compose_trim                        0x0000f255   Thumb Code     0  rom_zephyr_symdefs.txt ABSOLUTE
    llcc_upload_ic_trim                      0x0000f31d   Thumb Code     0  rom_zephyr_symdefs.txt ABSOLUTE
    llcc_upload_board_trim                   0x0000f345   Thumb Code     0  rom_zephyr_symdefs.txt ABSOLUTE
    llcc_upload_tx_trim                      0x0000f3a9   Thumb Code     0  rom_zephyr_symdefs.txt ABSOLUTE
    hci_vs_read_done                         0x0000f809   Thumb Code     0  rom_zephyr_symdefs.txt ABSOLUTE
    dma_done_callback                        0x0000f8ab   Thumb Code     0  rom_zephyr_symdefs.txt ABSOLUTE
    spi_acts_release                         0x0000f8b7   Thumb Code     0  rom_zephyr_symdefs.txt ABSOLUTE
    spi_acts_transfer_ongoing                0x0000f8cd   Thumb Code     0  rom_zephyr_symdefs.txt ABSOLUTE
    spi_acts_wait_tx_complete                0x0000f8f5   Thumb Code     0  rom_zephyr_symdefs.txt ABSOLUTE
    spi_acts_set_clk                         0x0000f911   Thumb Code     0  rom_zephyr_symdefs.txt ABSOLUTE
    spi_acts_start_dma                       0x0000f939   Thumb Code     0  rom_zephyr_symdefs.txt ABSOLUTE
    spi_acts_stop_dma                        0x0000fa01   Thumb Code     0  rom_zephyr_symdefs.txt ABSOLUTE
    spi_acts_read_data_by_dma                0x0000fa11   Thumb Code     0  rom_zephyr_symdefs.txt ABSOLUTE
    spi_acts_write_data_by_dma               0x0000fa7d   Thumb Code     0  rom_zephyr_symdefs.txt ABSOLUTE
    spi_acts_write_read_data_by_dma          0x0000fae9   Thumb Code     0  rom_zephyr_symdefs.txt ABSOLUTE
    spi_acts_write_data_by_cpu               0x0000fb7d   Thumb Code     0  rom_zephyr_symdefs.txt ABSOLUTE
    spi_acts_read_data_by_cpu                0x0000fbad   Thumb Code     0  rom_zephyr_symdefs.txt ABSOLUTE
    spi_acts_write_read_data_by_cpu          0x0000fbdd   Thumb Code     0  rom_zephyr_symdefs.txt ABSOLUTE
    spi_acts_write_data                      0x0000fc59   Thumb Code     0  rom_zephyr_symdefs.txt ABSOLUTE
    spi_acts_read_data                       0x0000fc77   Thumb Code     0  rom_zephyr_symdefs.txt ABSOLUTE
    spi_acts_write_read_data                 0x0000fc95   Thumb Code     0  rom_zephyr_symdefs.txt ABSOLUTE
    spi_acts_transfer_data                   0x0000fcc1   Thumb Code     0  rom_zephyr_symdefs.txt ABSOLUTE
    spi_acts_configure                       0x0000fe27   Thumb Code     0  rom_zephyr_symdefs.txt ABSOLUTE
    transceive                               0x0000fec7   Thumb Code     0  rom_zephyr_symdefs.txt ABSOLUTE
    spi_acts_transceive                      0x0000fff7   Thumb Code     0  rom_zephyr_symdefs.txt ABSOLUTE
    spi_acts_init                            0x0001000d   Thumb Code     0  rom_zephyr_symdefs.txt ABSOLUTE
    xspi_mem_set_cs                          0x0001005d   Thumb Code     0  rom_zephyr_symdefs.txt ABSOLUTE
    xspi_mem_prepare_hook_install            0x0001007d   Thumb Code     0  rom_zephyr_symdefs.txt ABSOLUTE
    xspi_mem_prepare_op                      0x00010089   Thumb Code     0  rom_zephyr_symdefs.txt ABSOLUTE
    xspi_mem_complete_op                     0x00010125   Thumb Code     0  rom_zephyr_symdefs.txt ABSOLUTE
    xspi_read_data_by_dma                    0x0001013d   Thumb Code     0  rom_zephyr_symdefs.txt ABSOLUTE
    _xspi_mem_read_data                      0x000101b5   Thumb Code     0  rom_zephyr_symdefs.txt ABSOLUTE
    xspi_write_data_by_dma                   0x00010201   Thumb Code     0  rom_zephyr_symdefs.txt ABSOLUTE
    _xspi_mem_write_data                     0x00010275   Thumb Code     0  rom_zephyr_symdefs.txt ABSOLUTE
    _xspi_mem_write_byte                     0x000102dd   Thumb Code     0  rom_zephyr_symdefs.txt ABSOLUTE
    xspi_mem_continuous_read_reset           0x000102ef   Thumb Code     0  rom_zephyr_symdefs.txt ABSOLUTE
    xspi_mem_transfer                        0x00010315   Thumb Code     0  rom_zephyr_symdefs.txt ABSOLUTE
    xspi_mem_write_cmd_addr                  0x00010469   Thumb Code     0  rom_zephyr_symdefs.txt ABSOLUTE
    xspi_mem_write_cmd                       0x0001047d   Thumb Code     0  rom_zephyr_symdefs.txt ABSOLUTE
    xspi_mem_set_write_protect               0x00010489   Thumb Code     0  rom_zephyr_symdefs.txt ABSOLUTE
    xspi_mem_erase_block                     0x0001049b   Thumb Code     0  rom_zephyr_symdefs.txt ABSOLUTE
    xspi_mem_read_chipid                     0x000104b7   Thumb Code     0  rom_zephyr_symdefs.txt ABSOLUTE
    xspi_mem_read_status                     0x000104d1   Thumb Code     0  rom_zephyr_symdefs.txt ABSOLUTE
    xspi_mem_read_page                       0x000104ef   Thumb Code     0  rom_zephyr_symdefs.txt ABSOLUTE
    xspi_mem_enter_low_power                 0x00010527   Thumb Code     0  rom_zephyr_symdefs.txt ABSOLUTE
    xspi_mem_exit_low_power                  0x00010531   Thumb Code     0  rom_zephyr_symdefs.txt ABSOLUTE
    xspi_nor_write_protection                0x0001053b   Thumb Code     0  rom_zephyr_symdefs.txt ABSOLUTE
    system_nor_prepare_hook                  0x0001053f   Thumb Code     0  rom_zephyr_symdefs.txt ABSOLUTE
    xspi_nor_read_chipid                     0x00010547   Thumb Code     0  rom_zephyr_symdefs.txt ABSOLUTE
    xspi_nor_wait_ready                      0x00010555   Thumb Code     0  rom_zephyr_symdefs.txt ABSOLUTE
    xspi_nor_write_data                      0x00010569   Thumb Code     0  rom_zephyr_symdefs.txt ABSOLUTE
    xspi_nor_write_status                    0x000105ad   Thumb Code     0  rom_zephyr_symdefs.txt ABSOLUTE
    xspi_nor_erase_internal                  0x000105bd   Thumb Code     0  rom_zephyr_symdefs.txt ABSOLUTE
    xspi_nor_erase                           0x000105d1   Thumb Code     0  rom_zephyr_symdefs.txt ABSOLUTE
    xspi_nor_write_internal                  0x00010621   Thumb Code     0  rom_zephyr_symdefs.txt ABSOLUTE
    xspi_nor_write                           0x00010635   Thumb Code     0  rom_zephyr_symdefs.txt ABSOLUTE
    xspi_nor_read_internal                   0x00010683   Thumb Code     0  rom_zephyr_symdefs.txt ABSOLUTE
    xspi_nor_read                            0x00010693   Thumb Code     0  rom_zephyr_symdefs.txt ABSOLUTE
    xspi_nor_wp_set_internal                 0x000106a3   Thumb Code     0  rom_zephyr_symdefs.txt ABSOLUTE
    xspi_nor_enable_status_qe                0x000106a5   Thumb Code     0  rom_zephyr_symdefs.txt ABSOLUTE
    acts_xspi_nor_suspend                    0x00010723   Thumb Code     0  rom_zephyr_symdefs.txt ABSOLUTE
    acts_xspi_nor_resume                     0x0001072f   Thumb Code     0  rom_zephyr_symdefs.txt ABSOLUTE
    acts_xspi_nor_init_internal              0x0001073d   Thumb Code     0  rom_zephyr_symdefs.txt ABSOLUTE
    acts_xspi_nor_init                       0x0001079d   Thumb Code     0  rom_zephyr_symdefs.txt ABSOLUTE
    gpio_acts_config                         0x00010821   Thumb Code     0  rom_zephyr_symdefs.txt ABSOLUTE
    gpio_acts_write                          0x000108cd   Thumb Code     0  rom_zephyr_symdefs.txt ABSOLUTE
    gpio_acts_read                           0x00010909   Thumb Code     0  rom_zephyr_symdefs.txt ABSOLUTE
    gpio_acts_manage_callback                0x0001093b   Thumb Code     0  rom_zephyr_symdefs.txt ABSOLUTE
    gpio_acts_enable_callback                0x00010985   Thumb Code     0  rom_zephyr_symdefs.txt ABSOLUTE
    gpio_acts_disable_callback               0x000109dd   Thumb Code     0  rom_zephyr_symdefs.txt ABSOLUTE
    gpio_acts_isr                            0x00010a1d   Thumb Code     0  rom_zephyr_symdefs.txt ABSOLUTE
    gpio_acts_init                           0x00010a55   Thumb Code     0  rom_zephyr_symdefs.txt ABSOLUTE
    i2c_acts_dump_regs                       0x00010a63   Thumb Code     0  rom_zephyr_symdefs.txt ABSOLUTE
    i2c_acts_set_clk                         0x00010a65   Thumb Code     0  rom_zephyr_symdefs.txt ABSOLUTE
    i2c_acts_configure                       0x00010a85   Thumb Code     0  rom_zephyr_symdefs.txt ABSOLUTE
    i2c_acts_reset                           0x00010abd   Thumb Code     0  rom_zephyr_symdefs.txt ABSOLUTE
    i2c_acts_wait_complete                   0x00010ad1   Thumb Code     0  rom_zephyr_symdefs.txt ABSOLUTE
    i2c_acts_transfer                        0x00010add   Thumb Code     0  rom_zephyr_symdefs.txt ABSOLUTE
    i2c_acts_isr                             0x00010c11   Thumb Code     0  rom_zephyr_symdefs.txt ABSOLUTE
    i2c_acts_init                            0x00010ca1   Thumb Code     0  rom_zephyr_symdefs.txt ABSOLUTE
    i2c_acts_set_power_state                 0x00010cd5   Thumb Code     0  rom_zephyr_symdefs.txt ABSOLUTE
    i2c_acts_get_power_state                 0x00010cdb   Thumb Code     0  rom_zephyr_symdefs.txt ABSOLUTE
    i2c_suspend_device                       0x00010ce1   Thumb Code     0  rom_zephyr_symdefs.txt ABSOLUTE
    i2c_resume_device_from_suspend           0x00010cfb   Thumb Code     0  rom_zephyr_symdefs.txt ABSOLUTE
    i2c_device_ctrl                          0x00010d05   Thumb Code     0  rom_zephyr_symdefs.txt ABSOLUTE
    pwm_acts_get_cycles_per_sec              0x00010d35   Thumb Code     0  rom_zephyr_symdefs.txt ABSOLUTE
    pwm_acts_pin_set                         0x00010d61   Thumb Code     0  rom_zephyr_symdefs.txt ABSOLUTE
    pwm_acts_clk_enable                      0x00010d9b   Thumb Code     0  rom_zephyr_symdefs.txt ABSOLUTE
    pwm_acts_init                            0x00010db3   Thumb Code     0  rom_zephyr_symdefs.txt ABSOLUTE
    adc_acts_read                            0x00010dd9   Thumb Code     0  rom_zephyr_symdefs.txt ABSOLUTE
    adc_acts_enable                          0x00010e49   Thumb Code     0  rom_zephyr_symdefs.txt ABSOLUTE
    adc_acts_disable                         0x00010e63   Thumb Code     0  rom_zephyr_symdefs.txt ABSOLUTE
    adc_acts_init                            0x00010e7d   Thumb Code     0  rom_zephyr_symdefs.txt ABSOLUTE
    wdg_acts_enable                          0x00010e81   Thumb Code     0  rom_zephyr_symdefs.txt ABSOLUTE
    wdg_acts_disable                         0x00010e91   Thumb Code     0  rom_zephyr_symdefs.txt ABSOLUTE
    wdg_acts_get_config                      0x00010ea1   Thumb Code     0  rom_zephyr_symdefs.txt ABSOLUTE
    wdg_acts_reload                          0x00010ebd   Thumb Code     0  rom_zephyr_symdefs.txt ABSOLUTE
    wdg_acts_set_config                      0x00010ecd   Thumb Code     0  rom_zephyr_symdefs.txt ABSOLUTE
    wdg_acts_init                            0x00010f09   Thumb Code     0  rom_zephyr_symdefs.txt ABSOLUTE
    rtc_month_days                           0x00010f15   Thumb Code     0  rom_zephyr_symdefs.txt ABSOLUTE
    rtc_time_to_tm                           0x00010f4d   Thumb Code     0  rom_zephyr_symdefs.txt ABSOLUTE
    rtc_valid_tm                             0x00011031   Thumb Code     0  rom_zephyr_symdefs.txt ABSOLUTE
    mktime                                   0x00011071   Thumb Code     0  rom_zephyr_symdefs.txt ABSOLUTE
    rtc_tm_to_time                           0x000110d5   Thumb Code     0  rom_zephyr_symdefs.txt ABSOLUTE
    print_rtc_time                           0x00011101   Thumb Code     0  rom_zephyr_symdefs.txt ABSOLUTE
    rtc_acts_enable                          0x0001112d   Thumb Code     0  rom_zephyr_symdefs.txt ABSOLUTE
    rtc_acts_disable                         0x0001113b   Thumb Code     0  rom_zephyr_symdefs.txt ABSOLUTE
    rtc_acts_get_pending_int                 0x00011149   Thumb Code     0  rom_zephyr_symdefs.txt ABSOLUTE
    rtc_acts_get_datetime                    0x0001115d   Thumb Code     0  rom_zephyr_symdefs.txt ABSOLUTE
    rtc_acts_read                            0x000111ad   Thumb Code     0  rom_zephyr_symdefs.txt ABSOLUTE
    rtc_acts_set_datetime                    0x000111f5   Thumb Code     0  rom_zephyr_symdefs.txt ABSOLUTE
    rtc_acts_set_alarm_interrupt             0x00011281   Thumb Code     0  rom_zephyr_symdefs.txt ABSOLUTE
    rtc_acts_set_alarm_time                  0x00011295   Thumb Code     0  rom_zephyr_symdefs.txt ABSOLUTE
    rtc_acts_set_alarm                       0x00011319   Thumb Code     0  rom_zephyr_symdefs.txt ABSOLUTE
    rtc_acts_set_config                      0x00011335   Thumb Code     0  rom_zephyr_symdefs.txt ABSOLUTE
    rtc_acts_isr                             0x00011387   Thumb Code     0  rom_zephyr_symdefs.txt ABSOLUTE
    rtc_acts_check_datetime                  0x000113b1   Thumb Code     0  rom_zephyr_symdefs.txt ABSOLUTE
    rtc_acts_init                            0x0001140d   Thumb Code     0  rom_zephyr_symdefs.txt ABSOLUTE
    dma_acts_config                          0x0001142d   Thumb Code     0  rom_zephyr_symdefs.txt ABSOLUTE
    dma_acts_start                           0x0001151d   Thumb Code     0  rom_zephyr_symdefs.txt ABSOLUTE
    dma_acts_stop                            0x0001157b   Thumb Code     0  rom_zephyr_symdefs.txt ABSOLUTE
    dma_acts_irq                             0x000115d7   Thumb Code     0  rom_zephyr_symdefs.txt ABSOLUTE
    dma_acts_init                            0x0001163d   Thumb Code     0  rom_zephyr_symdefs.txt ABSOLUTE
    mxkeypad_acts_register_notify            0x00011671   Thumb Code     0  rom_zephyr_symdefs.txt ABSOLUTE
    mxkeypad_acts_unregister_notify          0x00011677   Thumb Code     0  rom_zephyr_symdefs.txt ABSOLUTE
    mxkeypad_acts_enable                     0x00011681   Thumb Code     0  rom_zephyr_symdefs.txt ABSOLUTE
    mxkeypad_acts_disable                    0x000116f9   Thumb Code     0  rom_zephyr_symdefs.txt ABSOLUTE
    mxkeypad_acts_get_keycode                0x00011717   Thumb Code     0  rom_zephyr_symdefs.txt ABSOLUTE
    mxkeypad_acts_report_key                 0x0001174f   Thumb Code     0  rom_zephyr_symdefs.txt ABSOLUTE
    mxkeypad_acts_scan_key                   0x00011769   Thumb Code     0  rom_zephyr_symdefs.txt ABSOLUTE
    mxkeypad_acts_poll                       0x000117ff   Thumb Code     0  rom_zephyr_symdefs.txt ABSOLUTE
    mxkeypad_acts_isr                        0x00011811   Thumb Code     0  rom_zephyr_symdefs.txt ABSOLUTE
    mxkeypad_acts_wakeup_isr                 0x00011831   Thumb Code     0  rom_zephyr_symdefs.txt ABSOLUTE
    mxkeypad_acts_init                       0x0001183d   Thumb Code     0  rom_zephyr_symdefs.txt ABSOLUTE
    adckey_acts_register_notify              0x00011861   Thumb Code     0  rom_zephyr_symdefs.txt ABSOLUTE
    adckey_acts_unregister_notify            0x00011867   Thumb Code     0  rom_zephyr_symdefs.txt ABSOLUTE
    adckey_acts_enable                       0x0001186f   Thumb Code     0  rom_zephyr_symdefs.txt ABSOLUTE
    adckey_acts_disable                      0x0001188b   Thumb Code     0  rom_zephyr_symdefs.txt ABSOLUTE
    adckey_acts_get_keycode                  0x000118a3   Thumb Code     0  rom_zephyr_symdefs.txt ABSOLUTE
    adckey_acts_report_key                   0x000118c3   Thumb Code     0  rom_zephyr_symdefs.txt ABSOLUTE
    adckey_acts_poll                         0x000118dd   Thumb Code     0  rom_zephyr_symdefs.txt ABSOLUTE
    adckey_acts_init                         0x0001195d   Thumb Code     0  rom_zephyr_symdefs.txt ABSOLUTE
    calc_hash                                0x000119b5   Thumb Code     0  rom_zephyr_symdefs.txt ABSOLUTE
    crc32                                    0x000119d5   Thumb Code     0  rom_zephyr_symdefs.txt ABSOLUTE
    caculate_region_crc                      0x00011a09   Thumb Code     0  rom_zephyr_symdefs.txt ABSOLUTE
    region_is_empy                           0x00011a65   Thumb Code     0  rom_zephyr_symdefs.txt ABSOLUTE
    is_valid_region_header                   0x00011abd   Thumb Code     0  rom_zephyr_symdefs.txt ABSOLUTE
    get_new_write_offs                       0x00011b05   Thumb Code     0  rom_zephyr_symdefs.txt ABSOLUTE
    get_new_write_region                     0x00011b29   Thumb Code     0  rom_zephyr_symdefs.txt ABSOLUTE
    find_config_by_name                      0x00011bcd   Thumb Code     0  rom_zephyr_symdefs.txt ABSOLUTE
    copy_region_data                         0x00011c71   Thumb Code     0  rom_zephyr_symdefs.txt ABSOLUTE
    write_item_data                          0x00011cc9   Thumb Code     0  rom_zephyr_symdefs.txt ABSOLUTE
    write_item                               0x00011d01   Thumb Code     0  rom_zephyr_symdefs.txt ABSOLUTE
    nvram_config_set_internal                0x00011da5   Thumb Code     0  rom_zephyr_symdefs.txt ABSOLUTE
    nvram_config_get_internal                0x00011ed9   Thumb Code     0  rom_zephyr_symdefs.txt ABSOLUTE
    nvram_config_set_factory                 0x00011f29   Thumb Code     0  rom_zephyr_symdefs.txt ABSOLUTE
    nvram_config_set                         0x00011f3d   Thumb Code     0  rom_zephyr_symdefs.txt ABSOLUTE
    nvram_config_get_factory                 0x00011f71   Thumb Code     0  rom_zephyr_symdefs.txt ABSOLUTE
    nvram_config_get                         0x00011f85   Thumb Code     0  rom_zephyr_symdefs.txt ABSOLUTE
    dump_data                                0x00011fcd   Thumb Code     0  rom_zephyr_symdefs.txt ABSOLUTE
    dump_region                              0x00011fe1   Thumb Code     0  rom_zephyr_symdefs.txt ABSOLUTE
    nvram_config_dump                        0x000120d1   Thumb Code     0  rom_zephyr_symdefs.txt ABSOLUTE
    scan_region                              0x000120ed   Thumb Code     0  rom_zephyr_symdefs.txt ABSOLUTE
    nvram_config_clear_all                   0x0001218d   Thumb Code     0  rom_zephyr_symdefs.txt ABSOLUTE
    nvram_config_init                        0x000121e9   Thumb Code     0  rom_zephyr_symdefs.txt ABSOLUTE
    nvram_storage_write                      0x00012271   Thumb Code     0  rom_zephyr_symdefs.txt ABSOLUTE
    nvram_storage_read                       0x0001227b   Thumb Code     0  rom_zephyr_symdefs.txt ABSOLUTE
    nvram_storage_erase                      0x00012285   Thumb Code     0  rom_zephyr_symdefs.txt ABSOLUTE
    nvram_storage_init                       0x00012291   Thumb Code     0  rom_zephyr_symdefs.txt ABSOLUTE
    audio_in_dma_isr                         0x000122d9   Thumb Code     0  rom_zephyr_symdefs.txt ABSOLUTE
    audio_in_pcmbuf_transfer_config          0x000122f9   Thumb Code     0  rom_zephyr_symdefs.txt ABSOLUTE
    audio_in_pcmbuf_config                   0x00012361   Thumb Code     0  rom_zephyr_symdefs.txt ABSOLUTE
    start_adc_dma                            0x00012449   Thumb Code     0  rom_zephyr_symdefs.txt ABSOLUTE
    stop_adc_dma                             0x00012491   Thumb Code     0  rom_zephyr_symdefs.txt ABSOLUTE
    audio_in_init_clk                        0x000124a9   Thumb Code     0  rom_zephyr_symdefs.txt ABSOLUTE
    audio_in_enable_ain                      0x000124dd   Thumb Code     0  rom_zephyr_symdefs.txt ABSOLUTE
    find_matched_rate                        0x000124f9   Thumb Code     0  rom_zephyr_symdefs.txt ABSOLUTE
    audio_in_set_rate                        0x00012515   Thumb Code     0  rom_zephyr_symdefs.txt ABSOLUTE
    audio_in_set_gain                        0x000125a1   Thumb Code     0  rom_zephyr_symdefs.txt ABSOLUTE
    audio_in_enable                          0x000125b5   Thumb Code     0  rom_zephyr_symdefs.txt ABSOLUTE
    audio_in_disable                         0x00012699   Thumb Code     0  rom_zephyr_symdefs.txt ABSOLUTE
    audio_in_init                            0x00012701   Thumb Code     0  rom_zephyr_symdefs.txt ABSOLUTE
    crc16                                    0x00012725   Thumb Code     0  rom_zephyr_symdefs.txt ABSOLUTE
    __printk_hook_install                    0x00012861   Thumb Code     0  rom_zephyr_symdefs.txt ABSOLUTE
    __printk_get_hook                        0x0001286d   Thumb Code     0  rom_zephyr_symdefs.txt ABSOLUTE
    _vprintk                                 0x00012879   Thumb Code     0  rom_zephyr_symdefs.txt ABSOLUTE
    vprintk                                  0x00012ab9   Thumb Code     0  rom_zephyr_symdefs.txt ABSOLUTE
    printk                                   0x00012ad5   Thumb Code     0  rom_zephyr_symdefs.txt ABSOLUTE
    snprintk                                 0x00012aed   Thumb Code     0  rom_zephyr_symdefs.txt ABSOLUTE
    vsnprintk                                0x00012b25   Thumb Code     0  rom_zephyr_symdefs.txt ABSOLUTE
    print_buffer                             0x00012b4d   Thumb Code     0  rom_zephyr_symdefs.txt ABSOLUTE
    _ConfigAbsSyms                           0x00012c59   Thumb Code     0  rom_zephyr_symdefs.txt ABSOLUTE
    _copy                                    0x00012c5b   Thumb Code     0  rom_zephyr_symdefs.txt ABSOLUTE
    _set                                     0x00012c75   Thumb Code     0  rom_zephyr_symdefs.txt ABSOLUTE
    _double_byte                             0x00012c7d   Thumb Code     0  rom_zephyr_symdefs.txt ABSOLUTE
    _compare                                 0x00012c8b   Thumb Code     0  rom_zephyr_symdefs.txt ABSOLUTE
    tc_aes128_set_decrypt_key                0x00013101   Thumb Code     0  rom_zephyr_symdefs.txt ABSOLUTE
    tc_aes_decrypt                           0x00013109   Thumb Code     0  rom_zephyr_symdefs.txt ABSOLUTE
    tc_aes128_set_encrypt_key                0x0001321d   Thumb Code     0  rom_zephyr_symdefs.txt ABSOLUTE
    tc_aes_encrypt                           0x000132c1   Thumb Code     0  rom_zephyr_symdefs.txt ABSOLUTE
    gf_double                                0x0001338d   Thumb Code     0  rom_zephyr_symdefs.txt ABSOLUTE
    tc_cmac_erase                            0x000133b1   Thumb Code     0  rom_zephyr_symdefs.txt ABSOLUTE
    tc_cmac_init                             0x000133c5   Thumb Code     0  rom_zephyr_symdefs.txt ABSOLUTE
    tc_cmac_setup                            0x000133f1   Thumb Code     0  rom_zephyr_symdefs.txt ABSOLUTE
    tc_cmac_update                           0x00013449   Thumb Code     0  rom_zephyr_symdefs.txt ABSOLUTE
    tc_cmac_final                            0x00013517   Thumb Code     0  rom_zephyr_symdefs.txt ABSOLUTE
    tc_sha256_init                           0x000137a9   Thumb Code     0  rom_zephyr_symdefs.txt ABSOLUTE
    tc_sha256_update                         0x000137fd   Thumb Code     0  rom_zephyr_symdefs.txt ABSOLUTE
    tc_sha256_final                          0x00013851   Thumb Code     0  rom_zephyr_symdefs.txt ABSOLUTE
    tc_hmac_set_key                          0x00013947   Thumb Code     0  rom_zephyr_symdefs.txt ABSOLUTE
    tc_hmac_init                             0x000139cb   Thumb Code     0  rom_zephyr_symdefs.txt ABSOLUTE
    tc_hmac_update                           0x000139e5   Thumb Code     0  rom_zephyr_symdefs.txt ABSOLUTE
    tc_hmac_final                            0x000139f5   Thumb Code     0  rom_zephyr_symdefs.txt ABSOLUTE
    tc_hmac_prng_init                        0x00013b0f   Thumb Code     0  rom_zephyr_symdefs.txt ABSOLUTE
    tc_hmac_prng_reseed                      0x00013b59   Thumb Code     0  rom_zephyr_symdefs.txt ABSOLUTE
    tc_hmac_prng_generate                    0x00013b95   Thumb Code     0  rom_zephyr_symdefs.txt ABSOLUTE
    bt_hex                                   0x00013c15   Thumb Code     0  rom_zephyr_symdefs.txt ABSOLUTE
    bt_addr_str                              0x00013c2d   Thumb Code     0  rom_zephyr_symdefs.txt ABSOLUTE
    bt_addr_le_str                           0x00013c79   Thumb Code     0  rom_zephyr_symdefs.txt ABSOLUTE
    bt_rpa_irk_matches                       0x00013d47   Thumb Code     0  rom_zephyr_symdefs.txt ABSOLUTE
    bt_rpa_create                            0x00013d6d   Thumb Code     0  rom_zephyr_symdefs.txt ABSOLUTE
    uuid_to_uuid128                          0x00013d99   Thumb Code     0  rom_zephyr_symdefs.txt ABSOLUTE
    uuid128_cmp                              0x00013df1   Thumb Code     0  rom_zephyr_symdefs.txt ABSOLUTE
    bt_uuid_cmp                              0x00013e17   Thumb Code     0  rom_zephyr_symdefs.txt ABSOLUTE
    bt_uuid_to_str                           0x00013e55   Thumb Code     0  rom_zephyr_symdefs.txt ABSOLUTE
    bt_uuid_str                              0x00013f09   Thumb Code     0  rom_zephyr_symdefs.txt ABSOLUTE
    enable_scan_with_identity                0x00013fc1   Thumb Code     0  rom_zephyr_symdefs.txt ABSOLUTE
    bt_set_conn_update_param                 0x00013fcd   Thumb Code     0  rom_zephyr_symdefs.txt ABSOLUTE
    bt_rpa_timeout_init                      0x00013fe1   Thumb Code     0  rom_zephyr_symdefs.txt ABSOLUTE
    bt_tx_thread_init                        0x00013fed   Thumb Code     0  rom_zephyr_symdefs.txt ABSOLUTE
    bt_rx_thread_init                        0x00014015   Thumb Code     0  rom_zephyr_symdefs.txt ABSOLUTE
    bt_hci_cmd_pool_init                     0x0001403d   Thumb Code     0  rom_zephyr_symdefs.txt ABSOLUTE
    bt_hci_rx_pool_init                      0x00014055   Thumb Code     0  rom_zephyr_symdefs.txt ABSOLUTE
    bt_enable_smp                            0x00014075   Thumb Code     0  rom_zephyr_symdefs.txt ABSOLUTE
    bt_hci_cmd_create                        0x00014081   Thumb Code     0  rom_zephyr_symdefs.txt ABSOLUTE
    bt_hci_cmd_send_sync                     0x00014105   Thumb Code     0  rom_zephyr_symdefs.txt ABSOLUTE
    find_id_addr                             0x000141bd   Thumb Code     0  rom_zephyr_symdefs.txt ABSOLUTE
    set_advertise_enable                     0x000141dd   Thumb Code     0  rom_zephyr_symdefs.txt ABSOLUTE
    set_random_address                       0x00014235   Thumb Code     0  rom_zephyr_symdefs.txt ABSOLUTE
    le_set_private_addr                      0x0001428d   Thumb Code     0  rom_zephyr_symdefs.txt ABSOLUTE
    rpa_timeout                              0x000142e5   Thumb Code     0  rom_zephyr_symdefs.txt ABSOLUTE
    set_le_scan_enable                       0x0001432d   Thumb Code     0  rom_zephyr_symdefs.txt ABSOLUTE
    hci_acl                                  0x00014399   Thumb Code     0  rom_zephyr_symdefs.txt ABSOLUTE
    hci_num_completed_packets                0x00014495   Thumb Code     0  rom_zephyr_symdefs.txt ABSOLUTE
    hci_le_create_conn                       0x000145ad   Thumb Code     0  rom_zephyr_symdefs.txt ABSOLUTE
    update_conn_param                        0x00014631   Thumb Code     0  rom_zephyr_symdefs.txt ABSOLUTE
    bt_set_delay_time_read_remote_features   0x00014679   Thumb Code     0  rom_zephyr_symdefs.txt ABSOLUTE
    le_data_len_change                       0x00014685   Thumb Code     0  rom_zephyr_symdefs.txt ABSOLUTE
    bt_le_conn_params_valid                  0x00014721   Thumb Code     0  rom_zephyr_symdefs.txt ABSOLUTE
    le_conn_update_complete                  0x00014769   Thumb Code     0  rom_zephyr_symdefs.txt ABSOLUTE
    addr_res_enable                          0x000147ed   Thumb Code     0  rom_zephyr_symdefs.txt ABSOLUTE
    hci_id_add                               0x0001481d   Thumb Code     0  rom_zephyr_symdefs.txt ABSOLUTE
    keys_add_id                              0x00014885   Thumb Code     0  rom_zephyr_symdefs.txt ABSOLUTE
    bt_id_add                                0x00014891   Thumb Code     0  rom_zephyr_symdefs.txt ABSOLUTE
    bt_id_del                                0x000149f5   Thumb Code     0  rom_zephyr_symdefs.txt ABSOLUTE
    update_pending_id                        0x00014b65   Thumb Code     0  rom_zephyr_symdefs.txt ABSOLUTE
    update_sec_level                         0x00014b95   Thumb Code     0  rom_zephyr_symdefs.txt ABSOLUTE
    hci_encrypt_change                       0x00014c0d   Thumb Code     0  rom_zephyr_symdefs.txt ABSOLUTE
    hci_encrypt_key_refresh_complete         0x00014ca1   Thumb Code     0  rom_zephyr_symdefs.txt ABSOLUTE
    le_pkey_complete                         0x00014d29   Thumb Code     0  rom_zephyr_symdefs.txt ABSOLUTE
    le_dhkey_complete                        0x00014d7d   Thumb Code     0  rom_zephyr_symdefs.txt ABSOLUTE
    hci_reset_complete                       0x00014da1   Thumb Code     0  rom_zephyr_symdefs.txt ABSOLUTE
    hci_cmd_done                             0x00014dc5   Thumb Code     0  rom_zephyr_symdefs.txt ABSOLUTE
    hci_cmd_complete                         0x00014e61   Thumb Code     0  rom_zephyr_symdefs.txt ABSOLUTE
    hci_cmd_status                           0x00014ec9   Thumb Code     0  rom_zephyr_symdefs.txt ABSOLUTE
    bt_tx_poll_event_init                    0x00014f35   Thumb Code     0  rom_zephyr_symdefs.txt ABSOLUTE
    read_local_ver_complete                  0x00014f4d   Thumb Code     0  rom_zephyr_symdefs.txt ABSOLUTE
    read_bdaddr_complete                     0x00014f7d   Thumb Code     0  rom_zephyr_symdefs.txt ABSOLUTE
    hci_set_le_sup_feat                      0x00014f95   Thumb Code     0  rom_zephyr_symdefs.txt ABSOLUTE
    read_le_features_complete                0x00014fc1   Thumb Code     0  rom_zephyr_symdefs.txt ABSOLUTE
    read_buffer_size_complete                0x00014ff5   Thumb Code     0  rom_zephyr_symdefs.txt ABSOLUTE
    le_read_buffer_size_complete             0x00015031   Thumb Code     0  rom_zephyr_symdefs.txt ABSOLUTE
    read_supported_commands_complete         0x0001507d   Thumb Code     0  rom_zephyr_symdefs.txt ABSOLUTE
    read_local_features_complete             0x00015095   Thumb Code     0  rom_zephyr_symdefs.txt ABSOLUTE
    le_read_supp_states_complete             0x000150ad   Thumb Code     0  rom_zephyr_symdefs.txt ABSOLUTE
    common_init                              0x000150e5   Thumb Code     0  rom_zephyr_symdefs.txt ABSOLUTE
    le_set_event_mask                        0x000151bd   Thumb Code     0  rom_zephyr_symdefs.txt ABSOLUTE
    le_init                                  0x00015269   Thumb Code     0  rom_zephyr_symdefs.txt ABSOLUTE
    br_init                                  0x00015431   Thumb Code     0  rom_zephyr_symdefs.txt ABSOLUTE
    set_event_mask                           0x00015465   Thumb Code     0  rom_zephyr_symdefs.txt ABSOLUTE
    bt_addr_le_create_nrpa                   0x000154c9   Thumb Code     0  rom_zephyr_symdefs.txt ABSOLUTE
    bt_addr_le_create_static                 0x000154e7   Thumb Code     0  rom_zephyr_symdefs.txt ABSOLUTE
    set_static_addr                          0x00015509   Thumb Code     0  rom_zephyr_symdefs.txt ABSOLUTE
    ver_str                                  0x000155e1   Thumb Code     0  rom_zephyr_symdefs.txt ABSOLUTE
    show_dev_info                            0x00015615   Thumb Code     0  rom_zephyr_symdefs.txt ABSOLUTE
    hci_init                                 0x000156a1   Thumb Code     0  rom_zephyr_symdefs.txt ABSOLUTE
    bt_send                                  0x00015785   Thumb Code     0  rom_zephyr_symdefs.txt ABSOLUTE
    bt_hci_cmd_send                          0x000157c9   Thumb Code     0  rom_zephyr_symdefs.txt ABSOLUTE
    hci_le_read_remote_features              0x0001587d   Thumb Code     0  rom_zephyr_symdefs.txt ABSOLUTE
    hci_le_set_data_len                      0x000158b5   Thumb Code     0  rom_zephyr_symdefs.txt ABSOLUTE
    le_phy_update_complete                   0x00015931   Thumb Code     0  rom_zephyr_symdefs.txt ABSOLUTE
    hci_le_set_phy                           0x000159c1   Thumb Code     0  rom_zephyr_symdefs.txt ABSOLUTE
    conn_extra_update                        0x00015a05   Thumb Code     0  rom_zephyr_symdefs.txt ABSOLUTE
    le_remote_feat_complete                  0x00015a71   Thumb Code     0  rom_zephyr_symdefs.txt ABSOLUTE
    le_conn_param_neg_reply                  0x00015b2d   Thumb Code     0  rom_zephyr_symdefs.txt ABSOLUTE
    le_conn_param_req_reply                  0x00015b65   Thumb Code     0  rom_zephyr_symdefs.txt ABSOLUTE
    le_conn_param_req                        0x00015bc5   Thumb Code     0  rom_zephyr_symdefs.txt ABSOLUTE
    le_ltk_request                           0x00015c6d   Thumb Code     0  rom_zephyr_symdefs.txt ABSOLUTE
    start_le_scan                            0x00015eed   Thumb Code     0  rom_zephyr_symdefs.txt ABSOLUTE
    bt_le_scan_update                        0x00015fc5   Thumb Code     0  rom_zephyr_symdefs.txt ABSOLUTE
    hci_disconn_complete                     0x00016061   Thumb Code     0  rom_zephyr_symdefs.txt ABSOLUTE
    le_enh_conn_complete                     0x00016179   Thumb Code     0  rom_zephyr_symdefs.txt ABSOLUTE
    le_legacy_conn_complete                  0x000163cd   Thumb Code     0  rom_zephyr_symdefs.txt ABSOLUTE
    check_pending_conn                       0x000164a9   Thumb Code     0  rom_zephyr_symdefs.txt ABSOLUTE
    le_adv_report                            0x00016561   Thumb Code     0  rom_zephyr_symdefs.txt ABSOLUTE
    hci_le_meta_event                        0x00016615   Thumb Code     0  rom_zephyr_symdefs.txt ABSOLUTE
    hci_event                                0x00016725   Thumb Code     0  rom_zephyr_symdefs.txt ABSOLUTE
    send_cmd                                 0x00016821   Thumb Code     0  rom_zephyr_symdefs.txt ABSOLUTE
    process_events                           0x00016901   Thumb Code     0  rom_zephyr_symdefs.txt ABSOLUTE
    hci_tx_thread                            0x00016975   Thumb Code     0  rom_zephyr_symdefs.txt ABSOLUTE
    bt_recv                                  0x000169dd   Thumb Code     0  rom_zephyr_symdefs.txt ABSOLUTE
    bt_recv_prio                             0x00016a91   Thumb Code     0  rom_zephyr_symdefs.txt ABSOLUTE
    bt_hci_driver_register                   0x00016b91   Thumb Code     0  rom_zephyr_symdefs.txt ABSOLUTE
    irk_init                                 0x00016bbd   Thumb Code     0  rom_zephyr_symdefs.txt ABSOLUTE
    bt_enable_private                        0x00016c85   Thumb Code     0  rom_zephyr_symdefs.txt ABSOLUTE
    bt_init                                  0x00016ca1   Thumb Code     0  rom_zephyr_symdefs.txt ABSOLUTE
    init_work                                0x00016d19   Thumb Code     0  rom_zephyr_symdefs.txt ABSOLUTE
    bt_enable                                0x00016d31   Thumb Code     0  rom_zephyr_symdefs.txt ABSOLUTE
    bt_addr_le_is_bonded                     0x00016e91   Thumb Code     0  rom_zephyr_symdefs.txt ABSOLUTE
    valid_adv_param                          0x00016eb5   Thumb Code     0  rom_zephyr_symdefs.txt ABSOLUTE
    set_ad                                   0x00016eed   Thumb Code     0  rom_zephyr_symdefs.txt ABSOLUTE
    bt_le_adv_start                          0x00016f71   Thumb Code     0  rom_zephyr_symdefs.txt ABSOLUTE
    bt_le_direct_adv_start                   0x00017105   Thumb Code     0  rom_zephyr_symdefs.txt ABSOLUTE
    bt_le_adv_stop                           0x000171b1   Thumb Code     0  rom_zephyr_symdefs.txt ABSOLUTE
    valid_le_scan_param                      0x00017239   Thumb Code     0  rom_zephyr_symdefs.txt ABSOLUTE
    bt_le_scan_start                         0x0001726d   Thumb Code     0  rom_zephyr_symdefs.txt ABSOLUTE
    bt_le_scan_stop                          0x00017341   Thumb Code     0  rom_zephyr_symdefs.txt ABSOLUTE
    bt_buf_get_rx_ext                        0x000173d5   Thumb Code     0  rom_zephyr_symdefs.txt ABSOLUTE
    bt_buf_get_rx                            0x00017465   Thumb Code     0  rom_zephyr_symdefs.txt ABSOLUTE
    bt_buf_get_cmd_complete                  0x000174a1   Thumb Code     0  rom_zephyr_symdefs.txt ABSOLUTE
    bt_storage_register                      0x0001750d   Thumb Code     0  rom_zephyr_symdefs.txt ABSOLUTE
    bt_storage_clear_all                     0x00017519   Thumb Code     0  rom_zephyr_symdefs.txt ABSOLUTE
    bt_storage_clear                         0x00017545   Thumb Code     0  rom_zephyr_symdefs.txt ABSOLUTE
    bt_hci_get_cmd_opcode                    0x00017595   Thumb Code     0  rom_zephyr_symdefs.txt ABSOLUTE
    bt_pub_key_gen                           0x000175a1   Thumb Code     0  rom_zephyr_symdefs.txt ABSOLUTE
    bt_pub_key_get                           0x00017675   Thumb Code     0  rom_zephyr_symdefs.txt ABSOLUTE
    bt_dh_key_gen                            0x00017699   Thumb Code     0  rom_zephyr_symdefs.txt ABSOLUTE
    bt_le_oob_get_local                      0x00017711   Thumb Code     0  rom_zephyr_symdefs.txt ABSOLUTE
    hci_vs_do_dl_when_hci_reset_is_enabled   0x0001777d   Thumb Code     0  rom_zephyr_symdefs.txt ABSOLUTE
    hci_vs_cfg_do_dl_when_hci_reset          0x00017789   Thumb Code     0  rom_zephyr_symdefs.txt ABSOLUTE
    hci_vs_cfg_pwr_mgmt                      0x00017799   Thumb Code     0  rom_zephyr_symdefs.txt ABSOLUTE
    hci_vs_cfg_bd_addr                       0x000177ad   Thumb Code     0  rom_zephyr_symdefs.txt ABSOLUTE
    hci_vs_cfg_acl_bufs                      0x000177c9   Thumb Code     0  rom_zephyr_symdefs.txt ABSOLUTE
    hci_vs_cfg_version                       0x000177e1   Thumb Code     0  rom_zephyr_symdefs.txt ABSOLUTE
    hci_vs_cfg_dev_filt                      0x000177f9   Thumb Code     0  rom_zephyr_symdefs.txt ABSOLUTE
    hci_vs_cfg_def_tx_pwr_lvl                0x00017811   Thumb Code     0  rom_zephyr_symdefs.txt ABSOLUTE
    hci_vs_cfg_ce_jitter                     0x00017829   Thumb Code     0  rom_zephyr_symdefs.txt ABSOLUTE
    hci_vs_cfg_max_conn                      0x00017841   Thumb Code     0  rom_zephyr_symdefs.txt ABSOLUTE
    hci_vs_cfg_dtm_rx_sync                   0x00017859   Thumb Code     0  rom_zephyr_symdefs.txt ABSOLUTE
    hci_vs_cfg_bufs                          0x0001786d   Thumb Code     0  rom_zephyr_symdefs.txt ABSOLUTE
    hci_vs_cfg_max_scan_period               0x0001789d   Thumb Code     0  rom_zephyr_symdefs.txt ABSOLUTE
    hci_vs_cfg_max_adv_reports               0x000178b1   Thumb Code     0  rom_zephyr_symdefs.txt ABSOLUTE
    hci_vs_set_bd_addr_cmd                   0x000178c9   Thumb Code     0  rom_zephyr_symdefs.txt ABSOLUTE
    hci_vs_extension_set_init                0x00017901   Thumb Code     0  rom_zephyr_symdefs.txt ABSOLUTE
    hci_vs_set_acl_bufs_cmd                  0x0001792d   Thumb Code     0  rom_zephyr_symdefs.txt ABSOLUTE
    hci_vs_set_version_cmd                   0x00017969   Thumb Code     0  rom_zephyr_symdefs.txt ABSOLUTE
    hci_vs_set_dev_filt_cmd                  0x000179a9   Thumb Code     0  rom_zephyr_symdefs.txt ABSOLUTE
    hci_vs_set_def_tx_pwr_lvl_cmd            0x000179dd   Thumb Code     0  rom_zephyr_symdefs.txt ABSOLUTE
    hci_vs_set_ce_jitter_cmd                 0x00017a0d   Thumb Code     0  rom_zephyr_symdefs.txt ABSOLUTE
    hci_vs_set_max_conn_cmd                  0x00017a3d   Thumb Code     0  rom_zephyr_symdefs.txt ABSOLUTE
    hci_vs_set_dtm_rx_sync_cmd               0x00017a6d   Thumb Code     0  rom_zephyr_symdefs.txt ABSOLUTE
    hci_vs_set_bufs_cmd                      0x00017aa1   Thumb Code     0  rom_zephyr_symdefs.txt ABSOLUTE
    hci_vs_set_max_scan_period_cmd           0x00017add   Thumb Code     0  rom_zephyr_symdefs.txt ABSOLUTE
    hci_vs_set_max_adv_reports_cmd           0x00017b11   Thumb Code     0  rom_zephyr_symdefs.txt ABSOLUTE
    hci_vs_configuration_set_init            0x00017b41   Thumb Code     0  rom_zephyr_symdefs.txt ABSOLUTE
    hci_vs_test_set_op_flags_cmd             0x00017c35   Thumb Code     0  rom_zephyr_symdefs.txt ABSOLUTE
    hci_vs_test_set_pwr_mgmt_cmd             0x00017c75   Thumb Code     0  rom_zephyr_symdefs.txt ABSOLUTE
    hci_vs_test_set_init                     0x00017ca5   Thumb Code     0  rom_zephyr_symdefs.txt ABSOLUTE
    bt_acl_tx_pool_init                      0x00017ce5   Thumb Code     0  rom_zephyr_symdefs.txt ABSOLUTE
    bt_conn_struct_init                      0x00017cfd   Thumb Code     0  rom_zephyr_symdefs.txt ABSOLUTE
    bt_conn_tx_init                          0x00017d21   Thumb Code     0  rom_zephyr_symdefs.txt ABSOLUTE
    bt_conn_get_pkts                         0x00017d41   Thumb Code     0  rom_zephyr_symdefs.txt ABSOLUTE
    notify_connected                         0x00017d49   Thumb Code     0  rom_zephyr_symdefs.txt ABSOLUTE
    notify_disconnected                      0x00017d6d   Thumb Code     0  rom_zephyr_symdefs.txt ABSOLUTE
    notify_le_param_updated                  0x00017d91   Thumb Code     0  rom_zephyr_symdefs.txt ABSOLUTE
    le_param_req                             0x00017dc5   Thumb Code     0  rom_zephyr_symdefs.txt ABSOLUTE
    conn_new                                 0x00017e09   Thumb Code     0  rom_zephyr_symdefs.txt ABSOLUTE
    bt_conn_identity_resolved                0x00017e5d   Thumb Code     0  rom_zephyr_symdefs.txt ABSOLUTE
    bt_conn_le_start_encryption              0x00017e91   Thumb Code     0  rom_zephyr_symdefs.txt ABSOLUTE
    bt_conn_enc_key_size                     0x00017f15   Thumb Code     0  rom_zephyr_symdefs.txt ABSOLUTE
    bt_conn_security_changed                 0x00017f35   Thumb Code     0  rom_zephyr_symdefs.txt ABSOLUTE
    start_security                           0x00017f59   Thumb Code     0  rom_zephyr_symdefs.txt ABSOLUTE
    bt_conn_security                         0x00018011   Thumb Code     0  rom_zephyr_symdefs.txt ABSOLUTE
    bt_conn_cb_register                      0x00018075   Thumb Code     0  rom_zephyr_symdefs.txt ABSOLUTE
    bt_conn_reset_rx_state                   0x00018085   Thumb Code     0  rom_zephyr_symdefs.txt ABSOLUTE
    bt_conn_recv                             0x0001809d   Thumb Code     0  rom_zephyr_symdefs.txt ABSOLUTE
    bt_conn_send_cb                          0x00018219   Thumb Code     0  rom_zephyr_symdefs.txt ABSOLUTE
    tx_free                                  0x000182ad   Thumb Code     0  rom_zephyr_symdefs.txt ABSOLUTE
    bt_conn_notify_tx                        0x000182c9   Thumb Code     0  rom_zephyr_symdefs.txt ABSOLUTE
    notify_tx                                0x000182f1   Thumb Code     0  rom_zephyr_symdefs.txt ABSOLUTE
    add_pending_tx                           0x00018331   Thumb Code     0  rom_zephyr_symdefs.txt ABSOLUTE
    remove_pending_tx                        0x0001836d   Thumb Code     0  rom_zephyr_symdefs.txt ABSOLUTE
    send_frag                                0x000183b5   Thumb Code     0  rom_zephyr_symdefs.txt ABSOLUTE
    conn_cleanup                             0x00018475   Thumb Code     0  rom_zephyr_symdefs.txt ABSOLUTE
    bt_conn_prepare_events                   0x000184a5   Thumb Code     0  rom_zephyr_symdefs.txt ABSOLUTE
    bt_conn_add_le                           0x00018545   Thumb Code     0  rom_zephyr_symdefs.txt ABSOLUTE
    process_unack_tx                         0x000185a9   Thumb Code     0  rom_zephyr_symdefs.txt ABSOLUTE
    bt_conn_set_state                        0x000185e5   Thumb Code     0  rom_zephyr_symdefs.txt ABSOLUTE
    bt_conn_lookup_handle                    0x00018779   Thumb Code     0  rom_zephyr_symdefs.txt ABSOLUTE
    bt_conn_addr_le_cmp                      0x000187c9   Thumb Code     0  rom_zephyr_symdefs.txt ABSOLUTE
    bt_conn_lookup_addr_le                   0x000187f9   Thumb Code     0  rom_zephyr_symdefs.txt ABSOLUTE
    bt_conn_lookup_state_le                  0x00018851   Thumb Code     0  rom_zephyr_symdefs.txt ABSOLUTE
    bt_conn_ref                              0x000188b5   Thumb Code     0  rom_zephyr_symdefs.txt ABSOLUTE
    bt_conn_unref                            0x000188c3   Thumb Code     0  rom_zephyr_symdefs.txt ABSOLUTE
    bt_conn_get_dst                          0x000188cd   Thumb Code     0  rom_zephyr_symdefs.txt ABSOLUTE
    bt_conn_get_info                         0x000188d1   Thumb Code     0  rom_zephyr_symdefs.txt ABSOLUTE
    bt_hci_disconnect                        0x00018915   Thumb Code     0  rom_zephyr_symdefs.txt ABSOLUTE
    bt_conn_set_param_le                     0x0001895d   Thumb Code     0  rom_zephyr_symdefs.txt ABSOLUTE
    bt_conn_create_le                        0x00018971   Thumb Code     0  rom_zephyr_symdefs.txt ABSOLUTE
    bt_le_set_auto_conn                      0x00018a35   Thumb Code     0  rom_zephyr_symdefs.txt ABSOLUTE
    bt_conn_disconnect                       0x00018b15   Thumb Code     0  rom_zephyr_symdefs.txt ABSOLUTE
    le_conn_extra_update                     0x00018b85   Thumb Code     0  rom_zephyr_symdefs.txt ABSOLUTE
    bt_conn_disconnect_all                   0x00018bad   Thumb Code     0  rom_zephyr_symdefs.txt ABSOLUTE
    bt_conn_create_slave_le                  0x00018bed   Thumb Code     0  rom_zephyr_symdefs.txt ABSOLUTE
    bt_conn_le_conn_update                   0x00018bf1   Thumb Code     0  rom_zephyr_symdefs.txt ABSOLUTE
    bt_conn_le_param_update                  0x00018c51   Thumb Code     0  rom_zephyr_symdefs.txt ABSOLUTE
    le_conn_update                           0x00018d09   Thumb Code     0  rom_zephyr_symdefs.txt ABSOLUTE
    bt_conn_create_pdu                       0x00018d45   Thumb Code     0  rom_zephyr_symdefs.txt ABSOLUTE
    create_frag                              0x00018d69   Thumb Code     0  rom_zephyr_symdefs.txt ABSOLUTE
    send_buf                                 0x00018dd5   Thumb Code     0  rom_zephyr_symdefs.txt ABSOLUTE
    bt_conn_process_tx                       0x00018e39   Thumb Code     0  rom_zephyr_symdefs.txt ABSOLUTE
    bt_conn_auth_cb_register                 0x00018ea9   Thumb Code     0  rom_zephyr_symdefs.txt ABSOLUTE
    bt_conn_auth_passkey_entry               0x00018ed5   Thumb Code     0  rom_zephyr_symdefs.txt ABSOLUTE
    bt_conn_auth_passkey_confirm             0x00018f05   Thumb Code     0  rom_zephyr_symdefs.txt ABSOLUTE
    bt_conn_auth_cancel                      0x00018f31   Thumb Code     0  rom_zephyr_symdefs.txt ABSOLUTE
    bt_conn_auth_pairing_confirm             0x00018f5d   Thumb Code     0  rom_zephyr_symdefs.txt ABSOLUTE
    bt_conn_get_id                           0x00018f89   Thumb Code     0  rom_zephyr_symdefs.txt ABSOLUTE
    bt_conn_lookup_id                        0x00018fa1   Thumb Code     0  rom_zephyr_symdefs.txt ABSOLUTE
    bt_conn_init                             0x00018fd9   Thumb Code     0  rom_zephyr_symdefs.txt ABSOLUTE
    l2cap_disconnected                       0x00019125   Thumb Code     0  rom_zephyr_symdefs.txt ABSOLUTE
    l2cap_chan_destroy                       0x00019127   Thumb Code     0  rom_zephyr_symdefs.txt ABSOLUTE
    l2cap_accept                             0x0001915d   Thumb Code     0  rom_zephyr_symdefs.txt ABSOLUTE
    l2cap_connected                          0x000191cd   Thumb Code     0  rom_zephyr_symdefs.txt ABSOLUTE
    bt_l2cap_le_max_credits_init             0x000191d1   Thumb Code     0  rom_zephyr_symdefs.txt ABSOLUTE
    bt_l2cap_pramter_init                    0x000191e9   Thumb Code     0  rom_zephyr_symdefs.txt ABSOLUTE
    bt_l2cap_pool_init                       0x000191fd   Thumb Code     0  rom_zephyr_symdefs.txt ABSOLUTE
    get_ident                                0x00019221   Thumb Code     0  rom_zephyr_symdefs.txt ABSOLUTE
    bt_l2cap_le_fixed_chan_register          0x0001923d   Thumb Code     0  rom_zephyr_symdefs.txt ABSOLUTE
    __l2cap_lookup_ident                     0x00019281   Thumb Code     0  rom_zephyr_symdefs.txt ABSOLUTE
    bt_l2cap_chan_remove                     0x000192c3   Thumb Code     0  rom_zephyr_symdefs.txt ABSOLUTE
    bt_l2cap_chan_set_state                  0x000192f3   Thumb Code     0  rom_zephyr_symdefs.txt ABSOLUTE
    bt_l2cap_chan_del                        0x000192f9   Thumb Code     0  rom_zephyr_symdefs.txt ABSOLUTE
    l2cap_rtx_timeout                        0x00019329   Thumb Code     0  rom_zephyr_symdefs.txt ABSOLUTE
    bt_l2cap_chan_add                        0x00019369   Thumb Code     0  rom_zephyr_symdefs.txt ABSOLUTE
    bt_l2cap_disconnected                    0x00019381   Thumb Code     0  rom_zephyr_symdefs.txt ABSOLUTE
    l2cap_create_le_sig_pdu                  0x000193e9   Thumb Code     0  rom_zephyr_symdefs.txt ABSOLUTE
    bt_l2cap_create_pdu                      0x00019411   Thumb Code     0  rom_zephyr_symdefs.txt ABSOLUTE
    bt_l2cap_send_cb                         0x0001941b   Thumb Code     0  rom_zephyr_symdefs.txt ABSOLUTE
    l2cap_chan_send_req                      0x0001944d   Thumb Code     0  rom_zephyr_symdefs.txt ABSOLUTE
    l2cap_le_conn_req                        0x0001947d   Thumb Code     0  rom_zephyr_symdefs.txt ABSOLUTE
    l2cap_le_encrypt_change                  0x00019505   Thumb Code     0  rom_zephyr_symdefs.txt ABSOLUTE
    bt_l2cap_encrypt_change                  0x00019537   Thumb Code     0  rom_zephyr_symdefs.txt ABSOLUTE
    l2cap_send_reject                        0x0001956b   Thumb Code     0  rom_zephyr_symdefs.txt ABSOLUTE
    le_conn_param_rsp                        0x000195b5   Thumb Code     0  rom_zephyr_symdefs.txt ABSOLUTE
    le_conn_param_update_req                 0x000195ed   Thumb Code     0  rom_zephyr_symdefs.txt ABSOLUTE
    bt_l2cap_le_lookup_tx_cid                0x000196b9   Thumb Code     0  rom_zephyr_symdefs.txt ABSOLUTE
    bt_l2cap_le_lookup_rx_cid                0x000196db   Thumb Code     0  rom_zephyr_symdefs.txt ABSOLUTE
    l2cap_chan_alloc_cid                     0x000196fb   Thumb Code     0  rom_zephyr_symdefs.txt ABSOLUTE
    l2cap_chan_add                           0x00019735   Thumb Code     0  rom_zephyr_symdefs.txt ABSOLUTE
    bt_l2cap_connected                       0x000197a9   Thumb Code     0  rom_zephyr_symdefs.txt ABSOLUTE
    l2cap_server_lookup_psm                  0x00019829   Thumb Code     0  rom_zephyr_symdefs.txt ABSOLUTE
    bt_l2cap_server_register                 0x00019851   Thumb Code     0  rom_zephyr_symdefs.txt ABSOLUTE
    l2cap_chan_rx_init                       0x00019895   Thumb Code     0  rom_zephyr_symdefs.txt ABSOLUTE
    l2cap_chan_tx_init                       0x00019901   Thumb Code     0  rom_zephyr_symdefs.txt ABSOLUTE
    l2cap_chan_tx_give_credits               0x00019927   Thumb Code     0  rom_zephyr_symdefs.txt ABSOLUTE
    l2cap_chan_rx_give_credits               0x00019941   Thumb Code     0  rom_zephyr_symdefs.txt ABSOLUTE
    le_conn_req                              0x0001995d   Thumb Code     0  rom_zephyr_symdefs.txt ABSOLUTE
    l2cap_remove_tx_cid                      0x00019add   Thumb Code     0  rom_zephyr_symdefs.txt ABSOLUTE
    le_disconn_req                           0x00019b21   Thumb Code     0  rom_zephyr_symdefs.txt ABSOLUTE
    l2cap_change_security                    0x00019be5   Thumb Code     0  rom_zephyr_symdefs.txt ABSOLUTE
    le_conn_rsp                              0x00019c31   Thumb Code     0  rom_zephyr_symdefs.txt ABSOLUTE
    le_disconn_rsp                           0x00019d29   Thumb Code     0  rom_zephyr_symdefs.txt ABSOLUTE
    l2cap_chan_create_seg                    0x00019d7d   Thumb Code     0  rom_zephyr_symdefs.txt ABSOLUTE
    l2cap_chan_le_send                       0x00019e91   Thumb Code     0  rom_zephyr_symdefs.txt ABSOLUTE
    l2cap_chan_le_send_sdu                   0x00019ed9   Thumb Code     0  rom_zephyr_symdefs.txt ABSOLUTE
    l2cap_chan_le_get_tx_buf                 0x00019f77   Thumb Code     0  rom_zephyr_symdefs.txt ABSOLUTE
    l2cap_chan_le_send_resume                0x00019f95   Thumb Code     0  rom_zephyr_symdefs.txt ABSOLUTE
    reject_cmd                               0x00019fc9   Thumb Code     0  rom_zephyr_symdefs.txt ABSOLUTE
    l2cap_chan_update_credits                0x00019fdf   Thumb Code     0  rom_zephyr_symdefs.txt ABSOLUTE
    l2cap_alloc_frag                         0x0001a03b   Thumb Code     0  rom_zephyr_symdefs.txt ABSOLUTE
    bt_l2cap_update_conn_param               0x0001a059   Thumb Code     0  rom_zephyr_symdefs.txt ABSOLUTE
    bt_l2cap_init                            0x0001a0dd   Thumb Code     0  rom_zephyr_symdefs.txt ABSOLUTE
    l2cap_le_connect                         0x0001a115   Thumb Code     0  rom_zephyr_symdefs.txt ABSOLUTE
    bt_l2cap_chan_connect                    0x0001a155   Thumb Code     0  rom_zephyr_symdefs.txt ABSOLUTE
    bt_l2cap_chan_disconnect                 0x0001a1cd   Thumb Code     0  rom_zephyr_symdefs.txt ABSOLUTE
    le_credits                               0x0001a25d   Thumb Code     0  rom_zephyr_symdefs.txt ABSOLUTE
    l2cap_recv                               0x0001a2fd   Thumb Code     0  rom_zephyr_symdefs.txt ABSOLUTE
    l2cap_chan_le_recv_sdu                   0x0001a42d   Thumb Code     0  rom_zephyr_symdefs.txt ABSOLUTE
    l2cap_chan_le_recv                       0x0001a521   Thumb Code     0  rom_zephyr_symdefs.txt ABSOLUTE
    l2cap_chan_recv                          0x0001a5d9   Thumb Code     0  rom_zephyr_symdefs.txt ABSOLUTE
    bt_l2cap_recv                            0x0001a5f5   Thumb Code     0  rom_zephyr_symdefs.txt ABSOLUTE
    bt_l2cap_chan_send                       0x0001a6b1   Thumb Code     0  rom_zephyr_symdefs.txt ABSOLUTE
    find_info_cb                             0x0001a76d   Thumb Code     0  rom_zephyr_symdefs.txt ABSOLUTE
    read_group_cb                            0x0001a819   Thumb Code     0  rom_zephyr_symdefs.txt ABSOLUTE
    find_type_cb                             0x0001a901   Thumb Code     0  rom_zephyr_symdefs.txt ABSOLUTE
    att_notify                               0x0001a9b9   Thumb Code     0  rom_zephyr_symdefs.txt ABSOLUTE
    bt_att_connected                         0x0001a9d9   Thumb Code     0  rom_zephyr_symdefs.txt ABSOLUTE
    bt_att_accept                            0x0001aa1d   Thumb Code     0  rom_zephyr_symdefs.txt ABSOLUTE
    bt_att_paramter_init                     0x0001aaad   Thumb Code     0  rom_zephyr_symdefs.txt ABSOLUTE
    bt_prep_pool_int                         0x0001aacd   Thumb Code     0  rom_zephyr_symdefs.txt ABSOLUTE
    bt_req_pool_int                          0x0001aaed   Thumb Code     0  rom_zephyr_symdefs.txt ABSOLUTE
    att_req_destroy                          0x0001ab0d   Thumb Code     0  rom_zephyr_symdefs.txt ABSOLUTE
    att_get                                  0x0001ab31   Thumb Code     0  rom_zephyr_symdefs.txt ABSOLUTE
    att_rsp_sent                             0x0001ab3b   Thumb Code     0  rom_zephyr_symdefs.txt ABSOLUTE
    att_cfm_sent                             0x0001ab49   Thumb Code     0  rom_zephyr_symdefs.txt ABSOLUTE
    att_req_sent                             0x0001ab51   Thumb Code     0  rom_zephyr_symdefs.txt ABSOLUTE
    att_pdu_sent                             0x0001ab81   Thumb Code     0  rom_zephyr_symdefs.txt ABSOLUTE
    att_is_connected                         0x0001ab93   Thumb Code     0  rom_zephyr_symdefs.txt ABSOLUTE
    range_is_valid                           0x0001abad   Thumb Code     0  rom_zephyr_symdefs.txt ABSOLUTE
    uuid_create                              0x0001abd3   Thumb Code     0  rom_zephyr_symdefs.txt ABSOLUTE
    check_perm                               0x0001ac05   Thumb Code     0  rom_zephyr_symdefs.txt ABSOLUTE
    err_to_att                               0x0001ac69   Thumb Code     0  rom_zephyr_symdefs.txt ABSOLUTE
    read_type_cb                             0x0001ac7b   Thumb Code     0  rom_zephyr_symdefs.txt ABSOLUTE
    read_cb                                  0x0001ad37   Thumb Code     0  rom_zephyr_symdefs.txt ABSOLUTE
    write_cb                                 0x0001ada5   Thumb Code     0  rom_zephyr_symdefs.txt ABSOLUTE
    prep_write_cb                            0x0001adf1   Thumb Code     0  rom_zephyr_symdefs.txt ABSOLUTE
    att_change_security                      0x0001ae75   Thumb Code     0  rom_zephyr_symdefs.txt ABSOLUTE
    att_op_get_type                          0x0001aead   Thumb Code     0  rom_zephyr_symdefs.txt ABSOLUTE
    att_cb                                   0x0001aee9   Thumb Code     0  rom_zephyr_symdefs.txt ABSOLUTE
    att_send_req                             0x0001af55   Thumb Code     0  rom_zephyr_symdefs.txt ABSOLUTE
    att_process                              0x0001afdd   Thumb Code     0  rom_zephyr_symdefs.txt ABSOLUTE
    att_handle_rsp                           0x0001affd   Thumb Code     0  rom_zephyr_symdefs.txt ABSOLUTE
    att_mtu_rsp                              0x0001b089   Thumb Code     0  rom_zephyr_symdefs.txt ABSOLUTE
    att_error_rsp                            0x0001b0e9   Thumb Code     0  rom_zephyr_symdefs.txt ABSOLUTE
    att_confirm                              0x0001b145   Thumb Code     0  rom_zephyr_symdefs.txt ABSOLUTE
    att_handle_exec_write_rsp                0x0001b153   Thumb Code     0  rom_zephyr_symdefs.txt ABSOLUTE
    att_handle_prepare_write_rsp             0x0001b15b   Thumb Code     0  rom_zephyr_symdefs.txt ABSOLUTE
    att_handle_write_rsp                     0x0001b163   Thumb Code     0  rom_zephyr_symdefs.txt ABSOLUTE
    att_handle_read_group_rsp                0x0001b16b   Thumb Code     0  rom_zephyr_symdefs.txt ABSOLUTE
    att_handle_read_mult_rsp                 0x0001b173   Thumb Code     0  rom_zephyr_symdefs.txt ABSOLUTE
    att_handle_read_blob_rsp                 0x0001b17b   Thumb Code     0  rom_zephyr_symdefs.txt ABSOLUTE
    att_handle_read_rsp                      0x0001b183   Thumb Code     0  rom_zephyr_symdefs.txt ABSOLUTE
    att_handle_read_type_rsp                 0x0001b18b   Thumb Code     0  rom_zephyr_symdefs.txt ABSOLUTE
    att_handle_find_type_rsp                 0x0001b193   Thumb Code     0  rom_zephyr_symdefs.txt ABSOLUTE
    att_handle_find_info_rsp                 0x0001b19b   Thumb Code     0  rom_zephyr_symdefs.txt ABSOLUTE
    bt_att_encrypt_change                    0x0001b1a5   Thumb Code     0  rom_zephyr_symdefs.txt ABSOLUTE
    att_chan_get                             0x0001b23d   Thumb Code     0  rom_zephyr_symdefs.txt ABSOLUTE
    bt_att_create_pdu                        0x0001b2c9   Thumb Code     0  rom_zephyr_symdefs.txt ABSOLUTE
    send_err_rsp                             0x0001b369   Thumb Code     0  rom_zephyr_symdefs.txt ABSOLUTE
    bt_att_recv                              0x0001b375   Thumb Code     0  rom_zephyr_symdefs.txt ABSOLUTE
    att_mtu_req                              0x0001b461   Thumb Code     0  rom_zephyr_symdefs.txt ABSOLUTE
    att_find_info_rsp                        0x0001b4ed   Thumb Code     0  rom_zephyr_symdefs.txt ABSOLUTE
    att_find_info_req                        0x0001b559   Thumb Code     0  rom_zephyr_symdefs.txt ABSOLUTE
    att_find_type_rsp                        0x0001b5a9   Thumb Code     0  rom_zephyr_symdefs.txt ABSOLUTE
    att_find_type_req                        0x0001b631   Thumb Code     0  rom_zephyr_symdefs.txt ABSOLUTE
    att_read_type_rsp                        0x0001b6b1   Thumb Code     0  rom_zephyr_symdefs.txt ABSOLUTE
    att_read_type_req                        0x0001b73d   Thumb Code     0  rom_zephyr_symdefs.txt ABSOLUTE
    att_read_rsp                             0x0001b7b5   Thumb Code     0  rom_zephyr_symdefs.txt ABSOLUTE
    att_read_req                             0x0001b83d   Thumb Code     0  rom_zephyr_symdefs.txt ABSOLUTE
    att_read_blob_req                        0x0001b857   Thumb Code     0  rom_zephyr_symdefs.txt ABSOLUTE
    att_read_mult_req                        0x0001b879   Thumb Code     0  rom_zephyr_symdefs.txt ABSOLUTE
    att_read_group_rsp                       0x0001b8f9   Thumb Code     0  rom_zephyr_symdefs.txt ABSOLUTE
    att_read_group_req                       0x0001b981   Thumb Code     0  rom_zephyr_symdefs.txt ABSOLUTE
    att_write_rsp                            0x0001ba35   Thumb Code     0  rom_zephyr_symdefs.txt ABSOLUTE
    att_write_req                            0x0001baf1   Thumb Code     0  rom_zephyr_symdefs.txt ABSOLUTE
    att_write_cmd                            0x0001bb1d   Thumb Code     0  rom_zephyr_symdefs.txt ABSOLUTE
    att_signed_write_cmd                     0x0001bb49   Thumb Code     0  rom_zephyr_symdefs.txt ABSOLUTE
    att_prep_write_rsp                       0x0001bbd5   Thumb Code     0  rom_zephyr_symdefs.txt ABSOLUTE
    att_prepare_write_req                    0x0001bc9d   Thumb Code     0  rom_zephyr_symdefs.txt ABSOLUTE
    att_exec_write_rsp                       0x0001bce1   Thumb Code     0  rom_zephyr_symdefs.txt ABSOLUTE
    att_exec_write_req                       0x0001bd6d   Thumb Code     0  rom_zephyr_symdefs.txt ABSOLUTE
    att_indicate                             0x0001bd8d   Thumb Code     0  rom_zephyr_symdefs.txt ABSOLUTE
    att_reset                                0x0001bdc9   Thumb Code     0  rom_zephyr_symdefs.txt ABSOLUTE
    att_timeout                              0x0001be65   Thumb Code     0  rom_zephyr_symdefs.txt ABSOLUTE
    bt_att_disconnected                      0x0001bead   Thumb Code     0  rom_zephyr_symdefs.txt ABSOLUTE
    bt_att_init                              0x0001bec9   Thumb Code     0  rom_zephyr_symdefs.txt ABSOLUTE
    bt_att_get_mtu                           0x0001bf05   Thumb Code     0  rom_zephyr_symdefs.txt ABSOLUTE
    bt_att_send                              0x0001bf49   Thumb Code     0  rom_zephyr_symdefs.txt ABSOLUTE
    bt_att_req_can_send                      0x0001c03d   Thumb Code     0  rom_zephyr_symdefs.txt ABSOLUTE
    bt_att_req_send                          0x0001c06d   Thumb Code     0  rom_zephyr_symdefs.txt ABSOLUTE
    bt_att_req_cancel                        0x0001c0f1   Thumb Code     0  rom_zephyr_symdefs.txt ABSOLUTE
    sc_ccc_cfg_changed                       0x0001c185   Thumb Code     0  rom_zephyr_symdefs.txt ABSOLUTE
    find_next                                0x0001c187   Thumb Code     0  rom_zephyr_symdefs.txt ABSOLUTE
    gatt_indicate_rsp                        0x0001c18d   Thumb Code     0  rom_zephyr_symdefs.txt ABSOLUTE
    gatt_mtu_rsp                             0x0001c19b   Thumb Code     0  rom_zephyr_symdefs.txt ABSOLUTE
    gatt_write_rsp                           0x0001c1a5   Thumb Code     0  rom_zephyr_symdefs.txt ABSOLUTE
    gatt_read_multiple_rsp                   0x0001c1af   Thumb Code     0  rom_zephyr_symdefs.txt ABSOLUTE
    get_service_handles                      0x0001c1dd   Thumb Code     0  rom_zephyr_symdefs.txt ABSOLUTE
    sc_indicate_rsp                          0x0001c225   Thumb Code     0  rom_zephyr_symdefs.txt ABSOLUTE
    disconnected_cb                          0x0001c255   Thumb Code     0  rom_zephyr_symdefs.txt ABSOLUTE
    read_name                                0x0001c2fd   Thumb Code     0  rom_zephyr_symdefs.txt ABSOLUTE
    read_appearance                          0x0001c335   Thumb Code     0  rom_zephyr_symdefs.txt ABSOLUTE
    bt_gatt_attr_read_ccc                    0x0001c36d   Thumb Code     0  rom_zephyr_symdefs.txt ABSOLUTE
    bt_gatt_attr_read_service                0x0001c3e1   Thumb Code     0  rom_zephyr_symdefs.txt ABSOLUTE
    bt_gap_svc_config_init                   0x0001c42d   Thumb Code     0  rom_zephyr_symdefs.txt ABSOLUTE
    bt_gatt_svc_config_init                  0x0001c449   Thumb Code     0  rom_zephyr_symdefs.txt ABSOLUTE
    gatt_register                            0x0001c465   Thumb Code     0  rom_zephyr_symdefs.txt ABSOLUTE
    bt_gatt_init                             0x0001c505   Thumb Code     0  rom_zephyr_symdefs.txt ABSOLUTE
    update_range                             0x0001c559   Thumb Code     0  rom_zephyr_symdefs.txt ABSOLUTE
    sc_indicate                              0x0001c579   Thumb Code     0  rom_zephyr_symdefs.txt ABSOLUTE
    bt_gatt_service_register                 0x0001c5c9   Thumb Code     0  rom_zephyr_symdefs.txt ABSOLUTE
    bt_gatt_service_unregister               0x0001c65d   Thumb Code     0  rom_zephyr_symdefs.txt ABSOLUTE
    bt_gatt_attr_read                        0x0001c6d5   Thumb Code     0  rom_zephyr_symdefs.txt ABSOLUTE
    bt_gatt_foreach_attr                     0x0001c705   Thumb Code     0  rom_zephyr_symdefs.txt ABSOLUTE
    bt_gatt_attr_read_included               0x0001c759   Thumb Code     0  rom_zephyr_symdefs.txt ABSOLUTE
    sc_process                               0x0001c7e5   Thumb Code     0  rom_zephyr_symdefs.txt ABSOLUTE
    bt_gatt_attr_next                        0x0001c835   Thumb Code     0  rom_zephyr_symdefs.txt ABSOLUTE
    bt_gatt_attr_read_chrc                   0x0001c855   Thumb Code     0  rom_zephyr_symdefs.txt ABSOLUTE
    gatt_ccc_changed                         0x0001c905   Thumb Code     0  rom_zephyr_symdefs.txt ABSOLUTE
    bt_gatt_attr_write_ccc                   0x0001c939   Thumb Code     0  rom_zephyr_symdefs.txt ABSOLUTE
    bt_gatt_attr_read_cep                    0x0001ca2d   Thumb Code     0  rom_zephyr_symdefs.txt ABSOLUTE
    bt_gatt_attr_read_cud                    0x0001ca5f   Thumb Code     0  rom_zephyr_symdefs.txt ABSOLUTE
    bt_gatt_attr_read_cpf                    0x0001ca95   Thumb Code     0  rom_zephyr_symdefs.txt ABSOLUTE
    gatt_notify                              0x0001cabd   Thumb Code     0  rom_zephyr_symdefs.txt ABSOLUTE
    gatt_send                                0x0001cb49   Thumb Code     0  rom_zephyr_symdefs.txt ABSOLUTE
    gatt_indicate                            0x0001cbb9   Thumb Code     0  rom_zephyr_symdefs.txt ABSOLUTE
    sc_save                                  0x0001cc49   Thumb Code     0  rom_zephyr_symdefs.txt ABSOLUTE
    notify_cb                                0x0001cc81   Thumb Code     0  rom_zephyr_symdefs.txt ABSOLUTE
    bt_gatt_notify                           0x0001cd4d   Thumb Code     0  rom_zephyr_symdefs.txt ABSOLUTE
    bt_gatt_indicate                         0x0001cd8d   Thumb Code     0  rom_zephyr_symdefs.txt ABSOLUTE
    bt_gatt_get_mtu                          0x0001cda1   Thumb Code     0  rom_zephyr_symdefs.txt ABSOLUTE
    sc_restore                               0x0001cda9   Thumb Code     0  rom_zephyr_symdefs.txt ABSOLUTE
    connected_cb                             0x0001cdd1   Thumb Code     0  rom_zephyr_symdefs.txt ABSOLUTE
    update_subscription                      0x0001ce2d   Thumb Code     0  rom_zephyr_symdefs.txt ABSOLUTE
    gatt_subscription_remove                 0x0001ce49   Thumb Code     0  rom_zephyr_symdefs.txt ABSOLUTE
    gatt_write_ccc_rsp                       0x0001ce69   Thumb Code     0  rom_zephyr_symdefs.txt ABSOLUTE
    remove_subscriptions                     0x0001cead   Thumb Code     0  rom_zephyr_symdefs.txt ABSOLUTE
    bt_gatt_exchange_mtu                     0x0001cf35   Thumb Code     0  rom_zephyr_symdefs.txt ABSOLUTE
    gatt_find_type                           0x0001cf85   Thumb Code     0  rom_zephyr_symdefs.txt ABSOLUTE
    gatt_read_group                          0x0001d04d   Thumb Code     0  rom_zephyr_symdefs.txt ABSOLUTE
    read_included_uuid                       0x0001d101   Thumb Code     0  rom_zephyr_symdefs.txt ABSOLUTE
    parse_include                            0x0001d145   Thumb Code     0  rom_zephyr_symdefs.txt ABSOLUTE
    parse_characteristic                     0x0001d265   Thumb Code     0  rom_zephyr_symdefs.txt ABSOLUTE
    gatt_read_type                           0x0001d381   Thumb Code     0  rom_zephyr_symdefs.txt ABSOLUTE
    gatt_find_info                           0x0001d3f5   Thumb Code     0  rom_zephyr_symdefs.txt ABSOLUTE
    bt_gatt_discover                         0x0001d445   Thumb Code     0  rom_zephyr_symdefs.txt ABSOLUTE
    gatt_discover_next                       0x0001d4c1   Thumb Code     0  rom_zephyr_symdefs.txt ABSOLUTE
    gatt_find_type_rsp                       0x0001d505   Thumb Code     0  rom_zephyr_symdefs.txt ABSOLUTE
    gatt_read_group_rsp                      0x0001d5a1   Thumb Code     0  rom_zephyr_symdefs.txt ABSOLUTE
    read_included_uuid_cb                    0x0001d6ad   Thumb Code     0  rom_zephyr_symdefs.txt ABSOLUTE
    gatt_read_type_rsp                       0x0001d765   Thumb Code     0  rom_zephyr_symdefs.txt ABSOLUTE
    gatt_find_info_rsp                       0x0001d7ad   Thumb Code     0  rom_zephyr_symdefs.txt ABSOLUTE
    gatt_read_blob                           0x0001d8a9   Thumb Code     0  rom_zephyr_symdefs.txt ABSOLUTE
    gatt_read_multiple                       0x0001d8f9   Thumb Code     0  rom_zephyr_symdefs.txt ABSOLUTE
    bt_gatt_read                             0x0001d945   Thumb Code     0  rom_zephyr_symdefs.txt ABSOLUTE
    gatt_read_rsp                            0x0001d9a9   Thumb Code     0  rom_zephyr_symdefs.txt ABSOLUTE
    bt_gatt_write_without_response           0x0001da21   Thumb Code     0  rom_zephyr_symdefs.txt ABSOLUTE
    gatt_exec_write                          0x0001daad   Thumb Code     0  rom_zephyr_symdefs.txt ABSOLUTE
    gatt_prepare_write                       0x0001dae9   Thumb Code     0  rom_zephyr_symdefs.txt ABSOLUTE
    bt_gatt_write                            0x0001db79   Thumb Code     0  rom_zephyr_symdefs.txt ABSOLUTE
    gatt_prepare_write_rsp                   0x0001dbfd   Thumb Code     0  rom_zephyr_symdefs.txt ABSOLUTE
    gatt_subscription_add                    0x0001dc21   Thumb Code     0  rom_zephyr_symdefs.txt ABSOLUTE
    gatt_write_ccc                           0x0001dc4d   Thumb Code     0  rom_zephyr_symdefs.txt ABSOLUTE
    bt_gatt_subscribe                        0x0001dc99   Thumb Code     0  rom_zephyr_symdefs.txt ABSOLUTE
    bt_gatt_unsubscribe                      0x0001dd21   Thumb Code     0  rom_zephyr_symdefs.txt ABSOLUTE
    bt_gatt_notification                     0x0001ddf1   Thumb Code     0  rom_zephyr_symdefs.txt ABSOLUTE
    bt_gatt_cancel                           0x0001de69   Thumb Code     0  rom_zephyr_symdefs.txt ABSOLUTE
    add_subscriptions                        0x0001de71   Thumb Code     0  rom_zephyr_symdefs.txt ABSOLUTE
    bt_gatt_connected                        0x0001deb5   Thumb Code     0  rom_zephyr_symdefs.txt ABSOLUTE
    bt_gatt_disconnected                     0x0001df05   Thumb Code     0  rom_zephyr_symdefs.txt ABSOLUTE
    smp_encrypt_info                         0x0001df9d   Thumb Code     0  rom_zephyr_symdefs.txt ABSOLUTE
    smp_ident_info                           0x0001e015   Thumb Code     0  rom_zephyr_symdefs.txt ABSOLUTE
    bt_smp_disconnected                      0x0001e08d   Thumb Code     0  rom_zephyr_symdefs.txt ABSOLUTE
    bt_smp_accept                            0x0001e0d1   Thumb Code     0  rom_zephyr_symdefs.txt ABSOLUTE
    bt_set_sec_cfg                           0x0001e205   Thumb Code     0  rom_zephyr_symdefs.txt ABSOLUTE
    bt_set_smp_cfg                           0x0001e241   Thumb Code     0  rom_zephyr_symdefs.txt ABSOLUTE
    bt_smp_pool_init                         0x0001e255   Thumb Code     0  rom_zephyr_symdefs.txt ABSOLUTE
    get_io_capa                              0x0001e279   Thumb Code     0  rom_zephyr_symdefs.txt ABSOLUTE
    get_pair_method                          0x0001e2cd   Thumb Code     0  rom_zephyr_symdefs.txt ABSOLUTE
    smp_create_pdu                           0x0001e2fd   Thumb Code     0  rom_zephyr_symdefs.txt ABSOLUTE
    bt_smp_aes_cmac                          0x0001e319   Thumb Code     0  rom_zephyr_symdefs.txt ABSOLUTE
    get_encryption_key_size                  0x0001e56d   Thumb Code     0  rom_zephyr_symdefs.txt ABSOLUTE
    smp_reset                                0x0001e583   Thumb Code     0  rom_zephyr_symdefs.txt ABSOLUTE
    bt_smp_connected                         0x0001e5cd   Thumb Code     0  rom_zephyr_symdefs.txt ABSOLUTE
    smp_check_complete                       0x0001e5e9   Thumb Code     0  rom_zephyr_symdefs.txt ABSOLUTE
    id_sent                                  0x0001e619   Thumb Code     0  rom_zephyr_symdefs.txt ABSOLUTE
    sign_info_sent                           0x0001e623   Thumb Code     0  rom_zephyr_symdefs.txt ABSOLUTE
    ident_sent                               0x0001e62d   Thumb Code     0  rom_zephyr_symdefs.txt ABSOLUTE
    smp_timeout                              0x0001e639   Thumb Code     0  rom_zephyr_symdefs.txt ABSOLUTE
    smp_pairing_failed                       0x0001e6a5   Thumb Code     0  rom_zephyr_symdefs.txt ABSOLUTE
    smp_pairing_complete                     0x0001e719   Thumb Code     0  rom_zephyr_symdefs.txt ABSOLUTE
    smp_send                                 0x0001e721   Thumb Code     0  rom_zephyr_symdefs.txt ABSOLUTE
    smp_error                                0x0001e749   Thumb Code     0  rom_zephyr_symdefs.txt ABSOLUTE
    bt_smp_recv                              0x0001e77d   Thumb Code     0  rom_zephyr_symdefs.txt ABSOLUTE
    smp_send_pairing_random                  0x0001e8d7   Thumb Code     0  rom_zephyr_symdefs.txt ABSOLUTE
    xor_128                                  0x0001e90b   Thumb Code     0  rom_zephyr_symdefs.txt ABSOLUTE
    smp_c1                                   0x0001e91f   Thumb Code     0  rom_zephyr_symdefs.txt ABSOLUTE
    smp_send_pairing_confirm                 0x0001e9a5   Thumb Code     0  rom_zephyr_symdefs.txt ABSOLUTE
    legacy_distribute_keys                   0x0001ea29   Thumb Code     0  rom_zephyr_symdefs.txt ABSOLUTE
    bt_smp_distribute_keys                   0x0001eb6d   Thumb Code     0  rom_zephyr_symdefs.txt ABSOLUTE
    smp_master_ident                         0x0001ecc9   Thumb Code     0  rom_zephyr_symdefs.txt ABSOLUTE
    smp_ident_addr_info                      0x0001edb9   Thumb Code     0  rom_zephyr_symdefs.txt ABSOLUTE
    smp_signing_info                         0x0001ef0d   Thumb Code     0  rom_zephyr_symdefs.txt ABSOLUTE
    bt_smp_encrypt_change                    0x0001efb5   Thumb Code     0  rom_zephyr_symdefs.txt ABSOLUTE
    send_pairing_rsp                         0x0001f081   Thumb Code     0  rom_zephyr_symdefs.txt ABSOLUTE
    smp_s1                                   0x0001f0b5   Thumb Code     0  rom_zephyr_symdefs.txt ABSOLUTE
    legacy_get_pair_method                   0x0001f0e1   Thumb Code     0  rom_zephyr_symdefs.txt ABSOLUTE
    legacy_request_tk                        0x0001f121   Thumb Code     0  rom_zephyr_symdefs.txt ABSOLUTE
    legacy_send_pairing_confirm              0x0001f201   Thumb Code     0  rom_zephyr_symdefs.txt ABSOLUTE
    legacy_pairing_req                       0x0001f269   Thumb Code     0  rom_zephyr_symdefs.txt ABSOLUTE
    legacy_pairing_random                    0x0001f2d1   Thumb Code     0  rom_zephyr_symdefs.txt ABSOLUTE
    legacy_pairing_confirm                   0x0001f3c9   Thumb Code     0  rom_zephyr_symdefs.txt ABSOLUTE
    smp_pairing_confirm                      0x0001f409   Thumb Code     0  rom_zephyr_symdefs.txt ABSOLUTE
    legacy_passkey_entry                     0x0001f483   Thumb Code     0  rom_zephyr_symdefs.txt ABSOLUTE
    legacy_pairing_rsp                       0x0001f4cd   Thumb Code     0  rom_zephyr_symdefs.txt ABSOLUTE
    smp_init                                 0x0001f54d   Thumb Code     0  rom_zephyr_symdefs.txt ABSOLUTE
    get_auth                                 0x0001f57d   Thumb Code     0  rom_zephyr_symdefs.txt ABSOLUTE
    smp_pairing_req                          0x0001f5a9   Thumb Code     0  rom_zephyr_symdefs.txt ABSOLUTE
    sec_level_reachable                      0x0001f71d   Thumb Code     0  rom_zephyr_symdefs.txt ABSOLUTE
    smp_chan_get                             0x0001f75d   Thumb Code     0  rom_zephyr_symdefs.txt ABSOLUTE
    bt_smp_send_security_req                 0x0001f79d   Thumb Code     0  rom_zephyr_symdefs.txt ABSOLUTE
    sc_send_public_key                       0x0001f859   Thumb Code     0  rom_zephyr_symdefs.txt ABSOLUTE
    smp_pairing_rsp                          0x0001f8a1   Thumb Code     0  rom_zephyr_symdefs.txt ABSOLUTE
    bt_smp_send_pairing_req                  0x0001f9ed   Thumb Code     0  rom_zephyr_symdefs.txt ABSOLUTE
    smp_security_request                     0x0001fb09   Thumb Code     0  rom_zephyr_symdefs.txt ABSOLUTE
    sc_smp_send_dhkey_check                  0x0001fc05   Thumb Code     0  rom_zephyr_symdefs.txt ABSOLUTE
    compute_and_send_master_dhcheck          0x0001fc39   Thumb Code     0  rom_zephyr_symdefs.txt ABSOLUTE
    compute_and_check_and_send_slave_dhcheck 0x0001fce1   Thumb Code     0  rom_zephyr_symdefs.txt ABSOLUTE
    bt_smp_dhkey_ready                       0x0001fdc5   Thumb Code     0  rom_zephyr_symdefs.txt ABSOLUTE
    smp_dhkey_check                          0x0001fe69   Thumb Code     0  rom_zephyr_symdefs.txt ABSOLUTE
    sc_smp_check_confirm                     0x0001ff7d   Thumb Code     0  rom_zephyr_symdefs.txt ABSOLUTE
    smp_pairing_random                       0x0001ffe9   Thumb Code     0  rom_zephyr_symdefs.txt ABSOLUTE
    generate_dhkey                           0x00020175   Thumb Code     0  rom_zephyr_symdefs.txt ABSOLUTE
    display_passkey                          0x0002019d   Thumb Code     0  rom_zephyr_symdefs.txt ABSOLUTE
    smp_public_key_slave                     0x000201dd   Thumb Code     0  rom_zephyr_symdefs.txt ABSOLUTE
    smp_public_key                           0x00020255   Thumb Code     0  rom_zephyr_symdefs.txt ABSOLUTE
    bt_smp_pkey_ready                        0x00020345   Thumb Code     0  rom_zephyr_symdefs.txt ABSOLUTE
    smp_sign_buf                             0x000203f9   Thumb Code     0  rom_zephyr_symdefs.txt ABSOLUTE
    bt_smp_sign_verify                       0x00020499   Thumb Code     0  rom_zephyr_symdefs.txt ABSOLUTE
    bt_smp_sign                              0x000205d1   Thumb Code     0  rom_zephyr_symdefs.txt ABSOLUTE
    bt_smp_auth_passkey_entry                0x000206c5   Thumb Code     0  rom_zephyr_symdefs.txt ABSOLUTE
    bt_smp_auth_passkey_confirm              0x00020785   Thumb Code     0  rom_zephyr_symdefs.txt ABSOLUTE
    bt_smp_auth_cancel                       0x0002082d   Thumb Code     0  rom_zephyr_symdefs.txt ABSOLUTE
    bt_smp_auth_pairing_confirm              0x000208a5   Thumb Code     0  rom_zephyr_symdefs.txt ABSOLUTE
    bt_smp_update_keys                       0x00020975   Thumb Code     0  rom_zephyr_symdefs.txt ABSOLUTE
    bt_smp_get_tk                            0x00020a99   Thumb Code     0  rom_zephyr_symdefs.txt ABSOLUTE
    le_sc_supported                          0x00020b25   Thumb Code     0  rom_zephyr_symdefs.txt ABSOLUTE
    bt_smp_init                              0x00020b3d   Thumb Code     0  rom_zephyr_symdefs.txt ABSOLUTE
    bt_keys_clear                            0x00020b8d   Thumb Code     0  rom_zephyr_symdefs.txt ABSOLUTE
    bt_host_keys_init                        0x00020bd9   Thumb Code     0  rom_zephyr_symdefs.txt ABSOLUTE
    bt_keys_foreach                          0x00020c09   Thumb Code     0  rom_zephyr_symdefs.txt ABSOLUTE
    bt_keys_add_type                         0x00020c3d   Thumb Code     0  rom_zephyr_symdefs.txt ABSOLUTE
    bt_keys_clear_all                        0x00020c45   Thumb Code     0  rom_zephyr_symdefs.txt ABSOLUTE
    bt_update_keys_to_nv                     0x00020c55   Thumb Code     0  rom_zephyr_symdefs.txt ABSOLUTE
    bt_keys_find_addr_from_nv                0x00020c85   Thumb Code     0  rom_zephyr_symdefs.txt ABSOLUTE
    bt_keys_find_irk                         0x00020cf9   Thumb Code     0  rom_zephyr_symdefs.txt ABSOLUTE
    bt_keys_find_addr                        0x00020dd1   Thumb Code     0  rom_zephyr_symdefs.txt ABSOLUTE
    bt_keys_get_addr                         0x00020e3d   Thumb Code     0  rom_zephyr_symdefs.txt ABSOLUTE
    bt_keys_find_from_nv                     0x00020ed1   Thumb Code     0  rom_zephyr_symdefs.txt ABSOLUTE
    bt_keys_find                             0x00020f51   Thumb Code     0  rom_zephyr_symdefs.txt ABSOLUTE
    bt_keys_get_type                         0x00020fd5   Thumb Code     0  rom_zephyr_symdefs.txt ABSOLUTE
    bt_smp_null_pool_init                    0x0002102d   Thumb Code     0  rom_zephyr_symdefs.txt ABSOLUTE
    bt_smp_init_null                         0x00021051   Thumb Code     0  rom_zephyr_symdefs.txt ABSOLUTE
    prng_reseed                              0x00021061   Thumb Code     0  rom_zephyr_symdefs.txt ABSOLUTE
    prng_init                                0x000210ed   Thumb Code     0  rom_zephyr_symdefs.txt ABSOLUTE
    bt_rand                                  0x00021171   Thumb Code     0  rom_zephyr_symdefs.txt ABSOLUTE
    bt_encrypt_be                            0x000211a9   Thumb Code     0  rom_zephyr_symdefs.txt ABSOLUTE
    bt_encrypt_le                            0x00021299   Thumb Code     0  rom_zephyr_symdefs.txt ABSOLUTE
    net_buf_pool_get                         0x0002145d   Thumb Code     0  rom_zephyr_symdefs.txt ABSOLUTE
    pool_id                                  0x0002147d   Thumb Code     0  rom_zephyr_symdefs.txt ABSOLUTE
    net_buf_reset                            0x000214a9   Thumb Code     0  rom_zephyr_symdefs.txt ABSOLUTE
    net_buf_alloc                            0x000214b5   Thumb Code     0  rom_zephyr_symdefs.txt ABSOLUTE
    net_buf_get                              0x0002153d   Thumb Code     0  rom_zephyr_symdefs.txt ABSOLUTE
    net_buf_reserve                          0x0002156d   Thumb Code     0  rom_zephyr_symdefs.txt ABSOLUTE
    net_buf_put                              0x00021577   Thumb Code     0  rom_zephyr_symdefs.txt ABSOLUTE
    net_buf_unref                            0x00021593   Thumb Code     0  rom_zephyr_symdefs.txt ABSOLUTE
    net_buf_ref                              0x000215d7   Thumb Code     0  rom_zephyr_symdefs.txt ABSOLUTE
    net_buf_clone                            0x000215df   Thumb Code     0  rom_zephyr_symdefs.txt ABSOLUTE
    net_buf_frag_last                        0x00021617   Thumb Code     0  rom_zephyr_symdefs.txt ABSOLUTE
    net_buf_frag_insert                      0x00021623   Thumb Code     0  rom_zephyr_symdefs.txt ABSOLUTE
    net_buf_frag_add                         0x0002163d   Thumb Code     0  rom_zephyr_symdefs.txt ABSOLUTE
    net_buf_frag_del                         0x0002165d   Thumb Code     0  rom_zephyr_symdefs.txt ABSOLUTE
    net_buf_simple_add                       0x00021677   Thumb Code     0  rom_zephyr_symdefs.txt ABSOLUTE
    net_buf_simple_add_mem                   0x00021685   Thumb Code     0  rom_zephyr_symdefs.txt ABSOLUTE
    net_buf_simple_add_u8                    0x00021699   Thumb Code     0  rom_zephyr_symdefs.txt ABSOLUTE
    net_buf_simple_add_le16                  0x000216a9   Thumb Code     0  rom_zephyr_symdefs.txt ABSOLUTE
    net_buf_simple_add_be16                  0x000216c7   Thumb Code     0  rom_zephyr_symdefs.txt ABSOLUTE
    net_buf_simple_add_le32                  0x000216eb   Thumb Code     0  rom_zephyr_symdefs.txt ABSOLUTE
    net_buf_simple_add_be32                  0x00021705   Thumb Code     0  rom_zephyr_symdefs.txt ABSOLUTE
    net_buf_simple_push                      0x00021721   Thumb Code     0  rom_zephyr_symdefs.txt ABSOLUTE
    net_buf_simple_push_le16                 0x00021731   Thumb Code     0  rom_zephyr_symdefs.txt ABSOLUTE
    net_buf_simple_push_be16                 0x00021751   Thumb Code     0  rom_zephyr_symdefs.txt ABSOLUTE
    net_buf_simple_push_u8                   0x00021777   Thumb Code     0  rom_zephyr_symdefs.txt ABSOLUTE
    net_buf_simple_pull                      0x00021787   Thumb Code     0  rom_zephyr_symdefs.txt ABSOLUTE
    net_buf_simple_pull_u8                   0x00021797   Thumb Code     0  rom_zephyr_symdefs.txt ABSOLUTE
    net_buf_simple_pull_le16                 0x000217a7   Thumb Code     0  rom_zephyr_symdefs.txt ABSOLUTE
    net_buf_simple_pull_be16                 0x000217bd   Thumb Code     0  rom_zephyr_symdefs.txt ABSOLUTE
    net_buf_simple_pull_le32                 0x000217d9   Thumb Code     0  rom_zephyr_symdefs.txt ABSOLUTE
    net_buf_simple_pull_be32                 0x000217fb   Thumb Code     0  rom_zephyr_symdefs.txt ABSOLUTE
    net_buf_simple_headroom                  0x00021835   Thumb Code     0  rom_zephyr_symdefs.txt ABSOLUTE
    net_buf_simple_tailroom                  0x0002183d   Thumb Code     0  rom_zephyr_symdefs.txt ABSOLUTE
    line_queue_init                          0x00021b11   Thumb Code     0  rom_zephyr_symdefs.txt ABSOLUTE
    shell_exec                               0x00021b45   Thumb Code     0  rom_zephyr_symdefs.txt ABSOLUTE
    shell                                    0x00021cbd   Thumb Code     0  rom_zephyr_symdefs.txt ABSOLUTE
    completion                               0x00021cf9   Thumb Code     0  rom_zephyr_symdefs.txt ABSOLUTE
    shell_register_app_cmd_handler           0x00021e91   Thumb Code     0  rom_zephyr_symdefs.txt ABSOLUTE
    shell_register_prompt_handler            0x00021e9d   Thumb Code     0  rom_zephyr_symdefs.txt ABSOLUTE
    shell_register_default_module            0x00021ea9   Thumb Code     0  rom_zephyr_symdefs.txt ABSOLUTE
    shell_cmd_version                        0x00021ec9   Thumb Code     0  rom_zephyr_symdefs.txt ABSOLUTE
    shell_cmd_uptime                         0x00021ee9   Thumb Code     0  rom_zephyr_symdefs.txt ABSOLUTE
    shell_cmd_cycles                         0x00021f01   Thumb Code     0  rom_zephyr_symdefs.txt ABSOLUTE
    shell_cmd_stack                          0x00021f19   Thumb Code     0  rom_zephyr_symdefs.txt ABSOLUTE
    do_mem_mw                                0x00021f23   Thumb Code     0  rom_zephyr_symdefs.txt ABSOLUTE
    do_mem_md                                0x00021f7d   Thumb Code     0  rom_zephyr_symdefs.txt ABSOLUTE
    shell_cmd_mdw                            0x00021fcf   Thumb Code     0  rom_zephyr_symdefs.txt ABSOLUTE
    shell_cmd_mdh                            0x00021fdd   Thumb Code     0  rom_zephyr_symdefs.txt ABSOLUTE
    shell_cmd_mdb                            0x00021feb   Thumb Code     0  rom_zephyr_symdefs.txt ABSOLUTE
    shell_cmd_mww                            0x00021ff9   Thumb Code     0  rom_zephyr_symdefs.txt ABSOLUTE
    shell_cmd_mwh                            0x00022007   Thumb Code     0  rom_zephyr_symdefs.txt ABSOLUTE
    shell_cmd_mwb                            0x00022015   Thumb Code     0  rom_zephyr_symdefs.txt ABSOLUTE
    syslog_hook_default                      0x00022023   Thumb Code     0  rom_zephyr_symdefs.txt ABSOLUTE
    syslog_hook_install                      0x00022029   Thumb Code     0  rom_zephyr_symdefs.txt ABSOLUTE
    isr_tables_syms                          0x00022035   Thumb Code     0  rom_zephyr_symdefs.txt ABSOLUTE
    acts_delay_us                            0x00022039   Thumb Code     0  rom_zephyr_symdefs.txt ABSOLUTE
    acts_init_efuse_cmu_pmu                  0x00022061   Thumb Code     0  rom_zephyr_symdefs.txt ABSOLUTE
    acts_init                                0x000220a1   Thumb Code     0  rom_zephyr_symdefs.txt ABSOLUTE
    acts_reset_peripheral_assert             0x000220bd   Thumb Code     0  rom_zephyr_symdefs.txt ABSOLUTE
    acts_reset_peripheral_deassert           0x000220e1   Thumb Code     0  rom_zephyr_symdefs.txt ABSOLUTE
    acts_reset_peripheral                    0x00022105   Thumb Code     0  rom_zephyr_symdefs.txt ABSOLUTE
    acts_pinmux_set                          0x00022115   Thumb Code     0  rom_zephyr_symdefs.txt ABSOLUTE
    acts_pinmux_get                          0x00022151   Thumb Code     0  rom_zephyr_symdefs.txt ABSOLUTE
    acts_pinmux_setup_pins                   0x0002216d   Thumb Code     0  rom_zephyr_symdefs.txt ABSOLUTE
    app_get_wake_lock                        0x00022189   Thumb Code     0  rom_zephyr_symdefs.txt ABSOLUTE
    app_release_wake_lock                    0x00022199   Thumb Code     0  rom_zephyr_symdefs.txt ABSOLUTE
    application_any_busy_check               0x000221a9   Thumb Code     0  rom_zephyr_symdefs.txt ABSOLUTE
    _sys_soc_suspend                         0x000221c5   Thumb Code     0  rom_zephyr_symdefs.txt ABSOLUTE
    acts_request_vd12_pd                     0x00022225   Thumb Code     0  rom_zephyr_symdefs.txt ABSOLUTE
    acts_request_vd12_largebias              0x00022255   Thumb Code     0  rom_zephyr_symdefs.txt ABSOLUTE
    acts_request_vd12                        0x00022285   Thumb Code     0  rom_zephyr_symdefs.txt ABSOLUTE
    acts_set_vdd                             0x00022289   Thumb Code     0  rom_zephyr_symdefs.txt ABSOLUTE
    acts_clock_peripheral_enable             0x000222a9   Thumb Code     0  rom_zephyr_symdefs.txt ABSOLUTE
    acts_clock_peripheral_disable            0x000222cd   Thumb Code     0  rom_zephyr_symdefs.txt ABSOLUTE
    acts_request_rc_3M                       0x000222f1   Thumb Code     0  rom_zephyr_symdefs.txt ABSOLUTE
    acts_request_pclk_gating                 0x00022351   Thumb Code     0  rom_zephyr_symdefs.txt ABSOLUTE
    acts_efuse_read_val                      0x00022379   Thumb Code     0  rom_zephyr_symdefs.txt ABSOLUTE
    acts_set_vd12_before_efuse_read          0x000223d9   Thumb Code     0  rom_zephyr_symdefs.txt ABSOLUTE
    acts_set_vd12_after_efuse_read           0x000223ef   Thumb Code     0  rom_zephyr_symdefs.txt ABSOLUTE
    acts_efuse_read                          0x00022405   Thumb Code     0  rom_zephyr_symdefs.txt ABSOLUTE
    acts_set_hcl_32k                         0x00022429   Thumb Code     0  rom_zephyr_symdefs.txt ABSOLUTE
    acts_set_xtal_32k                        0x000224a9   Thumb Code     0  rom_zephyr_symdefs.txt ABSOLUTE
    acts_wait_xtal_32k_on                    0x000224c1   Thumb Code     0  rom_zephyr_symdefs.txt ABSOLUTE
    _ExcExit                                 0x00022501   Thumb Code     0  rom_zephyr_symdefs.txt ABSOLUTE
    _IntExit                                 0x00022501   Thumb Code     0  rom_zephyr_symdefs.txt ABSOLUTE
    _IntLibInit                              0x00022531   Thumb Code     0  rom_zephyr_symdefs.txt ABSOLUTE
    __pendsv                                 0x00022561   Thumb Code     0  rom_zephyr_symdefs.txt ABSOLUTE
    __svc                                    0x000225bd   Thumb Code     0  rom_zephyr_symdefs.txt ABSOLUTE
    __swap                                   0x000225e5   Thumb Code     0  rom_zephyr_symdefs.txt ABSOLUTE
    dump_stack_data                          0x0002260d   Thumb Code     0  rom_zephyr_symdefs.txt ABSOLUTE
    _Fault                                   0x00022669   Thumb Code     0  rom_zephyr_symdefs.txt ABSOLUTE
    _FaultInit                               0x000226d1   Thumb Code     0  rom_zephyr_symdefs.txt ABSOLUTE
    _arch_irq_enable                         0x000226d5   Thumb Code     0  rom_zephyr_symdefs.txt ABSOLUTE
    _arch_irq_disable                        0x000226e9   Thumb Code     0  rom_zephyr_symdefs.txt ABSOLUTE
    _arch_irq_is_enabled                     0x000226fd   Thumb Code     0  rom_zephyr_symdefs.txt ABSOLUTE
    _irq_priority_set                        0x00022719   Thumb Code     0  rom_zephyr_symdefs.txt ABSOLUTE
    _irq_spurious                            0x0002277d   Thumb Code     0  rom_zephyr_symdefs.txt ABSOLUTE
    _arch_isr_direct_pm                      0x00022785   Thumb Code     0  rom_zephyr_symdefs.txt ABSOLUTE
    _new_thread                              0x000227a9   Thumb Code     0  rom_zephyr_symdefs.txt ABSOLUTE
    _CpuIdleInit                             0x00022801   Thumb Code     0  rom_zephyr_symdefs.txt ABSOLUTE
    _NanoIdleValGet                          0x0002280d   Thumb Code     0  rom_zephyr_symdefs.txt ABSOLUTE
    _NanoIdleValClear                        0x00022819   Thumb Code     0  rom_zephyr_symdefs.txt ABSOLUTE
    k_cpu_idle                               0x00022825   Thumb Code     0  rom_zephyr_symdefs.txt ABSOLUTE
    k_cpu_atomic_idle                        0x0002282d   Thumb Code     0  rom_zephyr_symdefs.txt ABSOLUTE
    __hard_fault                             0x00022839   Thumb Code     0  rom_zephyr_symdefs.txt ABSOLUTE
    __reserved                               0x00022839   Thumb Code     0  rom_zephyr_symdefs.txt ABSOLUTE
    _NanoFatalErrorHandler                   0x00022855   Thumb Code     0  rom_zephyr_symdefs.txt ABSOLUTE
    _do_kernel_oops                          0x000228b9   Thumb Code     0  rom_zephyr_symdefs.txt ABSOLUTE
    _SysFatalErrorHandler                    0x000228c5   Thumb Code     0  rom_zephyr_symdefs.txt ABSOLUTE
    k_thread_abort                           0x00022919   Thumb Code     0  rom_zephyr_symdefs.txt ABSOLUTE
    _isr_wrapper                             0x0002295d   Thumb Code     0  rom_zephyr_symdefs.txt ABSOLUTE
    __reset                                  0x00022995   Thumb Code     0  rom_zephyr_symdefs.txt ABSOLUTE
    __start                                  0x00022995   Thumb Code     0  rom_zephyr_symdefs.txt ABSOLUTE
    _SysNmiOnReset                           0x00022999   Thumb Code     0  rom_zephyr_symdefs.txt ABSOLUTE
    register_sw_isr_table                    0x0002299d   Thumb Code     0  rom_zephyr_symdefs.txt ABSOLUTE
    _PrepC                                   0x000229b9   Thumb Code     0  rom_zephyr_symdefs.txt ABSOLUTE
    sys_arch_reboot                          0x000229f1   Thumb Code     0  rom_zephyr_symdefs.txt ABSOLUTE
    __nmi                                    0x00022a0d   Thumb Code     0  rom_zephyr_symdefs.txt ABSOLUTE
    sys_exc_esf_dump                         0x00022a19   Thumb Code     0  rom_zephyr_symdefs.txt ABSOLUTE
    atomic_cas                               0x00022a81   Thumb Code     0  rom_zephyr_symdefs.txt ABSOLUTE
    atomic_add                               0x00022a9f   Thumb Code     0  rom_zephyr_symdefs.txt ABSOLUTE
    atomic_sub                               0x00022ab5   Thumb Code     0  rom_zephyr_symdefs.txt ABSOLUTE
    atomic_inc                               0x00022acb   Thumb Code     0  rom_zephyr_symdefs.txt ABSOLUTE
    atomic_dec                               0x00022ae1   Thumb Code     0  rom_zephyr_symdefs.txt ABSOLUTE
    atomic_get                               0x00022af7   Thumb Code     0  rom_zephyr_symdefs.txt ABSOLUTE
    atomic_set                               0x00022afb   Thumb Code     0  rom_zephyr_symdefs.txt ABSOLUTE
    atomic_clear                             0x00022b0f   Thumb Code     0  rom_zephyr_symdefs.txt ABSOLUTE
    atomic_or                                0x00022b25   Thumb Code     0  rom_zephyr_symdefs.txt ABSOLUTE
    atomic_xor                               0x00022b3b   Thumb Code     0  rom_zephyr_symdefs.txt ABSOLUTE
    atomic_and                               0x00022b51   Thumb Code     0  rom_zephyr_symdefs.txt ABSOLUTE
    atomic_nand                              0x00022b67   Thumb Code     0  rom_zephyr_symdefs.txt ABSOLUTE
    k_poll_event_init                        0x00022ced   Thumb Code     0  rom_zephyr_symdefs.txt ABSOLUTE
    k_poll                                   0x00022d1d   Thumb Code     0  rom_zephyr_symdefs.txt ABSOLUTE
    _handle_obj_poll_events                  0x00022e49   Thumb Code     0  rom_zephyr_symdefs.txt ABSOLUTE
    k_poll_signal_init                       0x00022e6f   Thumb Code     0  rom_zephyr_symdefs.txt ABSOLUTE
    k_poll_signal                            0x00022e79   Thumb Code     0  rom_zephyr_symdefs.txt ABSOLUTE
    _timer_expiration_handler                0x00022fa1   Thumb Code     0  rom_zephyr_symdefs.txt ABSOLUTE
    k_timer_init                             0x00022ffd   Thumb Code     0  rom_zephyr_symdefs.txt ABSOLUTE
    k_timer_start                            0x00023025   Thumb Code     0  rom_zephyr_symdefs.txt ABSOLUTE
    k_timer_stop                             0x00023071   Thumb Code     0  rom_zephyr_symdefs.txt ABSOLUTE
    k_timer_status_get                       0x000230f9   Thumb Code     0  rom_zephyr_symdefs.txt ABSOLUTE
    k_timer_status_sync                      0x0002310f   Thumb Code     0  rom_zephyr_symdefs.txt ABSOLUTE
    _timeout_remaining_get                   0x00023151   Thumb Code     0  rom_zephyr_symdefs.txt ABSOLUTE
    _OffsetAbsSyms                           0x000231a9   Thumb Code     0  rom_zephyr_symdefs.txt ABSOLUTE
    _idle_thread                             0x00026b70   Data           0  rom_zephyr_symdefs.txt ABSOLUTE
    _main_thread                             0x00026b74   Data           0  rom_zephyr_symdefs.txt ABSOLUTE
    _k_neg_eagain                            0x00026b78   Data           0  rom_zephyr_symdefs.txt ABSOLUTE
    uart_acts_driver_api                     0x00026b7c   Data           0  rom_zephyr_symdefs.txt ABSOLUTE
    acts_spi_driver_api                      0x00026bfc   Data           0  rom_zephyr_symdefs.txt ABSOLUTE
    xspi_nor_api                             0x00026c1c   Data           0  rom_zephyr_symdefs.txt ABSOLUTE
    gpio_acts_drv_api                        0x00026c2c   Data           0  rom_zephyr_symdefs.txt ABSOLUTE
    i2c_acts_driver_api                      0x00026c48   Data           0  rom_zephyr_symdefs.txt ABSOLUTE
    pwm_acts_drv_api_funcs                   0x00026c50   Data           0  rom_zephyr_symdefs.txt ABSOLUTE
    adc_acts_driver_api                      0x00026c58   Data           0  rom_zephyr_symdefs.txt ABSOLUTE
    wdg_acts_api                             0x00026c64   Data           0  rom_zephyr_symdefs.txt ABSOLUTE
    rtc_acts_driver_api                      0x00026cd8   Data           0  rom_zephyr_symdefs.txt ABSOLUTE
    dma_acts_driver_api                      0x00026cf0   Data           0  rom_zephyr_symdefs.txt ABSOLUTE
    mxkeypad_acts_driver_api                 0x00026d0c   Data           0  rom_zephyr_symdefs.txt ABSOLUTE
    adckey_acts_driver_api                   0x00026d1c   Data           0  rom_zephyr_symdefs.txt ABSOLUTE
    gf_wrap                                  0x00026fe8   Data           0  rom_zephyr_symdefs.txt ABSOLUTE
    uuid128_base                             0x000270ec   Data           0  rom_zephyr_symdefs.txt ABSOLUTE
    att_handlers                             0x000274fc   Data           0  rom_zephyr_symdefs.txt ABSOLUTE
    gen_method_legacy                        0x00027803   Data           0  rom_zephyr_symdefs.txt ABSOLUTE
    gen_method_sc                            0x0002781c   Data           0  rom_zephyr_symdefs.txt ABSOLUTE
    sc_debug_public_key                      0x00027835   Data           0  rom_zephyr_symdefs.txt ABSOLUTE
    smp_handlers                             0x00027878   Data           0  rom_zephyr_symdefs.txt ABSOLUTE
    _sys_idle_elapsed_ticks                  0x20000210   Data           0  rom_zephyr_symdefs.txt ABSOLUTE
    sys_clock_hw_cycles_per_sec              0x20000214   Data           0  rom_zephyr_symdefs.txt ABSOLUTE
    sys_clock_hw_cycles_per_tick             0x20000218   Data           0  rom_zephyr_symdefs.txt ABSOLUTE
    sys_clock_us_per_tick                    0x2000021c   Data           0  rom_zephyr_symdefs.txt ABSOLUTE
    _sys_idle_threshold_ticks                0x20000220   Data           0  rom_zephyr_symdefs.txt ABSOLUTE
    num_mbox_async_msgs                      0x20000224   Data           0  rom_zephyr_symdefs.txt ABSOLUTE
    num_pipe_async_msgs                      0x20000225   Data           0  rom_zephyr_symdefs.txt ABSOLUTE
    uart_console_on_dev_name                 0x20000228   Data           0  rom_zephyr_symdefs.txt ABSOLUTE
    llcc_power_mode                          0x20000244   Data           0  rom_zephyr_symdefs.txt ABSOLUTE
    llcc_tx_power_level                      0x20000245   Data           0  rom_zephyr_symdefs.txt ABSOLUTE
    final_board_tx_trim_efuse                0x20000248   Data           0  rom_zephyr_symdefs.txt ABSOLUTE
    bt_conn_update_timeout                   0x20000274   Data           0  rom_zephyr_symdefs.txt ABSOLUTE
    bt_dev                                   0x20000278   Data           0  rom_zephyr_symdefs.txt ABSOLUTE
    bt_rpa_timeout                           0x20000390   Data           0  rom_zephyr_symdefs.txt ABSOLUTE
    featuresCfgMask                          0x20000394   Data           0  rom_zephyr_symdefs.txt ABSOLUTE
    conn_change                              0x20000398   Data           0  rom_zephyr_symdefs.txt ABSOLUTE
    l2cap_le_max_credits                     0x200003b4   Data           0  rom_zephyr_symdefs.txt ABSOLUTE
    p_att_handlers                           0x200003ec   Data           0  rom_zephyr_symdefs.txt ABSOLUTE
    size_of_att_handlers                     0x200003f0   Data           0  rom_zephyr_symdefs.txt ABSOLUTE
    gap_attrs                                0x20000454   Data           0  rom_zephyr_symdefs.txt ABSOLUTE
    gap_name                                 0x200004b8   Data           0  rom_zephyr_symdefs.txt ABSOLUTE
    gap_svc                                  0x200004bc   Data           0  rom_zephyr_symdefs.txt ABSOLUTE
    gatt_attrs                               0x200004c8   Data           0  rom_zephyr_symdefs.txt ABSOLUTE
    gatt_svc                                 0x20000518   Data           0  rom_zephyr_symdefs.txt ABSOLUTE
    len_gap_name                             0x20000524   Data           0  rom_zephyr_symdefs.txt ABSOLUTE
    bt_recv_keys                             0x20000526   Data           0  rom_zephyr_symdefs.txt ABSOLUTE
    bt_recv_keys_sc                          0x20000527   Data           0  rom_zephyr_symdefs.txt ABSOLUTE
    bt_send_keys                             0x20000528   Data           0  rom_zephyr_symdefs.txt ABSOLUTE
    bt_send_keys_sc                          0x20000529   Data           0  rom_zephyr_symdefs.txt ABSOLUTE
    bt_smp_auth_flag                         0x2000052a   Data           0  rom_zephyr_symdefs.txt ABSOLUTE
    bt_smp_max_key_size                      0x2000052b   Data           0  rom_zephyr_symdefs.txt ABSOLUTE
    bt_smp_min_key_size                      0x2000052c   Data           0  rom_zephyr_symdefs.txt ABSOLUTE
    p_smp_handlers                           0x20000550   Data           0  rom_zephyr_symdefs.txt ABSOLUTE
    size_of_smp_handlers                     0x2000055c   Data           0  rom_zephyr_symdefs.txt ABSOLUTE
    use_hci_le_encrypt                       0x20000580   Data           0  rom_zephyr_symdefs.txt ABSOLUTE
    syslog_hook                              0x20000588   Data           0  rom_zephyr_symdefs.txt ABSOLUTE
    system_core_clock                        0x2000058c   Data           0  rom_zephyr_symdefs.txt ABSOLUTE
    xtal_32k_timeout                         0x20000594   Data           0  rom_zephyr_symdefs.txt ABSOLUTE
    __device_busy_start                      0x20000598   Data           0  rom_zephyr_symdefs.txt ABSOLUTE
    nvram_lock                               0x20000598   Data           0  rom_zephyr_symdefs.txt ABSOLUTE
    _time_slice_duration                     0x200005c0   Data           0  rom_zephyr_symdefs.txt ABSOLUTE
    _time_slice_prio_ceiling                 0x200005c4   Data           0  rom_zephyr_symdefs.txt ABSOLUTE
    _kernel                                  0x2000069c   Data           0  rom_zephyr_symdefs.txt ABSOLUTE
    platformWakeLock                         0x2000085c   Data           0  rom_zephyr_symdefs.txt ABSOLUTE
    free_tx                                  0x200008c0   Data           0  rom_zephyr_symdefs.txt ABSOLUTE
    sc_ccc_cfg                               0x200008cc   Data           0  rom_zephyr_symdefs.txt ABSOLUTE
    bt_oob_flag                              0x200008ec   Data           0  rom_zephyr_symdefs.txt ABSOLUTE
    application_wake_lock                    0x200008f8   Data           0  rom_zephyr_symdefs.txt ABSOLUTE
    _trace_list_k_alert                      0x20000980   Data           0  rom_zephyr_symdefs.txt ABSOLUTE
    _outer_k_mem_pool_list_end               0x20000984   Data           0  rom_zephyr_symdefs.txt ABSOLUTE
    _main_stack_size                         0x20000988   Data           0  rom_zephyr_symdefs.txt ABSOLUTE
    _sys_pm_idle_exit_notify                 0x2000098c   Data           0  rom_zephyr_symdefs.txt ABSOLUTE
    _p_idle_stack                            0x20000990   Data           0  rom_zephyr_symdefs.txt ABSOLUTE
    pipe_async_msg                           0x20000998   Data           0  rom_zephyr_symdefs.txt ABSOLUTE
    p_pipe_async_msgs                        0x2000099c   Data           0  rom_zephyr_symdefs.txt ABSOLUTE
    sys_work_queue_stack_size                0x200009a0   Data           0  rom_zephyr_symdefs.txt ABSOLUTE
    _handling_timeouts                       0x200009a4   Data           0  rom_zephyr_symdefs.txt ABSOLUTE
    _time_slice_elapsed                      0x200009a8   Data           0  rom_zephyr_symdefs.txt ABSOLUTE
    _p_main_stack                            0x200009ac   Data           0  rom_zephyr_symdefs.txt ABSOLUTE
    pkernel_config_init                      0x200009b0   Data           0  rom_zephyr_symdefs.txt ABSOLUTE
    _idle_thread_stack_size                  0x200009b4   Data           0  rom_zephyr_symdefs.txt ABSOLUTE
    DEVICE_BUSY_SIZE                         0x200009b8   Data           0  rom_zephyr_symdefs.txt ABSOLUTE
    _sys_clock_tick_count                    0x200009c0   Data           0  rom_zephyr_symdefs.txt ABSOLUTE
    p_async_msg_free                         0x200009c8   Data           0  rom_zephyr_symdefs.txt ABSOLUTE
    k_sys_work_q                             0x200009cc   Data           0  rom_zephyr_symdefs.txt ABSOLUTE
    _outer_k_mem_pool_list_start             0x20000a44   Data           0  rom_zephyr_symdefs.txt ABSOLUTE
    async_msg                                0x20000a48   Data           0  rom_zephyr_symdefs.txt ABSOLUTE
    _p_main_stack_end                        0x20000a4c   Data           0  rom_zephyr_symdefs.txt ABSOLUTE
    _main_thread_prio                        0x20000a54   Data           0  rom_zephyr_symdefs.txt ABSOLUTE
    _idle_thread_prio                        0x20000a58   Data           0  rom_zephyr_symdefs.txt ABSOLUTE
    sys_work_queue_prio                      0x20000a5c   Data           0  rom_zephyr_symdefs.txt ABSOLUTE
    p_sys_work_queue_stack                   0x20000a60   Data           0  rom_zephyr_symdefs.txt ABSOLUTE
    _p_interrupt_stack                       0x20000a70   Data           0  rom_zephyr_symdefs.txt ABSOLUTE
    _interrupt_stack_size                    0x20000a74   Data           0  rom_zephyr_symdefs.txt ABSOLUTE
    llcc_hci_dev                             0x20000a7c   Data           0  rom_zephyr_symdefs.txt ABSOLUTE
    p_tx_timer                               0x20000a80   Data           0  rom_zephyr_symdefs.txt ABSOLUTE
    ic_trim_efuse                            0x20000a84   Data           0  rom_zephyr_symdefs.txt ABSOLUTE
    nvram_buf                                0x20000a88   Data           0  rom_zephyr_symdefs.txt ABSOLUTE
    p_BleLlcInit                             0x20000a8c   Data           0  rom_zephyr_symdefs.txt ABSOLUTE
    tx_trim_aband_efuse                      0x20000a90   Data           0  rom_zephyr_symdefs.txt ABSOLUTE
    p_rx_timer                               0x20000a94   Data           0  rom_zephyr_symdefs.txt ABSOLUTE
    p_llcc_upload_tx_trim                    0x20000a98   Data           0  rom_zephyr_symdefs.txt ABSOLUTE
    final_board_trim_efuse                   0x20000a9c   Data           0  rom_zephyr_symdefs.txt ABSOLUTE
    user_nvram_region                        0x20000aa0   Data           0  rom_zephyr_symdefs.txt ABSOLUTE
    factory_nvram_region                     0x20000ac0   Data           0  rom_zephyr_symdefs.txt ABSOLUTE
    prepare_hook                             0x20000ae0   Data           0  rom_zephyr_symdefs.txt ABSOLUTE
    llcc_tx_trim_mode                        0x20000ae4   Data           0  rom_zephyr_symdefs.txt ABSOLUTE
    p_llc_init_trim_upload                   0x20000ae8   Data           0  rom_zephyr_symdefs.txt ABSOLUTE
    hci_stats                                0x20000aec   Data           0  rom_zephyr_symdefs.txt ABSOLUTE
    final_board_trim_count                   0x20000b1e   Data           0  rom_zephyr_symdefs.txt ABSOLUTE
    p_llcc_compose_trim                      0x20000b20   Data           0  rom_zephyr_symdefs.txt ABSOLUTE
    local_llcc_rdcb                          0x20000b24   Data           0  rom_zephyr_symdefs.txt ABSOLUTE
    board_trim_efuse                         0x20000b28   Data           0  rom_zephyr_symdefs.txt ABSOLUTE
    ic_trim_count                            0x20000b2c   Data           0  rom_zephyr_symdefs.txt ABSOLUTE
    llc_hci_cb                               0x20000b30   Data           0  rom_zephyr_symdefs.txt ABSOLUTE
    p_llccTxCmdCrc                           0x20000b8c   Data           0  rom_zephyr_symdefs.txt ABSOLUTE
    tx_trim_count                            0x20000b90   Data           0  rom_zephyr_symdefs.txt ABSOLUTE
    p_llc_init_all_trim_upload               0x20000b94   Data           0  rom_zephyr_symdefs.txt ABSOLUTE
    tx_trim_aband_count                      0x20000b98   Data           0  rom_zephyr_symdefs.txt ABSOLUTE
    p_LlcReset                               0x20000b9c   Data           0  rom_zephyr_symdefs.txt ABSOLUTE
    board_trim_count                         0x20000ba0   Data           0  rom_zephyr_symdefs.txt ABSOLUTE
    p_llcc_write                             0x20000ba4   Data           0  rom_zephyr_symdefs.txt ABSOLUTE
    local_llcc_txcb                          0x20000ba8   Data           0  rom_zephyr_symdefs.txt ABSOLUTE
    p_llcInitFirmwareUpload                  0x20000bac   Data           0  rom_zephyr_symdefs.txt ABSOLUTE
    tx_trim_efuse                            0x20000bb0   Data           0  rom_zephyr_symdefs.txt ABSOLUTE
    wdg_use_systick                          0x20000bb4   Data           0  rom_zephyr_symdefs.txt ABSOLUTE
    deepsleep_elapsed_compensation           0x20000bb8   Data           0  rom_zephyr_symdefs.txt ABSOLUTE
    bt_smp_pool_count                        0x20000bc0   Data           0  rom_zephyr_symdefs.txt ABSOLUTE
    bt_auth                                  0x20000bc4   Data           0  rom_zephyr_symdefs.txt ABSOLUTE
    enable_debug_gatt                        0x20000bc8   Data           0  rom_zephyr_symdefs.txt ABSOLUTE
    enable_debug_smp                         0x20000bc9   Data           0  rom_zephyr_symdefs.txt ABSOLUTE
    pub_key_cb                               0x20000bcc   Data           0  rom_zephyr_symdefs.txt ABSOLUTE
    enable_debug_att                         0x20000bd0   Data           0  rom_zephyr_symdefs.txt ABSOLUTE
    servers                                  0x20000bd4   Data           0  rom_zephyr_symdefs.txt ABSOLUTE
    enable_debug_keys                        0x20000bdc   Data           0  rom_zephyr_symdefs.txt ABSOLUTE
    scan_with_identity_is_enabled            0x20000be0   Data           0  rom_zephyr_symdefs.txt ABSOLUTE
    enable_debug_l2cap                       0x20000be4   Data           0  rom_zephyr_symdefs.txt ABSOLUTE
    p_sc_ccc_cfg                             0x20000be8   Data           0  rom_zephyr_symdefs.txt ABSOLUTE
    db                                       0x20000bec   Data           0  rom_zephyr_symdefs.txt ABSOLUTE
    rx_thread_prio                           0x20000bf4   Data           0  rom_zephyr_symdefs.txt ABSOLUTE
    NUM_OF_SHELL_ENTITIES                    0x20000bf8   Data           0  rom_zephyr_symdefs.txt ABSOLUTE
    bt_storage                               0x20000bfc   Data           0  rom_zephyr_symdefs.txt ABSOLUTE
    sc_supported                             0x20000c00   Data           0  rom_zephyr_symdefs.txt ABSOLUTE
    scan_dev_found_cb                        0x20000c04   Data           0  rom_zephyr_symdefs.txt ABSOLUTE
    dh_key_cb                                0x20000c08   Data           0  rom_zephyr_symdefs.txt ABSOLUTE
    __shell_cmd_start                        0x20000c0c   Data           0  rom_zephyr_symdefs.txt ABSOLUTE
    is_enable_private                        0x20000c10   Data           0  rom_zephyr_symdefs.txt ABSOLUTE
    is_enable_smp                            0x20000c14   Data           0  rom_zephyr_symdefs.txt ABSOLUTE
    p_hci_rx_pool_array                      0x20000c18   Data           0  rom_zephyr_symdefs.txt ABSOLUTE
    enable_debug_conn                        0x20000c1c   Data           0  rom_zephyr_symdefs.txt ABSOLUTE
    rx_thread_stack_size                     0x20000c20   Data           0  rom_zephyr_symdefs.txt ABSOLUTE
    p_update_cfg                             0x20000c24   Data           0  rom_zephyr_symdefs.txt ABSOLUTE
    l2cap_max_le_mtu                         0x20000c28   Data           0  rom_zephyr_symdefs.txt ABSOLUTE
    patch_bt_hex                             0x20000c2c   Data           0  rom_zephyr_symdefs.txt ABSOLUTE
    le_channels                              0x20000c30   Data           0  rom_zephyr_symdefs.txt ABSOLUTE
    gap_appearance                           0x20000c38   Data           0  rom_zephyr_symdefs.txt ABSOLUTE
    p_prep_pool                              0x20000c3c   Data           0  rom_zephyr_symdefs.txt ABSOLUTE
    enable_debug_hci_core                    0x20000c40   Data           0  rom_zephyr_symdefs.txt ABSOLUTE
    pbt_host_config_init                     0x20000c44   Data           0  rom_zephyr_symdefs.txt ABSOLUTE
    bt_l2cap_pool_count                      0x20000c48   Data           0  rom_zephyr_symdefs.txt ABSOLUTE
    p_bt_l2cap_pool                          0x20000c4c   Data           0  rom_zephyr_symdefs.txt ABSOLUTE
    p_rx_thread_stack                        0x20000c50   Data           0  rom_zephyr_symdefs.txt ABSOLUTE
    p_hci_cmd_pool                           0x20000c54   Data           0  rom_zephyr_symdefs.txt ABSOLUTE
    p_bt_smp_null_pool                       0x20000c58   Data           0  rom_zephyr_symdefs.txt ABSOLUTE
    p_conns                                  0x20000c5c   Data           0  rom_zephyr_symdefs.txt ABSOLUTE
    bt_smp_null_pool_count                   0x20000c60   Data           0  rom_zephyr_symdefs.txt ABSOLUTE
    prng                                     0x20000c68   Data           0  rom_zephyr_symdefs.txt ABSOLUTE
    bt_keys_storage                          0x20000da0   Data           0  rom_zephyr_symdefs.txt ABSOLUTE
    att_tx_max                               0x20000da4   Data           0  rom_zephyr_symdefs.txt ABSOLUTE
    bt_max_paired                            0x20000da8   Data           0  rom_zephyr_symdefs.txt ABSOLUTE
    _outer_net_buf_pool_list                 0x20000dac   Data           0  rom_zephyr_symdefs.txt ABSOLUTE
    bt_req_pool_count                        0x20000db0   Data           0  rom_zephyr_symdefs.txt ABSOLUTE
    tx_thread_stack_size                     0x20000db4   Data           0  rom_zephyr_symdefs.txt ABSOLUTE
    conn_tx_num                              0x20000db8   Data           0  rom_zephyr_symdefs.txt ABSOLUTE
    p_acl_tx_pool                            0x20000dbc   Data           0  rom_zephyr_symdefs.txt ABSOLUTE
    patch_table                              0x20000dc0   Data           0  rom_zephyr_symdefs.txt ABSOLUTE
    hci_rx_pool_num                          0x20000de0   Data           0  rom_zephyr_symdefs.txt ABSOLUTE
    sc_local_pkey_valid                      0x20000de4   Data           0  rom_zephyr_symdefs.txt ABSOLUTE
    p_tx_thread_stack                        0x20000de8   Data           0  rom_zephyr_symdefs.txt ABSOLUTE
    p_events                                 0x20000dec   Data           0  rom_zephyr_symdefs.txt ABSOLUTE
    p_cmds_queue                             0x20000df0   Data           0  rom_zephyr_symdefs.txt ABSOLUTE
    sc_public_key                            0x20000df4   Data           0  rom_zephyr_symdefs.txt ABSOLUTE
    Use_static_random_addr                   0x20000e34   Data           0  rom_zephyr_symdefs.txt ABSOLUTE
    callback_list                            0x20000e38   Data           0  rom_zephyr_symdefs.txt ABSOLUTE
    delay_time_extra_update                  0x20000e3c   Data           0  rom_zephyr_symdefs.txt ABSOLUTE
    bt_att_mtu                               0x20000e40   Data           0  rom_zephyr_symdefs.txt ABSOLUTE
    prompt                                   0x20000e44   Data           0  rom_zephyr_symdefs.txt ABSOLUTE
    tx_thread_data                           0x20000e48   Data           0  rom_zephyr_symdefs.txt ABSOLUTE
    hciVsCb                                  0x20000eb0   Data           0  rom_zephyr_symdefs.txt ABSOLUTE
    __shell_cmd_end                          0x20000eec   Data           0  rom_zephyr_symdefs.txt ABSOLUTE
    key_pool                                 0x20000ef0   Data           0  rom_zephyr_symdefs.txt ABSOLUTE
    p_avail_queue                            0x20000ef4   Data           0  rom_zephyr_symdefs.txt ABSOLUTE
    gatt_sc                                  0x20000ef8   Data           0  rom_zephyr_symdefs.txt ABSOLUTE
    bt_att_prepare_count                     0x20000f50   Data           0  rom_zephyr_symdefs.txt ABSOLUTE
    ready_cb                                 0x20000f54   Data           0  rom_zephyr_symdefs.txt ABSOLUTE
    pub_key                                  0x20000f58   Data           0  rom_zephyr_symdefs.txt ABSOLUTE
    bt_conn_num                              0x20000f98   Data           0  rom_zephyr_symdefs.txt ABSOLUTE
    l2cap_max_le_mps                         0x20000f9c   Data           0  rom_zephyr_symdefs.txt ABSOLUTE
    MAX_CMD_QUEUED                           0x20000fa0   Data           0  rom_zephyr_symdefs.txt ABSOLUTE
    subscriptions                            0x20000fa4   Data           0  rom_zephyr_symdefs.txt ABSOLUTE
    p_bt_smp_pool                            0x20000fac   Data           0  rom_zephyr_symdefs.txt ABSOLUTE
    tx_thread_prio                           0x20000fb0   Data           0  rom_zephyr_symdefs.txt ABSOLUTE
    p_conn_tx                                0x20000fb4   Data           0  rom_zephyr_symdefs.txt ABSOLUTE
    default_module_prompt                    0x20000fb8   Data           0  rom_zephyr_symdefs.txt ABSOLUTE
    shell_buf                                0x20000fbc   Data           0  rom_zephyr_symdefs.txt ABSOLUTE
    p_bt_req_pool                            0x20000fc0   Data           0  rom_zephyr_symdefs.txt ABSOLUTE
    efuse_cmu_pmu_val                        0x20000fc4   Data           0  rom_zephyr_symdefs.txt ABSOLUTE
    set_xtal_32k_flag                        0x20000fc8   Data           0  rom_zephyr_symdefs.txt ABSOLUTE
    p_deep_sleep_entry                       0x20000fcc   Data           0  rom_zephyr_symdefs.txt ABSOLUTE
    p_sys_soc_suspend                        0x20000fd0   Data           0  rom_zephyr_symdefs.txt ABSOLUTE
    _sw_isr_table_in_ram                     0x20000fd4   Data           0  rom_zephyr_symdefs.txt ABSOLUTE
    hcl_32k_is_running                       0x20000fdc   Data           0  rom_zephyr_symdefs.txt ABSOLUTE
    p_application_any_busy_check             0x20000fe0   Data           0  rom_zephyr_symdefs.txt ABSOLUTE
    Image$$ER_IROM$$Base                     0x20001000   Number         0  anon$$obj.o ABSOLUTE
    systemVectors                            0x20001000   Data           4  startup.o(RESET)
    __main                                   0x200010e1   Thumb Code     0  entry.o(.ARM.Collect$$$$00000000)
    _main_stk                                0x200010e1   Thumb Code     0  entry2.o(.ARM.Collect$$$$00000001)
    _main_scatterload                        0x200010e5   Thumb Code     0  entry5.o(.ARM.Collect$$$$00000004)
    __main_after_scatterload                 0x200010e9   Thumb Code     0  entry5.o(.ARM.Collect$$$$00000004)
    _main_clock                              0x200010e9   Thumb Code     0  entry7b.o(.ARM.Collect$$$$00000008)
    _main_cpp_init                           0x200010e9   Thumb Code     0  entry8b.o(.ARM.Collect$$$$0000000A)
    _main_init                               0x200010e9   Thumb Code     0  entry9a.o(.ARM.Collect$$$$0000000B)
    __rt_final_cpp                           0x200010f1   Thumb Code     0  entry10a.o(.ARM.Collect$$$$0000000D)
    __rt_final_exit                          0x200010f1   Thumb Code     0  entry11a.o(.ARM.Collect$$$$0000000F)
    patch_hw_func                            0x200010f5   Thumb Code    94  soc_patch.o(.init.once.text."..\\..\\..\\..\\arch\\soc\\atb110x\\soc_patch.c".0)
    patch_hw_code                            0x20001181   Thumb Code    86  soc_patch.o(.init.once.text."..\\..\\..\\..\\arch\\soc\\atb110x\\soc_patch.c".1)
    patch_sw                                 0x20001205   Thumb Code     8  soc_patch.o(.init.once.text."..\\..\\..\\..\\arch\\soc\\atb110x\\soc_patch.c".2)
    set_ic_feature                           0x2000120d   Thumb Code    36  board.o(.init.once.text."..\\..\\..\\..\\boards\\board.c".1)
    board_early_init                         0x20001235   Thumb Code   116  board.o(.init.once.text."..\\..\\..\\..\\boards\\board.c".2)
    SystemInit                               0x200012f1   Thumb Code    16  system.o(.init.once.text."..\\..\\..\\..\\ext\\lib\\actions\\startup\\system.c".0)
    kernel_config_init                       0x20001305   Thumb Code   124  kernel_config_init.o(.init.once.text."..\\..\\..\\..\\kernel\\kernel_config_init.c".4)
    Reset_Handler                            0x200013b9   Thumb Code    36  startup.o(.text)
    _arch_irq_lock_s                         0x200013dd   Thumb Code     8  startup.o(.text)
    _arch_irq_unlock_s                       0x200013e5   Thumb Code     8  startup.o(.text)
    _timer_int_handler                       0x200013f5   Thumb Code     2  startup.o(.text)
    __aeabi_memset                           0x20001411   Thumb Code    14  memseta.o(.text)
    __aeabi_memset4                          0x20001411   Thumb Code     0  memseta.o(.text)
    __aeabi_memset8                          0x20001411   Thumb Code     0  memseta.o(.text)
    __aeabi_memclr                           0x2000141f   Thumb Code     4  memseta.o(.text)
    __aeabi_memclr4                          0x2000141f   Thumb Code     0  memseta.o(.text)
    __aeabi_memclr8                          0x2000141f   Thumb Code     0  memseta.o(.text)
    _memset$wrapper                          0x20001423   Thumb Code    18  memseta.o(.text)
    __aeabi_fmul                             0x20001435   Thumb Code   122  fmul.o(.text)
    __aeabi_fdiv                             0x200014af   Thumb Code   124  fdiv.o(.text)
    __aeabi_ui2f                             0x2000152b   Thumb Code    14  ffltui.o(.text)
    __aeabi_f2uiz                            0x20001539   Thumb Code    40  ffixui.o(.text)
    __I$use$fp                               0x20001561   Thumb Code     0  iusefp.o(.text)
    _float_round                             0x20001561   Thumb Code    16  fepilogue.o(.text)
    _float_epilogue                          0x20001571   Thumb Code   114  fepilogue.o(.text)
    __scatterload                            0x200015e5   Thumb Code    28  init.o(.text)
    __scatterload_rt2                        0x200015e5   Thumb Code     0  init.o(.text)
    Long Thumb to Thumb Veneer to printk     0x20001609   Thumb Code    12  anon$$obj.o(Veneer$$Code)
    Long Thumb to Thumb Veneer to acts_efuse_read 0x20001615   Thumb Code    12  anon$$obj.o(Veneer$$Code)
    Long Thumb to Thumb Veneer to acts_set_vdd 0x20001621   Thumb Code    12  anon$$obj.o(Veneer$$Code)
    Long Thumb to Thumb Veneer to acts_delay_us 0x2000162d   Thumb Code    12  anon$$obj.o(Veneer$$Code)
    Long Thumb to Thumb Veneer to acts_request_vd12_pd 0x20001639   Thumb Code    12  anon$$obj.o(Veneer$$Code)
    Long Thumb to Thumb Veneer to acts_request_vd12_largebias 0x20001645   Thumb Code    12  anon$$obj.o(Veneer$$Code)
    Long Thumb to Thumb Veneer to acts_request_rc_3M 0x20001651   Thumb Code    12  anon$$obj.o(Veneer$$Code)
    Long Thumb to Thumb Veneer to acts_pinmux_setup_pins 0x2000165d   Thumb Code    12  anon$$obj.o(Veneer$$Code)
    Long Thumb to Thumb Veneer to _irq_priority_set 0x20001669   Thumb Code    12  anon$$obj.o(Veneer$$Code)
    Long Thumb to Thumb Veneer to _arch_irq_enable 0x20001675   Thumb Code    12  anon$$obj.o(Veneer$$Code)
    Long Thumb to Thumb Veneer to main_thread_init 0x20001681   Thumb Code    12  anon$$obj.o(Veneer$$Code)
    Long Thumb to Thumb Veneer to idle_thread_init 0x2000168d   Thumb Code    12  anon$$obj.o(Veneer$$Code)
    Long Thumb to Thumb Veneer to interrupt_stack_init 0x20001699   Thumb Code    12  anon$$obj.o(Veneer$$Code)
    Long Thumb to Thumb Veneer to sys_work_queue_init 0x200016a5   Thumb Code    12  anon$$obj.o(Veneer$$Code)
    Long Thumb to Thumb Veneer to __aeabi_uidivmod 0x200016b1   Thumb Code    12  anon$$obj.o(Veneer$$Code)
    Long Thumb to Thumb Veneer to _arch_irq_disable 0x200016bd   Thumb Code    12  anon$$obj.o(Veneer$$Code)
    Long Thumb to Thumb Veneer to app_get_wake_lock 0x200016c9   Thumb Code    12  anon$$obj.o(Veneer$$Code)
    Long Thumb to Thumb Veneer to k_sleep    0x200016d5   Thumb Code    12  anon$$obj.o(Veneer$$Code)
    Long Thumb to Thumb Veneer to app_release_wake_lock 0x200016e1   Thumb Code    12  anon$$obj.o(Veneer$$Code)
    Long Thumb to Thumb Veneer to k_timer_init 0x200016ed   Thumb Code    12  anon$$obj.o(Veneer$$Code)
    Long Thumb to Thumb Veneer to k_timer_start 0x200016f9   Thumb Code    12  anon$$obj.o(Veneer$$Code)
    Long Thumb to Thumb Veneer to _timer_deepsleep_enter 0x20001705   Thumb Code    12  anon$$obj.o(Veneer$$Code)
    Long Thumb to Thumb Veneer to _timer_deepsleep_exit 0x20001711   Thumb Code    12  anon$$obj.o(Veneer$$Code)
    Long Thumb to Thumb Veneer to atomic_get 0x2000171d   Thumb Code    12  anon$$obj.o(Veneer$$Code)
    Long Thumb to Thumb Veneer to __aeabi_idivmod 0x20001729   Thumb Code    12  anon$$obj.o(Veneer$$Code)
    Long Thumb to Thumb Veneer to atomic_and 0x20001735   Thumb Code    12  anon$$obj.o(Veneer$$Code)
    Long Thumb to Thumb Veneer to atomic_or  0x20001741   Thumb Code    12  anon$$obj.o(Veneer$$Code)
    Long Thumb to Thumb Veneer to strcmp     0x2000174d   Thumb Code    12  anon$$obj.o(Veneer$$Code)
    Long Thumb to Thumb Veneer to _PrepC     0x20001759   Thumb Code    12  anon$$obj.o(Veneer$$Code)
    Long Thumb to Thumb Veneer to acts_clock_peripheral_enable 0x20001765   Thumb Code    12  anon$$obj.o(Veneer$$Code)
    Long Thumb to Thumb Veneer to acts_reset_peripheral 0x20001771   Thumb Code    12  anon$$obj.o(Veneer$$Code)
    Long Thumb to Thumb Veneer to acts_clock_peripheral_disable 0x2000177d   Thumb Code    12  anon$$obj.o(Veneer$$Code)
    Long Thumb to Thumb Veneer to uart_console_init 0x20001789   Thumb Code    12  anon$$obj.o(Veneer$$Code)
    __scatterload_copy                       0x20001795   Thumb Code    14  handlers.o(i.__scatterload_copy)
    __scatterload_null                       0x200017a3   Thumb Code     2  handlers.o(i.__scatterload_null)
    __scatterload_zeroinit                   0x200017a5   Thumb Code    14  handlers.o(i.__scatterload_zeroinit)
    _ms_to_cycle                             0x20001829   Thumb Code    64  timer_acts.o(i._ms_to_cycle)
    _sys_device_do_config_level              0x2000186d   Thumb Code    36  device.o(i._sys_device_do_config_level)
    _sys_soc_suspend_new                     0x200018f9   Thumb Code    74  soc_pm.o(i._sys_soc_suspend_new)
    adc_acts_read_new                        0x20001949   Thumb Code   170  adc_acts.o(i.adc_acts_read_new)
    adc_batt_val_read                        0x200019f5   Thumb Code     6  app_batt.o(i.adc_batt_val_read)
    adckey_acts_disable_new                  0x20001a01   Thumb Code    30  adckey_acts.o(i.adckey_acts_disable_new)
    adckey_acts_enable_new                   0x20001a1f   Thumb Code    42  adckey_acts.o(i.adckey_acts_enable_new)
    adckey_acts_get_keycode_new              0x20001a49   Thumb Code    88  adckey_acts.o(i.adckey_acts_get_keycode_new)
    adckey_acts_init_new                     0x20001aa9   Thumb Code   228  adckey_acts.o(i.adckey_acts_init_new)
    adckey_acts_irq_config                   0x20001bb9   Thumb Code    40  adckey_acts.o(i.adckey_acts_irq_config)
    adckey_acts_poll_new                     0x20001c05   Thumb Code   224  adckey_acts.o(i.adckey_acts_poll_new)
    adckey_acts_register_notify_new          0x20001ce9   Thumb Code     6  adckey_acts.o(i.adckey_acts_register_notify_new)
    adckey_acts_report_key_new               0x20001cef   Thumb Code    34  adckey_acts.o(i.adckey_acts_report_key_new)
    adckey_acts_resume_device_from_suspend   0x20001d11   Thumb Code    16  adckey_acts.o(i.adckey_acts_resume_device_from_suspend)
    adckey_acts_suspend_device               0x20001d25   Thumb Code    24  adckey_acts.o(i.adckey_acts_suspend_device)
    adckey_acts_unregister_notify_new        0x20001d41   Thumb Code    10  adckey_acts.o(i.adckey_acts_unregister_notify_new)
    adckey_acts_wakeup_isr                   0x20001d4d   Thumb Code    64  adckey_acts.o(i.adckey_acts_wakeup_isr)
    adckey_input_notify                      0x20001dc1   Thumb Code    18  main.o(i.adckey_input_notify)
    adckey_timer_start                       0x20001df9   Thumb Code    44  adckey_acts.o(i.adckey_timer_start)
    adckey_timer_stop                        0x20001e39   Thumb Code    38  adckey_acts.o(i.adckey_timer_stop)
    app_main                                 0x20001ecd   Thumb Code    68  main.o(i.app_main)
    batt_manager_init                        0x20001f49   Thumb Code    28  app_batt.o(i.batt_manager_init)
    batt_timer_handler                       0x20001f71   Thumb Code    10  app_batt.o(i.batt_timer_handler)
    debug_uart_init                          0x20001fb9   Thumb Code   150  system.o(i.debug_uart_init)
    debug_uart_put_char                      0x20002061   Thumb Code    50  system.o(i.debug_uart_put_char)
    deep_sleep_entry                         0x20002099   Thumb Code    42  soc_pm.o(i.deep_sleep_entry)
    device_any_busy_check                    0x2000211d   Thumb Code    54  device.o(i.device_any_busy_check)
    device_busy_clear_new                    0x20002159   Thumb Code    44  device.o(i.device_busy_clear_new)
    device_busy_set_new                      0x2000218d   Thumb Code    44  device.o(i.device_busy_set_new)
    device_get_binding                       0x200021c1   Thumb Code    44  device.o(i.device_get_binding)
    get_key_handle                           0x200021f9   Thumb Code    32  main.o(i.get_key_handle)
    key_device_open                          0x2000221d   Thumb Code    74  main.o(i.key_device_open)
    low_power_led_indication                 0x20002267   Thumb Code     2  app_batt.o(i.low_power_led_indication)
    main                                     0x20002279   Thumb Code    28  entry.o(i.main)
    new_k_delayed_work_cancel                0x200022a9   Thumb Code   152  system_work_q.o(i.new_k_delayed_work_cancel)
    patch_sys_soc_suspend                    0x20002341   Thumb Code     8  soc_pm.o(i.patch_sys_soc_suspend)
    resume_devices                           0x20002405   Thumb Code    18  soc_pm.o(i.resume_devices)
    set_devices_state                        0x20002471   Thumb Code    44  device.o(i.set_devices_state)
    suspend_devices                          0x200024a9   Thumb Code    18  soc_pm.o(i.suspend_devices)
    timer_acts_callback_set                  0x20002577   Thumb Code     6  timer_acts.o(i.timer_acts_callback_set)
    timer_acts_config_irq                    0x2000257d   Thumb Code    48  timer_acts.o(i.timer_acts_config_irq)
    timer_acts_init                          0x200025b9   Thumb Code    48  timer_acts.o(i.timer_acts_init)
    timer_acts_isr                           0x200025e9   Thumb Code    80  timer_acts.o(i.timer_acts_isr)
    timer_acts_start                         0x20002639   Thumb Code    58  timer_acts.o(i.timer_acts_start)
    timer_acts_stop                          0x20002673   Thumb Code    38  timer_acts.o(i.timer_acts_stop)
    timer_acts_user_data_get                 0x20002699   Thumb Code     8  timer_acts.o(i.timer_acts_user_data_get)
    timer_acts_user_data_set                 0x200026a1   Thumb Code     6  timer_acts.o(i.timer_acts_user_data_set)
    uart_acts_resume_device_from_suspend     0x200026d5   Thumb Code    50  uart_acts.o(i.uart_acts_resume_device_from_suspend)
    uart_acts_suspend_device                 0x20002707   Thumb Code    40  uart_acts.o(i.uart_acts_suspend_device)
    uart_console_init_new                    0x20002731   Thumb Code    18  uart_console.o(i.uart_console_init_new)
    update_adckey_map                        0x2000277d   Thumb Code    48  adckey_acts.o(i.update_adckey_map)
    update_battry_value                      0x200027ad   Thumb Code   230  app_batt.o(i.update_battry_value)
    very_low_power_handler                   0x20002905   Thumb Code     2  app_batt.o(i.very_low_power_handler)
    timer_acts_drv_api                       0x20002940   Data          20  timer_acts.o(.constdata)
    adc_acts_cdata                           0x20002954   Data           8  adc_acts.o(.constdata)
    adc_acts_driver_api_new                  0x2000295c   Data          12  adc_acts.o(.constdata)
    adckey_acts_driver_api_new               0x20002968   Data          16  adckey_acts.o(.constdata)
    Region$$Table$$Base                      0x20002a10   Number         0  anon$$obj.o(Region$$Table)
    Image$$ER_IROM$$Limit                    0x20002a20   Number         0  anon$$obj.o ABSOLUTE
    Image$$RAM_RETENTION$$Base               0x20002a20   Number         0  anon$$obj.o ABSOLUTE
    Region$$Table$$Limit                     0x20002a20   Number         0  anon$$obj.o(Region$$Table)
    _sys_lower_wfi                           0x20002a89   Thumb Code   300  soc_pm.o(.ram_retention_code)
    deepsleep_disable_vd12                   0x20002bd9   Data           1  soc_pm.o(.ram_retention_data)
    _idle_stack                              0x20002bda   Data         256  kernel_config_init.o(.ram_retention_data)
    Image$$RAM_RETENTION$$Limit              0x20002cdc   Number         0  anon$$obj.o ABSOLUTE
    Image$$RW_IRAM_DEVICE_PRE_KERNEL_1$$Base 0x20002cdc   Number         0  anon$$obj.o ABSOLUTE
    Image$$RW_IRAM_DEVICE_PRE_KERNEL_2$$Base 0x20002d00   Number         0  anon$$obj.o ABSOLUTE
    Image$$RW_IRAM_DEVICE_POST_KERNEL$$Base  0x20002d18   Number         0  anon$$obj.o ABSOLUTE
    Image$$RW_IRAM_DEVICE_APPLICATION$$Base  0x20002d48   Number         0  anon$$obj.o ABSOLUTE
    Image$$RW_IRAM_DEVICE_APPLICATION$$Limit 0x20002d48   Number         0  anon$$obj.o ABSOLUTE
    device_busy                              0x20002d48   Data           8  device.o(.device_BUSY)
    Image$$RW_IRAM_PATCH_HW_FUNC$$Base       0x20002d50   Number         0  anon$$obj.o ABSOLUTE
    Image$$RW_IRAM_SHELL_CMD_START$$Base     0x20002d50   Number         0  anon$$obj.o ABSOLUTE
    Image$$RW_IRAM__mem_pool_area$$Base      0x20002d50   Number         0  anon$$obj.o ABSOLUTE
    Image$$RW_IRAM__net_buf_pool_area$$Base  0x20002d50   Number         0  anon$$obj.o ABSOLUTE
    Image$$RW_IRAM_PATCH_HW_CODE$$Base       0x20002d68   Number         0  anon$$obj.o ABSOLUTE
    Image$$RW_IRAM_PATCH_HW_FUNC$$Limit      0x20002d68   Number         0  anon$$obj.o ABSOLUTE
    Image$$RW_IRAM_PATCH_HW_CODE$$Limit      0x20002d70   Number         0  anon$$obj.o ABSOLUTE
    async_msg_free                           0x20002d70   Data          20  kernel_config_init.o(._k_stack.static.async_msg_free)
    normal_vdd_val                           0x20002d8c   Data           1  board.o(.data)
    dp_vdd_val                               0x20002d8d   Data           1  board.o(.data)
    acts_timer_config_info1                  0x20002da8   Data          36  timer_acts.o(.data)
    acts_timer_data0                         0x20002dcc   Data           8  timer_acts.o(.data)
    adc_acts_ddata                           0x20002dd4   Data           4  adc_acts.o(.data)
    adckey_timer                             0x20002dd8   Data           4  adckey_acts.o(.data)
    adckey_timer_start_flag                  0x20002ddc   Data           1  adckey_acts.o(.data)
    adckey_int_suspend_cnt                   0x20002dde   Data           2  adckey_acts.o(.data)
    adckey_int_resume_cnt                    0x20002de0   Data           2  adckey_acts.o(.data)
    adc_init                                 0x20002de2   Data           1  adckey_acts.o(.data)
    _main_stack                              0x20002ed0   Data        1024  kernel_config_init.o(.noinit."..\\..\\..\\..\\kernel\\kernel_config_init.c".0)
    sys_work_q_stack                         0x200032d0   Data        1024  kernel_config_init.o(.noinit."..\\..\\..\\..\\kernel\\kernel_config_init.c".1)
    _k_stack_buf_async_msg_free              0x20003a18   Data          40  kernel_config_init.o(.noinit."..\\..\\..\\..\\kernel\\kernel_config_init.c".3)
    Image$$RW_IRAM3$$Base                    0x20003a40   Number         0  anon$$obj.o ABSOLUTE
    _sw_isr_table                            0x20003a40   Data         256  entry.o(.bss)
    key_handle_entity                        0x20003b40   Data          32  main.o(.bss)
    adckey_devs                              0x20003b94   Data          40  adckey_acts.o(.bss)
    _interrupt_stack                         0x20003c80   Data         640  startup.o(STACK)
    __initial_sp                             0x20003f00   Data           0  startup.o(STACK)



==============================================================================

Memory Map of the image

  Image Entry point : 0x200010e1

  Load Region LR_IROM (Base: 0x20001000, Size: 0x00002a40, Max: 0x0000a000, ABSOLUTE)

    Execution Region ER_IROM (Base: 0x20001000, Size: 0x00001a20, Max: 0xffffffff, ABSOLUTE)

    Base Addr    Size         Type   Attr      Idx    E Section Name        Object

    0x20001000   0x000000e0   Data   RO            3    RESET               startup.o
    0x200010e0   0x00000000   Code   RO         1070  * .ARM.Collect$$$$00000000  mc_p.l(entry.o)
    0x200010e0   0x00000004   Code   RO         1081    .ARM.Collect$$$$00000001  mc_p.l(entry2.o)
    0x200010e4   0x00000004   Code   RO         1084    .ARM.Collect$$$$00000004  mc_p.l(entry5.o)
    0x200010e8   0x00000000   Code   RO         1086    .ARM.Collect$$$$00000008  mc_p.l(entry7b.o)
    0x200010e8   0x00000000   Code   RO         1088    .ARM.Collect$$$$0000000A  mc_p.l(entry8b.o)
    0x200010e8   0x00000008   Code   RO         1089    .ARM.Collect$$$$0000000B  mc_p.l(entry9a.o)
    0x200010f0   0x00000000   Code   RO         1091    .ARM.Collect$$$$0000000D  mc_p.l(entry10a.o)
    0x200010f0   0x00000000   Code   RO         1093    .ARM.Collect$$$$0000000F  mc_p.l(entry11a.o)
    0x200010f0   0x00000004   Code   RO         1082    .ARM.Collect$$$$00002712  mc_p.l(entry2.o)
    0x200010f4   0x0000008c   Code   RO          240    .init.once.text."..\\..\\..\\..\\arch\\soc\\atb110x\\soc_patch.c".0  soc_patch.o
    0x20001180   0x00000084   Code   RO          241    .init.once.text."..\\..\\..\\..\\arch\\soc\\atb110x\\soc_patch.c".1  soc_patch.o
    0x20001204   0x00000008   Code   RO          242    .init.once.text."..\\..\\..\\..\\arch\\soc\\atb110x\\soc_patch.c".2  soc_patch.o
    0x2000120c   0x00000028   Code   RO          523    .init.once.text."..\\..\\..\\..\\boards\\board.c".1  board.o
    0x20001234   0x0000008c   Code   RO          524    .init.once.text."..\\..\\..\\..\\boards\\board.c".2  board.o
    0x200012c0   0x00000030   Code   RO          592    .init.once.text."..\\..\\..\\..\\drivers\\uart\\uart_acts.c".0  uart_acts.o
    0x200012f0   0x00000014   Code   RO           14    .init.once.text."..\\..\\..\\..\\ext\\lib\\actions\\startup\\system.c".0  system.o
    0x20001304   0x000000b4   Code   RO          962    .init.once.text."..\\..\\..\\..\\kernel\\kernel_config_init.c".4  kernel_config_init.o
    0x200013b8   0x00000058   Code   RO            5    .text               startup.o
    0x20001410   0x00000024   Code   RO         1071    .text               mc_p.l(memseta.o)
    0x20001434   0x0000007a   Code   RO         1073    .text               mf_p.l(fmul.o)
    0x200014ae   0x0000007c   Code   RO         1075    .text               mf_p.l(fdiv.o)
    0x2000152a   0x0000000e   Code   RO         1077    .text               mf_p.l(ffltui.o)
    0x20001538   0x00000028   Code   RO         1079    .text               mf_p.l(ffixui.o)
    0x20001560   0x00000000   Code   RO         1095    .text               mc_p.l(iusefp.o)
    0x20001560   0x00000082   Code   RO         1096    .text               mf_p.l(fepilogue.o)
    0x200015e2   0x00000002   PAD
    0x200015e4   0x00000024   Code   RO         1098    .text               mc_p.l(init.o)
    0x20001608   0x0000000c   Ven    RO         1108    Veneer$$Code        anon$$obj.o
    0x20001614   0x0000000c   Ven    RO         1109    Veneer$$Code        anon$$obj.o
    0x20001620   0x0000000c   Ven    RO         1110    Veneer$$Code        anon$$obj.o
    0x2000162c   0x0000000c   Ven    RO         1111    Veneer$$Code        anon$$obj.o
    0x20001638   0x0000000c   Ven    RO         1112    Veneer$$Code        anon$$obj.o
    0x20001644   0x0000000c   Ven    RO         1113    Veneer$$Code        anon$$obj.o
    0x20001650   0x0000000c   Ven    RO         1114    Veneer$$Code        anon$$obj.o
    0x2000165c   0x0000000c   Ven    RO         1115    Veneer$$Code        anon$$obj.o
    0x20001668   0x0000000c   Ven    RO         1116    Veneer$$Code        anon$$obj.o
    0x20001674   0x0000000c   Ven    RO         1117    Veneer$$Code        anon$$obj.o
    0x20001680   0x0000000c   Ven    RO         1118    Veneer$$Code        anon$$obj.o
    0x2000168c   0x0000000c   Ven    RO         1119    Veneer$$Code        anon$$obj.o
    0x20001698   0x0000000c   Ven    RO         1120    Veneer$$Code        anon$$obj.o
    0x200016a4   0x0000000c   Ven    RO         1121    Veneer$$Code        anon$$obj.o
    0x200016b0   0x0000000c   Ven    RO         1122    Veneer$$Code        anon$$obj.o
    0x200016bc   0x0000000c   Ven    RO         1123    Veneer$$Code        anon$$obj.o
    0x200016c8   0x0000000c   Ven    RO         1124    Veneer$$Code        anon$$obj.o
    0x200016d4   0x0000000c   Ven    RO         1125    Veneer$$Code        anon$$obj.o
    0x200016e0   0x0000000c   Ven    RO         1126    Veneer$$Code        anon$$obj.o
    0x200016ec   0x0000000c   Ven    RO         1127    Veneer$$Code        anon$$obj.o
    0x200016f8   0x0000000c   Ven    RO         1128    Veneer$$Code        anon$$obj.o
    0x20001704   0x0000000c   Ven    RO         1129    Veneer$$Code        anon$$obj.o
    0x20001710   0x0000000c   Ven    RO         1130    Veneer$$Code        anon$$obj.o
    0x2000171c   0x0000000c   Ven    RO         1131    Veneer$$Code        anon$$obj.o
    0x20001728   0x0000000c   Ven    RO         1132    Veneer$$Code        anon$$obj.o
    0x20001734   0x0000000c   Ven    RO         1133    Veneer$$Code        anon$$obj.o
    0x20001740   0x0000000c   Ven    RO         1134    Veneer$$Code        anon$$obj.o
    0x2000174c   0x0000000c   Ven    RO         1135    Veneer$$Code        anon$$obj.o
    0x20001758   0x0000000c   Ven    RO         1136    Veneer$$Code        anon$$obj.o
    0x20001764   0x0000000c   Ven    RO         1137    Veneer$$Code        anon$$obj.o
    0x20001770   0x0000000c   Ven    RO         1138    Veneer$$Code        anon$$obj.o
    0x2000177c   0x0000000c   Ven    RO         1139    Veneer$$Code        anon$$obj.o
    0x20001788   0x0000000c   Ven    RO         1140    Veneer$$Code        anon$$obj.o
    0x20001794   0x0000000e   Code   RO         1102    i.__scatterload_copy  mc_p.l(handlers.o)
    0x200017a2   0x00000002   Code   RO         1103    i.__scatterload_null  mc_p.l(handlers.o)
    0x200017a4   0x0000000e   Code   RO         1104    i.__scatterload_zeroinit  mc_p.l(handlers.o)
    0x200017b2   0x00000006   Code   RO          288    i.__set_primask     soc_pm.o
    0x200017b8   0x00000070   Code   RO         1010    i._abort_timeout    system_work_q.o
    0x20001828   0x00000044   Code   RO          640    i._ms_to_cycle      timer_acts.o
    0x2000186c   0x00000028   Code   RO          904    i._sys_device_do_config_level  device.o
    0x20001894   0x00000064   Code   RO          289    i._sys_soc_set_power_state  soc_pm.o
    0x200018f8   0x00000050   Code   RO          290    i._sys_soc_suspend_new  soc_pm.o
    0x20001948   0x000000aa   Code   RO          723    i.adc_acts_read_new  adc_acts.o
    0x200019f2   0x00000002   PAD
    0x200019f4   0x0000000c   Code   RO          470    i.adc_batt_val_read  app_batt.o
    0x20001a00   0x0000001e   Code   RO          755    i.adckey_acts_disable_new  adckey_acts.o
    0x20001a1e   0x0000002a   Code   RO          756    i.adckey_acts_enable_new  adckey_acts.o
    0x20001a48   0x00000060   Code   RO          757    i.adckey_acts_get_keycode_new  adckey_acts.o
    0x20001aa8   0x00000110   Code   RO          758    i.adckey_acts_init_new  adckey_acts.o
    0x20001bb8   0x0000004c   Code   RO          759    i.adckey_acts_irq_config  adckey_acts.o
    0x20001c04   0x000000e4   Code   RO          760    i.adckey_acts_poll_new  adckey_acts.o
    0x20001ce8   0x00000006   Code   RO          761    i.adckey_acts_register_notify_new  adckey_acts.o
    0x20001cee   0x00000022   Code   RO          762    i.adckey_acts_report_key_new  adckey_acts.o
    0x20001d10   0x00000014   Code   RO          763    i.adckey_acts_resume_device_from_suspend  adckey_acts.o
    0x20001d24   0x0000001c   Code   RO          764    i.adckey_acts_suspend_device  adckey_acts.o
    0x20001d40   0x0000000a   Code   RO          765    i.adckey_acts_unregister_notify_new  adckey_acts.o
    0x20001d4a   0x00000002   PAD
    0x20001d4c   0x00000048   Code   RO          766    i.adckey_acts_wakeup_isr  adckey_acts.o
    0x20001d94   0x0000002c   Code   RO          767    i.adckey_device_ctrl  adckey_acts.o
    0x20001dc0   0x00000038   Code   RO          412    i.adckey_input_notify  main.o
    0x20001df8   0x00000040   Code   RO          768    i.adckey_timer_start  adckey_acts.o
    0x20001e38   0x00000038   Code   RO          769    i.adckey_timer_stop  adckey_acts.o
    0x20001e70   0x0000005c   Code   RO          770    i.add_adckey        adckey_acts.o
    0x20001ecc   0x0000007c   Code   RO          413    i.app_main          main.o
    0x20001f48   0x00000028   Code   RO          471    i.batt_manager_init  app_batt.o
    0x20001f70   0x0000000a   Code   RO          472    i.batt_timer_handler  app_batt.o
    0x20001f7a   0x00000002   PAD
    0x20001f7c   0x0000003c   Code   RO          291    i.check_pm_policy   soc_pm.o
    0x20001fb8   0x000000a8   Code   RO           15    i.debug_uart_init   system.o
    0x20002060   0x00000038   Code   RO           16    i.debug_uart_put_char  system.o
    0x20002098   0x0000002a   Code   RO          292    i.deep_sleep_entry  soc_pm.o
    0x200020c2   0x00000002   PAD
    0x200020c4   0x00000058   Code   RO          293    i.deep_sleep_exit   soc_pm.o
    0x2000211c   0x0000003c   Code   RO          905    i.device_any_busy_check  device.o
    0x20002158   0x00000034   Code   RO          906    i.device_busy_clear_new  device.o
    0x2000218c   0x00000034   Code   RO          907    i.device_busy_set_new  device.o
    0x200021c0   0x00000034   Code   RO          908    i.device_get_binding  device.o
    0x200021f4   0x00000002   Code   RO          294    i.enable_wake_event  soc_pm.o
    0x200021f6   0x00000002   PAD
    0x200021f8   0x00000024   Code   RO          414    i.get_key_handle    main.o
    0x2000221c   0x0000004a   Code   RO          416    i.key_device_open   main.o
    0x20002266   0x00000002   Code   RO          473    i.low_power_led_indication  app_batt.o
    0x20002268   0x0000000e   Code   RO          295    i.low_power_state_entry  soc_pm.o
    0x20002276   0x00000002   PAD
    0x20002278   0x00000030   Code   RO          212    i.main              entry.o
    0x200022a8   0x00000098   Code   RO         1011    i.new_k_delayed_work_cancel  system_work_q.o
    0x20002340   0x00000010   Code   RO          296    i.patch_sys_soc_suspend  soc_pm.o
    0x20002350   0x0000002c   Code   RO          771    i.remove_adckey     adckey_acts.o
    0x2000237c   0x0000004c   Code   RO          297    i.request_32M_XTAL  soc_pm.o
    0x200023c8   0x00000002   Code   RO          298    i.request_vd12      soc_pm.o
    0x200023ca   0x00000002   PAD
    0x200023cc   0x00000038   Code   RO          299    i.request_vd12_largebias  soc_pm.o
    0x20002404   0x00000018   Code   RO          300    i.resume_devices    soc_pm.o
    0x2000241c   0x00000054   Code   RO          301    i.set_deep_sleep_clock  soc_pm.o
    0x20002470   0x00000038   Code   RO          909    i.set_devices_state  device.o
    0x200024a8   0x00000018   Code   RO          302    i.suspend_devices   soc_pm.o
    0x200024c0   0x00000030   Code   RO          303    i.switch_cpu_clock_3M  soc_pm.o
    0x200024f0   0x00000006   Code   RO           17    i.sys_read32        system.o
    0x200024f6   0x00000006   Code   RO          305    i.sys_read32        soc_pm.o
    0x200024fc   0x00000006   Code   RO          772    i.sys_read32        adckey_acts.o
    0x20002502   0x0000005c   Code   RO         1012    i.sys_slist_find_and_remove  system_work_q.o
    0x2000255e   0x00000004   Code   RO           18    i.sys_write32       system.o
    0x20002562   0x00000004   Code   RO          306    i.sys_write32       soc_pm.o
    0x20002566   0x00000004   Code   RO          525    i.sys_write32       board.o
    0x2000256a   0x00000004   Code   RO          593    i.sys_write32       uart_acts.o
    0x2000256e   0x00000004   Code   RO          641    i.sys_write32       timer_acts.o
    0x20002572   0x00000004   Code   RO          773    i.sys_write32       adckey_acts.o
    0x20002576   0x00000006   Code   RO          642    i.timer_acts_callback_set  timer_acts.o
    0x2000257c   0x0000003c   Code   RO          643    i.timer_acts_config_irq  timer_acts.o
    0x200025b8   0x00000030   Code   RO          644    i.timer_acts_init   timer_acts.o
    0x200025e8   0x00000050   Code   RO          645    i.timer_acts_isr    timer_acts.o
    0x20002638   0x0000003a   Code   RO          646    i.timer_acts_start  timer_acts.o
    0x20002672   0x00000026   Code   RO          647    i.timer_acts_stop   timer_acts.o
    0x20002698   0x00000008   Code   RO          648    i.timer_acts_user_data_get  timer_acts.o
    0x200026a0   0x00000006   Code   RO          649    i.timer_acts_user_data_set  timer_acts.o
    0x200026a6   0x0000002e   Code   RO          650    i.timer_reload      timer_acts.o
    0x200026d4   0x00000032   Code   RO          594    i.uart_acts_resume_device_from_suspend  uart_acts.o
    0x20002706   0x00000028   Code   RO          595    i.uart_acts_suspend_device  uart_acts.o
    0x2000272e   0x00000002   PAD
    0x20002730   0x00000020   Code   RO          561    i.uart_console_init_new  uart_console.o
    0x20002750   0x0000002c   Code   RO          596    i.uart_device_ctrl  uart_acts.o
    0x2000277c   0x00000030   Code   RO          774    i.update_adckey_map  adckey_acts.o
    0x200027ac   0x00000158   Code   RO          474    i.update_battry_value  app_batt.o
    0x20002904   0x00000002   Code   RO          475    i.very_low_power_handler  app_batt.o
    0x20002906   0x00000002   PAD
    0x20002908   0x0000002c   Data   RO          307    .constdata          soc_pm.o
    0x20002934   0x0000000c   Data   RO          597    .constdata          uart_acts.o
    0x20002940   0x00000014   Data   RO          651    .constdata          timer_acts.o
    0x20002954   0x00000014   Data   RO          724    .constdata          adc_acts.o
    0x20002968   0x00000038   Data   RO          776    .constdata          adckey_acts.o
    0x200029a0   0x00000006   Data   RO          777    .conststring        adckey_acts.o
    0x200029a6   0x00000002   PAD
    0x200029a8   0x00000001   Data   RO          526    .conststrlit        board.o
    0x200029a9   0x00000003   PAD
    0x200029ac   0x00000001   Data   RO          562    .conststrlit        uart_console.o
    0x200029ad   0x00000003   PAD
    0x200029b0   0x0000000a   Data   RO          578    .conststrlit        sys_clock_init.o
    0x200029ba   0x00000002   PAD
    0x200029bc   0x00000007   Data   RO          598    .conststrlit        uart_acts.o
    0x200029c3   0x00000001   PAD
    0x200029c4   0x00000008   Data   RO          652    .conststrlit        timer_acts.o
    0x200029cc   0x00000006   Data   RO          725    .conststrlit        adc_acts.o
    0x200029d2   0x00000002   PAD
    0x200029d4   0x00000015   Data   RO          778    .conststrlit        adckey_acts.o
    0x200029e9   0x00000003   PAD
    0x200029ec   0x00000001   Data   RO         1013    .conststrlit        system_work_q.o
    0x200029ed   0x00000003   PAD
    0x200029f0   0x00000020   Data   RO          529    .init.once.data."..\\..\\..\\..\\boards\\board.c".0  board.o
    0x20002a10   0x00000010   Data   RO         1100    Region$$Table       anon$$obj.o


    Execution Region RAM_RETENTION (Base: 0x20002a20, Size: 0x000002bc, Max: 0xffffffff, ABSOLUTE)

    Base Addr    Size         Type   Attr      Idx    E Section Name        Object

    0x20002a20   0x000001b8   Code   RO          287    .ram_retention_code  soc_pm.o
    0x20002bd8   0x00000002   Data   RW          310    .ram_retention_data  soc_pm.o
    0x20002bda   0x00000100   Data   RW          968    .ram_retention_data  kernel_config_init.o


    Execution Region RW_IRAM_DEVICE_PRE_KERNEL_1 (Base: 0x20002cdc, Size: 0x00000024, Max: 0xffffffff, ABSOLUTE)

    Base Addr    Size         Type   Attr      Idx    E Section Name        Object

    0x20002cdc   0x0000000c   Data   RW          530    .init_PRE_KERNEL_10  board.o
    0x20002ce8   0x0000000c   Data   RW          601    .init_PRE_KERNEL_150  uart_acts.o
    0x20002cf4   0x0000000c   Data   RW          564    .init_PRE_KERNEL_160  uart_console.o


    Execution Region RW_IRAM_DEVICE_PRE_KERNEL_2 (Base: 0x20002d00, Size: 0x00000018, Max: 0xffffffff, ABSOLUTE)

    Base Addr    Size         Type   Attr      Idx    E Section Name        Object

    0x20002d00   0x0000000c   Data   RW          580    .init_PRE_KERNEL_20  sys_clock_init.o
    0x20002d0c   0x0000000c   Data   RW          728    .init_PRE_KERNEL_280  adc_acts.o


    Execution Region RW_IRAM_DEVICE_POST_KERNEL (Base: 0x20002d18, Size: 0x00000030, Max: 0xffffffff, ABSOLUTE)

    Base Addr    Size         Type   Attr      Idx    E Section Name        Object

    0x20002d18   0x0000000c   Data   RW          655    .init_POST_KERNEL20  timer_acts.o
    0x20002d24   0x0000000c   Data   RW         1015    .init_POST_KERNEL40  system_work_q.o
    0x20002d30   0x00000018   Data   RW          781    .init_POST_KERNEL50  adckey_acts.o


    Execution Region RW_IRAM_DEVICE_APPLICATION (Base: 0x20002d48, Size: 0x00000000, Max: 0xffffffff, ABSOLUTE)

    **** No section assigned to this execution region ****


    Execution Region RW_IRAM_DEVICE_BUSY (Base: 0x20002d48, Size: 0x00000008, Max: 0xffffffff, ABSOLUTE)

    Base Addr    Size         Type   Attr      Idx    E Section Name        Object

    0x20002d48   0x00000008   Data   RW          911    .device_BUSY        device.o


    Execution Region RW_IRAM__net_buf_pool_area (Base: 0x20002d50, Size: 0x00000000, Max: 0xffffffff, ABSOLUTE)

    **** No section assigned to this execution region ****


    Execution Region RW_IRAM__mem_pool_area (Base: 0x20002d50, Size: 0x00000000, Max: 0xffffffff, ABSOLUTE)

    **** No section assigned to this execution region ****


    Execution Region RW_IRAM_SHELL_CMD_START (Base: 0x20002d50, Size: 0x00000000, Max: 0xffffffff, ABSOLUTE)

    **** No section assigned to this execution region ****


    Execution Region RW_IRAM_PATCH_HW_FUNC (Base: 0x20002d50, Size: 0x00000018, Max: 0x00000060, ABSOLUTE)

    Base Addr    Size         Type   Attr      Idx    E Section Name        Object

    0x20002d50   0x00000010   Data   RW          912    .patch_hw_func      device.o
    0x20002d60   0x00000008   Data   RW         1016    .patch_hw_func      system_work_q.o


    Execution Region RW_IRAM_PATCH_HW_CODE (Base: 0x20002d68, Size: 0x00000008, Max: 0x00000060, ABSOLUTE)

    Base Addr    Size         Type   Attr      Idx    E Section Name        Object

    0x20002d68   0x00000008   Data   RW          309    .patch_hw_code      soc_pm.o


    Execution Region RW_IRAM2 (Base: 0x20002d70, Size: 0x00000cd0, Max: 0xffffffff, ABSOLUTE)

    Base Addr    Size         Type   Attr      Idx    E Section Name        Object

    0x20002d70   0x00000014   Data   RW          963    ._k_stack.static.async_msg_free  kernel_config_init.o
    0x20002d84   0x00000004   Data   RW          308    .data               soc_pm.o
    0x20002d88   0x00000004   Data   RW          477    .data               app_batt.o
    0x20002d8c   0x00000002   Data   RW          527    .data               board.o
    0x20002d8e   0x00000002   PAD
    0x20002d90   0x00000018   Data   RW          599    .data               uart_acts.o
    0x20002da8   0x0000002c   Data   RW          653    .data               timer_acts.o
    0x20002dd4   0x00000004   Data   RW          726    .data               adc_acts.o
    0x20002dd8   0x00000054   Data   RW          779    .data               adckey_acts.o
    0x20002e2c   0x00000014   Data   RW          910    .data               device.o
    0x20002e40   0x00000010   Data   RW          528    .devconfig.init     board.o
    0x20002e50   0x00000010   Data   RW          563    .devconfig.init     uart_console.o
    0x20002e60   0x00000010   Data   RW          579    .devconfig.init     sys_clock_init.o
    0x20002e70   0x00000010   Data   RW          600    .devconfig.init     uart_acts.o
    0x20002e80   0x00000010   Data   RW          654    .devconfig.init     timer_acts.o
    0x20002e90   0x00000010   Data   RW          727    .devconfig.init     adc_acts.o
    0x20002ea0   0x00000020   Data   RW          780    .devconfig.init     adckey_acts.o
    0x20002ec0   0x00000010   Data   RW         1014    .devconfig.init     system_work_q.o
    0x20002ed0   0x00000400   Data   RW          964    .noinit."..\\..\\..\\..\\kernel\\kernel_config_init.c".0  kernel_config_init.o
    0x200032d0   0x00000400   Data   RW          965    .noinit."..\\..\\..\\..\\kernel\\kernel_config_init.c".1  kernel_config_init.o
    0x200036d0   0x00000348   Data   RW          966    .noinit."..\\..\\..\\..\\kernel\\kernel_config_init.c".2  kernel_config_init.o
    0x20003a18   0x00000028   Data   RW          967    .noinit."..\\..\\..\\..\\kernel\\kernel_config_init.c".3  kernel_config_init.o


    Execution Region RW_IRAM3 (Base: 0x20003a40, Size: 0x0000023c, Max: 0xffffffff, ABSOLUTE)

    Base Addr    Size         Type   Attr      Idx    E Section Name        Object

    0x20003a40   0x00000100   Zero   RW          213    .bss                entry.o
    0x20003b40   0x00000020   Zero   RW          417    .bss                main.o
    0x20003b60   0x00000034   Zero   RW          476    .bss                app_batt.o
    0x20003b94   0x000000e8   Zero   RW          775    .bss                adckey_acts.o


    Execution Region RW_STACK (Base: 0x20003c7c, Size: 0x00000284, Max: 0xffffffff, ABSOLUTE, UNINIT)

    Base Addr    Size         Type   Attr      Idx    E Section Name        Object

    0x20003c7c   0x00000004   PAD
    0x20003c80   0x00000280   Zero   RW            1    STACK               startup.o


==============================================================================

Image component sizes


      Code (inc. data)   RO Data    RW Data    ZI Data      Debug   Object Name

       170          0         26         32          0       6338   adc_acts.o
      1272        160         83        140        232      32704   adckey_acts.o
       410        132          0          4         52       4307   app_batt.o
       184         28         33         30          0       4193   board.o
       312         46          0         44          0       9054   device.o
        48         20          0          0        256       4886   entry.o
       180         56          0       3204          0       2051   kernel_config_init.o
       290         98          0          0         32      15488   main.o
       280         92          0          0          0       3071   soc_patch.o
      1172        140         44         14          0      11963   soc_pm.o
        88         24        224          0        640        796   startup.o
         0          0         10         28          0        328   sys_clock_init.o
       254         28          0          0          0      36796   system.o
       356          6          1         36          0      30131   system_work_q.o
       422         16         28         72          0      11237   timer_acts.o
       186         12         19         52          0       7590   uart_acts.o
        32         14          1         28          0        924   uart_console.o

    ----------------------------------------------------------------------
      6070       1004        504       3688       1216     181857   Object Totals
       396        132         16          0          0          0   (incl. Generated)
        18          0         19          4          4          0   (incl. Padding)

    ----------------------------------------------------------------------

      Code (inc. data)   RO Data    RW Data    ZI Data      Debug   Library Member Name

         0          0          0          0          0          0   entry.o
         0          0          0          0          0          0   entry10a.o
         0          0          0          0          0          0   entry11a.o
         8          4          0          0          0          0   entry2.o
         4          0          0          0          0          0   entry5.o
         0          0          0          0          0          0   entry7b.o
         0          0          0          0          0          0   entry8b.o
         8          4          0          0          0          0   entry9a.o
        30          0          0          0          0          0   handlers.o
        36          8          0          0          0         68   init.o
         0          0          0          0          0          0   iusefp.o
        36          0          0          0          0        100   memseta.o
       124          0          0          0          0         72   fdiv.o
       130          0          0          0          0        144   fepilogue.o
        40          0          0          0          0         60   ffixui.o
        14          0          0          0          0         68   ffltui.o
       122          0          0          0          0         72   fmul.o

    ----------------------------------------------------------------------
       554         16          0          0          0        584   Library Totals
         2          0          0          0          0          0   (incl. Padding)

    ----------------------------------------------------------------------

      Code (inc. data)   RO Data    RW Data    ZI Data      Debug   Library Name

       122         16          0          0          0        168   mc_p.l
       430          0          0          0          0        416   mf_p.l

    ----------------------------------------------------------------------
       554         16          0          0          0        584   Library Totals

    ----------------------------------------------------------------------

==============================================================================


      Code (inc. data)   RO Data    RW Data    ZI Data      Debug   

      6624       1020        504       3688       1216     178721   Grand Totals
      6624       1020        504       3688       1216     178721   ELF Image Totals
      6624       1020        504       3688          0          0   ROM Totals

==============================================================================

    Total RO  Size (Code + RO Data)                 7128 (   6.96kB)
    Total RW  Size (RW Data + ZI Data)              4904 (   4.79kB)
    Total ROM Size (Code + RO Data + RW Data)      10816 (  10.56kB)

==============================================================================

