
========================================================================

** ELF Header Information

    File Name: ./outdir/rcu.axf

    Machine class: ELFCLASS32 (32-bit)
    Data encoding: ELFDATA2LSB (Little endian)
    Header version: EV_CURRENT (Current version)
    Operating System ABI: none
    ABI Version: 0
    File Type: ET_EXEC (Executable) (2)
    Machine: EM_ARM (ARM)

    Image Entry point: 0x011000e1
    Flags: EF_ARM_HASENTRY + EF_ARM_ABI_FLOAT_SOFT (0x05000202)

    ARM ELF revision: 5 (ABI version 2)

    Conforms to Soft float procedure-call standard

    Built with
    Component: ARM Compiler 5.06 update 5 (build 528) Tool: armasm [4d35e1]
    Component: ARM Compiler 5.06 update 5 (build 528) Tool: armlink [4d35e2]

    Header size: 52 bytes (0x34)
    Program header entry size: 32 bytes (0x20)
    Section header entry size: 40 bytes (0x28)

    Program header entries: 1
    Section header entries: 30

    Program header offset: 1018880 (0x000f8c00)
    Section header offset: 1018912 (0x000f8c20)

    Section header string table index: 29

========================================================================

** Program header #0 (PT_LOAD) [PF_X + PF_W + PF_R + PF_ARM_ENTRY]
    Size : 50944 bytes (44792 bytes in file)
    Virtual address: 0x01100000 (Alignment 8)


========================================================================

** Section #1 'ER_IROM' (SHT_PROGBITS) [SHF_ALLOC + SHF_EXECINSTR]
    Size   : 25928 bytes (alignment 4)
    Address: 0x01100000

    $d.realdata
    RESET
    systemVectors
        0x01100000:    200071a8    .q.     DCD    536900008
        0x01100004:    01100e35    5...    DCD    17829429
        0x01100008:    00022a0d    .*..    DCD    141837
        0x0110000c:    00022839    9(..    DCD    141369
        0x01100010:    00022839    9(..    DCD    141369
        0x01100014:    00022839    9(..    DCD    141369
        0x01100018:    00022839    9(..    DCD    141369
        0x0110001c:    00022839    9(..    DCD    141369
        0x01100020:    00022839    9(..    DCD    141369
        0x01100024:    00022839    9(..    DCD    141369
        0x01100028:    00022839    9(..    DCD    141369
        0x0110002c:    000225bd    .%..    DCD    140733
        0x01100030:    00022839    9(..    DCD    141369
        0x01100034:    00022839    9(..    DCD    141369
        0x01100038:    00022561    a%..    DCD    140641
        0x0110003c:    01100e71    q...    DCD    17829489
        0x01100040:    0002295d    ])..    DCD    141661
        0x01100044:    0002295d    ])..    DCD    141661
        0x01100048:    0002295d    ])..    DCD    141661
        0x0110004c:    0002295d    ])..    DCD    141661
        0x01100050:    0002295d    ])..    DCD    141661
        0x01100054:    0002295d    ])..    DCD    141661
        0x01100058:    0002295d    ])..    DCD    141661
        0x0110005c:    0002295d    ])..    DCD    141661
        0x01100060:    0002295d    ])..    DCD    141661
        0x01100064:    0002295d    ])..    DCD    141661
        0x01100068:    0002295d    ])..    DCD    141661
        0x0110006c:    0002295d    ])..    DCD    141661
        0x01100070:    0002295d    ])..    DCD    141661
        0x01100074:    0002295d    ])..    DCD    141661
        0x01100078:    0002295d    ])..    DCD    141661
        0x0110007c:    0002295d    ])..    DCD    141661
        0x01100080:    0002295d    ])..    DCD    141661
        0x01100084:    0002295d    ])..    DCD    141661
        0x01100088:    0002295d    ])..    DCD    141661
        0x0110008c:    0002295d    ])..    DCD    141661
        0x01100090:    0002295d    ])..    DCD    141661
        0x01100094:    0002295d    ])..    DCD    141661
        0x01100098:    0002295d    ])..    DCD    141661
        0x0110009c:    0002295d    ])..    DCD    141661
        0x011000a0:    0002295d    ])..    DCD    141661
        0x011000a4:    0002295d    ])..    DCD    141661
        0x011000a8:    0002295d    ])..    DCD    141661
        0x011000ac:    0002295d    ])..    DCD    141661
        0x011000b0:    0002295d    ])..    DCD    141661
        0x011000b4:    0002295d    ])..    DCD    141661
        0x011000b8:    0002295d    ])..    DCD    141661
        0x011000bc:    0002295d    ])..    DCD    141661
        0x011000c0:    00425441    ATB.    DCD    4346945
        0x011000c4:    01100000    ....    DCD    17825792
        0x011000c8:    0110aef8    ....    DCD    17870584
        0x011000cc:    01100e35    5...    DCD    17829429
        0x011000d0:    00010000    ....    DCD    65536
        0x011000d4:    00000000    ....    DCD    0
        0x011000d8:    00000000    ....    DCD    0
        0x011000dc:    00000000    ....    DCD    0
    $t
    .ARM.Collect$$$$00000000
    .ARM.Collect$$$$00000001
    __main
    _main_stk
        0x011000e0:    4803        .H      LDR      r0,__lit__00000000 ; [0x11000f0] = 0x200071a8
        0x011000e2:    4685        .F      MOV      sp,r0
    .ARM.Collect$$$$00000004
    _main_scatterload
        0x011000e4:    f000ffce    ....    BL       __scatterload ; 0x1101084
    .ARM.Collect$$$$00000008
    .ARM.Collect$$$$0000000A
    .ARM.Collect$$$$0000000B
    __main_after_scatterload
    _main_clock
    _main_cpp_init
    _main_init
        0x011000e8:    4800        .H      LDR      r0,[pc,#0] ; [0x11000ec] = 0x1103b49
        0x011000ea:    4700        .G      BX       r0
    $d
        0x011000ec:    01103b49    I;..    DCD    17840969
    .ARM.Collect$$$$00002712
    __lit__00000000
    .ARM.Collect$$$$0000000D
    .ARM.Collect$$$$0000000F
    __rt_final_cpp
    __rt_final_exit
        0x011000f0:    200071a8    .q.     DCD    536900008
    $t
    .init.once.text."..\\..\\..\\..\\arch\\soc\\atb110x\\soc_patch.c".0
    patch_hw_func
        0x011000f4:    b5f8        ..      PUSH     {r3-r7,lr}
        0x011000f6:    4913        .I      LDR      r1,[pc,#76] ; [0x1100144] = 0x20001958
        0x011000f8:    4813        .H      LDR      r0,[pc,#76] ; [0x1100148] = 0x200019a8
        0x011000fa:    4e14        .N      LDR      r6,[pc,#80] ; [0x110014c] = 0x40009040
        0x011000fc:    1a40        @.      SUBS     r0,r0,r1
        0x011000fe:    08c5        ..      LSRS     r5,r0,#3
        0x01100100:    2000        .       MOVS     r0,#0
        0x01100102:    3640        @6      ADDS     r6,r6,#0x40
        0x01100104:    4c11        .L      LDR      r4,[pc,#68] ; [0x110014c] = 0x40009040
        0x01100106:    2701        .'      MOVS     r7,#1
        0x01100108:    e010        ..      B        0x110012c ; patch_hw_func + 56
        0x0110010a:    680a        .h      LDR      r2,[r1,#0]
        0x0110010c:    0853        S.      LSRS     r3,r2,#1
        0x0110010e:    005b        [.      LSLS     r3,r3,#1
        0x01100110:    0082        ..      LSLS     r2,r0,#2
        0x01100112:    1992        ..      ADDS     r2,r2,r6
        0x01100114:    6013        .`      STR      r3,[r2,#0]
        0x01100116:    684b        Kh      LDR      r3,[r1,#4]
        0x01100118:    085b        [.      LSRS     r3,r3,#1
        0x0110011a:    005b        [.      LSLS     r3,r3,#1
        0x0110011c:    6313        .c      STR      r3,[r2,#0x30]
        0x0110011e:    6b23        #k      LDR      r3,[r4,#0x30]
        0x01100120:    463a        :F      MOV      r2,r7
        0x01100122:    4082        .@      LSLS     r2,r2,r0
        0x01100124:    4313        .C      ORRS     r3,r3,r2
        0x01100126:    6323        #c      STR      r3,[r4,#0x30]
        0x01100128:    1c40        @.      ADDS     r0,r0,#1
        0x0110012a:    3108        .1      ADDS     r1,r1,#8
        0x0110012c:    42a8        .B      CMP      r0,r5
        0x0110012e:    dbec        ..      BLT      0x110010a ; patch_hw_func + 22
        0x01100130:    a007        ..      ADR      r0,{pc}+0x20 ; 0x1100150
        0x01100132:    9000        ..      STR      r0,[sp,#0]
        0x01100134:    6b23        #k      LDR      r3,[r4,#0x30]
        0x01100136:    a206        ..      ADR      r2,{pc}+0x1a ; 0x1100150
        0x01100138:    a106        ..      ADR      r1,{pc}+0x1c ; 0x1100154
        0x0110013a:    a008        ..      ADR      r0,{pc}+0x22 ; 0x110015c
        0x0110013c:    f000ffb4    ....    BL       $Ven$TT$L$$printk ; 0x11010a8
        0x01100140:    bdf8        ..      POP      {r3-r7,pc}
    $d
        0x01100142:    0000        ..      DCW    0
        0x01100144:    20001958    X..     DCD    536877400
        0x01100148:    200019a8    ...     DCD    536877480
        0x0110014c:    40009040    @..@    DCD    1073778752
        0x01100150:    00000000    ....    DCD    0
        0x01100154:    63746170    patc    DCD    1668571504
        0x01100158:    00000068    h...    DCD    104
        0x0110015c:    5d73255b    [%s]    DCD    1567827291
        0x01100160:    43732520     %sC    DCD    1131619616
        0x01100164:    303a4c54    TL:0    DCD    809126996
        0x01100168:    25782578    x%x%    DCD    628630904
        0x0110016c:    00000a73    s...    DCD    2675
    $t
    .init.once.text."..\\..\\..\\..\\arch\\soc\\atb110x\\soc_patch.c".1
    patch_hw_code
        0x01100170:    b5f8        ..      PUSH     {r3-r7,lr}
        0x01100172:    4910        .I      LDR      r1,[pc,#64] ; [0x11001b4] = 0x200019a8
        0x01100174:    4810        .H      LDR      r0,[pc,#64] ; [0x11001b8] = 0x20001a00
        0x01100176:    4b11        .K      LDR      r3,[pc,#68] ; [0x11001bc] = 0x40009000
        0x01100178:    1a40        @.      SUBS     r0,r0,r1
        0x0110017a:    08c5        ..      LSRS     r5,r0,#3
        0x0110017c:    2000        .       MOVS     r0,#0
        0x0110017e:    2601        .&      MOVS     r6,#1
        0x01100180:    e00c        ..      B        0x110019c ; patch_hw_code + 44
        0x01100182:    0082        ..      LSLS     r2,r0,#2
        0x01100184:    18d2        ..      ADDS     r2,r2,r3
        0x01100186:    680c        .h      LDR      r4,[r1,#0]
        0x01100188:    6114        .a      STR      r4,[r2,#0x10]
        0x0110018a:    684c        Lh      LDR      r4,[r1,#4]
        0x0110018c:    6414        .d      STR      r4,[r2,#0x40]
        0x0110018e:    68dc        .h      LDR      r4,[r3,#0xc]
        0x01100190:    4632        2F      MOV      r2,r6
        0x01100192:    4082        .@      LSLS     r2,r2,r0
        0x01100194:    4314        .C      ORRS     r4,r4,r2
        0x01100196:    60dc        .`      STR      r4,[r3,#0xc]
        0x01100198:    1c40        @.      ADDS     r0,r0,#1
        0x0110019a:    3108        .1      ADDS     r1,r1,#8
        0x0110019c:    42a8        .B      CMP      r0,r5
        0x0110019e:    dbf0        ..      BLT      0x1100182 ; patch_hw_code + 18
        0x011001a0:    a007        ..      ADR      r0,{pc}+0x20 ; 0x11001c0
        0x011001a2:    9000        ..      STR      r0,[sp,#0]
        0x011001a4:    68db        .h      LDR      r3,[r3,#0xc]
        0x011001a6:    a206        ..      ADR      r2,{pc}+0x1a ; 0x11001c0
        0x011001a8:    a106        ..      ADR      r1,{pc}+0x1c ; 0x11001c4
        0x011001aa:    a008        ..      ADR      r0,{pc}+0x22 ; 0x11001cc
        0x011001ac:    f000ff7c    ..|.    BL       $Ven$TT$L$$printk ; 0x11010a8
        0x011001b0:    bdf8        ..      POP      {r3-r7,pc}
    $d
        0x011001b2:    0000        ..      DCW    0
        0x011001b4:    200019a8    ...     DCD    536877480
        0x011001b8:    20001a00    ...     DCD    536877568
        0x011001bc:    40009000    ...@    DCD    1073778688
        0x011001c0:    00000000    ....    DCD    0
        0x011001c4:    63746170    patc    DCD    1668571504
        0x011001c8:    00000068    h...    DCD    104
        0x011001cc:    5d73255b    [%s]    DCD    1567827291
        0x011001d0:    43732520     %sC    DCD    1131619616
        0x011001d4:    303a4c54    TL:0    DCD    809126996
        0x011001d8:    25782578    x%x%    DCD    628630904
        0x011001dc:    00000a73    s...    DCD    2675
    $t
    .init.once.text."..\\..\\..\\..\\arch\\soc\\atb110x\\soc_patch.c".2
    patch_sw
        0x011001e0:    4770        pG      BX       lr
    .init.once.text."..\\..\\..\\..\\boards\\board.c".1
    set_ic_feature
        0x011001e2:    b510        ..      PUSH     {r4,lr}
        0x011001e4:    2000        .       MOVS     r0,#0
        0x011001e6:    f000ff65    ..e.    BL       $Ven$TT$L$$acts_efuse_read ; 0x11010b4
        0x011001ea:    bd10        ..      POP      {r4,pc}
    .init.once.text."..\\..\\..\\..\\boards\\board.c".2
    board_early_init
        0x011001ec:    b510        ..      PUSH     {r4,lr}
        0x011001ee:    f7fffff8    ....    BL       set_ic_feature ; 0x11001e2
        0x011001f2:    4817        .H      LDR      r0,[pc,#92] ; [0x1100250] = 0x20002228
        0x011001f4:    7800        .x      LDRB     r0,[r0,#0]
        0x011001f6:    f000ff63    ..c.    BL       $Ven$TT$L$$acts_set_vdd ; 0x11010c0
        0x011001fa:    2064        d       MOVS     r0,#0x64
        0x011001fc:    f000ff66    ..f.    BL       $Ven$TT$L$$acts_delay_us ; 0x11010cc
        0x01100200:    2000        .       MOVS     r0,#0
        0x01100202:    f000ff69    ..i.    BL       $Ven$TT$L$$acts_request_vd12_pd ; 0x11010d8
        0x01100206:    2000        .       MOVS     r0,#0
        0x01100208:    f000ff6c    ..l.    BL       $Ven$TT$L$$acts_request_vd12_largebias ; 0x11010e4
        0x0110020c:    2000        .       MOVS     r0,#0
        0x0110020e:    f000ff6f    ..o.    BL       $Ven$TT$L$$acts_request_rc_3M ; 0x11010f0
        0x01100212:    4911        .I      LDR      r1,[pc,#68] ; [0x1100258] = 0x40009004
        0x01100214:    480f        .H      LDR      r0,[pc,#60] ; [0x1100254] = 0x1100000
        0x01100216:    6008        .`      STR      r0,[r1,#0]
        0x01100218:    1f09        ..      SUBS     r1,r1,#4
        0x0110021a:    6808        .h      LDR      r0,[r1,#0]
        0x0110021c:    2201        ."      MOVS     r2,#1
        0x0110021e:    4310        .C      ORRS     r0,r0,r2
        0x01100220:    6008        .`      STR      r0,[r1,#0]
        0x01100222:    2107        .!      MOVS     r1,#7
        0x01100224:    480d        .H      LDR      r0,[pc,#52] ; [0x110025c] = 0x1106430
        0x01100226:    f000ff69    ..i.    BL       $Ven$TT$L$$acts_pinmux_setup_pins ; 0x11010fc
        0x0110022a:    f7ffff63    ..c.    BL       patch_hw_func ; 0x11000f4
        0x0110022e:    f7ffff9f    ....    BL       patch_hw_code ; 0x1100170
        0x01100232:    f7ffffd5    ....    BL       patch_sw ; 0x11001e0
        0x01100236:    480a        .H      LDR      r0,[pc,#40] ; [0x1100260] = 0x200059b0
        0x01100238:    2100        .!      MOVS     r1,#0
        0x0110023a:    6001        .`      STR      r1,[r0,#0]
        0x0110023c:    4909        .I      LDR      r1,[pc,#36] ; [0x1100264] = 0xdaa1
        0x0110023e:    2200        ."      MOVS     r2,#0
        0x01100240:    6041        A`      STR      r1,[r0,#4]
        0x01100242:    4611        .F      MOV      r1,r2
        0x01100244:    4610        .F      MOV      r0,r2
        0x01100246:    f000ff5f    .._.    BL       $Ven$TT$L$$_irq_priority_set ; 0x1101108
        0x0110024a:    2000        .       MOVS     r0,#0
        0x0110024c:    bd10        ..      POP      {r4,pc}
    $d
        0x0110024e:    0000        ..      DCW    0
        0x01100250:    20002228    (".     DCD    536879656
        0x01100254:    01100000    ....    DCD    17825792
        0x01100258:    40009004    ...@    DCD    1073778692
        0x0110025c:    01106430    0d..    DCD    17851440
        0x01100260:    200059b0    .Y.     DCD    536893872
        0x01100264:    0000daa1    ....    DCD    55969
    $t
    .init.once.text."..\\..\\..\\..\\drivers\\bluetooth\\hci\\llcc.c".0
    patch_llc_init_all_trim_upload
        0x01100268:    4914        .I      LDR      r1,[pc,#80] ; [0x11002bc] = 0x20000a84
        0x0110026a:    4813        .H      LDR      r0,[pc,#76] ; [0x11002b8] = 0x20002e34
        0x0110026c:    6008        .`      STR      r0,[r1,#0]
        0x0110026e:    4914        .I      LDR      r1,[pc,#80] ; [0x11002c0] = 0x20000b2c
        0x01100270:    2004        .       MOVS     r0,#4
        0x01100272:    7008        .p      STRB     r0,[r1,#0]
        0x01100274:    4a14        .J      LDR      r2,[pc,#80] ; [0x11002c8] = 0x20000b28
        0x01100276:    4913        .I      LDR      r1,[pc,#76] ; [0x11002c4] = 0x20002e60
        0x01100278:    6011        .`      STR      r1,[r2,#0]
        0x0110027a:    4914        .I      LDR      r1,[pc,#80] ; [0x11002cc] = 0x20000ba0
        0x0110027c:    7008        .p      STRB     r0,[r1,#0]
        0x0110027e:    4915        .I      LDR      r1,[pc,#84] ; [0x11002d4] = 0x20000a9c
        0x01100280:    4813        .H      LDR      r0,[pc,#76] ; [0x11002d0] = 0x20002e80
        0x01100282:    6008        .`      STR      r0,[r1,#0]
        0x01100284:    4914        .I      LDR      r1,[pc,#80] ; [0x11002d8] = 0x20000b1e
        0x01100286:    2003        .       MOVS     r0,#3
        0x01100288:    7008        .p      STRB     r0,[r1,#0]
        0x0110028a:    4915        .I      LDR      r1,[pc,#84] ; [0x11002e0] = 0x20000bb0
        0x0110028c:    4813        .H      LDR      r0,[pc,#76] ; [0x11002dc] = 0x20002dbc
        0x0110028e:    6008        .`      STR      r0,[r1,#0]
        0x01100290:    4914        .I      LDR      r1,[pc,#80] ; [0x11002e4] = 0x20000b90
        0x01100292:    2009        .       MOVS     r0,#9
        0x01100294:    7008        .p      STRB     r0,[r1,#0]
        0x01100296:    4915        .I      LDR      r1,[pc,#84] ; [0x11002ec] = 0x20000a90
        0x01100298:    4813        .H      LDR      r0,[pc,#76] ; [0x11002e8] = 0x20002e04
        0x0110029a:    6008        .`      STR      r0,[r1,#0]
        0x0110029c:    4914        .I      LDR      r1,[pc,#80] ; [0x11002f0] = 0x20000b98
        0x0110029e:    2006        .       MOVS     r0,#6
        0x011002a0:    7008        .p      STRB     r0,[r1,#0]
        0x011002a2:    4915        .I      LDR      r1,[pc,#84] ; [0x11002f8] = 0x20000b94
        0x011002a4:    4813        .H      LDR      r0,[pc,#76] ; [0x11002f4] = 0x11003d5
        0x011002a6:    6008        .`      STR      r0,[r1,#0]
        0x011002a8:    4915        .I      LDR      r1,[pc,#84] ; [0x1100300] = 0x20000ae8
        0x011002aa:    4814        .H      LDR      r0,[pc,#80] ; [0x11002fc] = 0x1100449
        0x011002ac:    6008        .`      STR      r0,[r1,#0]
        0x011002ae:    4916        .I      LDR      r1,[pc,#88] ; [0x1100308] = 0x20000ba4
        0x011002b0:    4814        .H      LDR      r0,[pc,#80] ; [0x1100304] = 0x20001251
        0x011002b2:    6008        .`      STR      r0,[r1,#0]
        0x011002b4:    2000        .       MOVS     r0,#0
        0x011002b6:    4770        pG      BX       lr
    $d
        0x011002b8:    20002e34    4..     DCD    536882740
        0x011002bc:    20000a84    ...     DCD    536873604
        0x011002c0:    20000b2c    ,..     DCD    536873772
        0x011002c4:    20002e60    `..     DCD    536882784
        0x011002c8:    20000b28    (..     DCD    536873768
        0x011002cc:    20000ba0    ...     DCD    536873888
        0x011002d0:    20002e80    ...     DCD    536882816
        0x011002d4:    20000a9c    ...     DCD    536873628
        0x011002d8:    20000b1e    ...     DCD    536873758
        0x011002dc:    20002dbc    .-.     DCD    536882620
        0x011002e0:    20000bb0    ...     DCD    536873904
        0x011002e4:    20000b90    ...     DCD    536873872
        0x011002e8:    20002e04    ...     DCD    536882692
        0x011002ec:    20000a90    ...     DCD    536873616
        0x011002f0:    20000b98    ...     DCD    536873880
        0x011002f4:    011003d5    ....    DCD    17826773
        0x011002f8:    20000b94    ...     DCD    536873876
        0x011002fc:    01100449    I...    DCD    17826889
        0x01100300:    20000ae8    ...     DCD    536873704
        0x01100304:    20001251    Q..     DCD    536875601
        0x01100308:    20000ba4    ...     DCD    536873892
    $t
    .init.once.text."..\\..\\..\\..\\drivers\\bluetooth\\hci\\llcc.c".1
    LlcIrqConnect
        0x0110030c:    b570        p.      PUSH     {r4-r6,lr}
        0x0110030e:    2500        .%      MOVS     r5,#0
        0x01100310:    4c1a        .L      LDR      r4,[pc,#104] ; [0x110037c] = 0x200059b0
        0x01100312:    481b        .H      LDR      r0,[pc,#108] ; [0x1100380] = 0x200013ff
        0x01100314:    6225        %b      STR      r5,[r4,#0x20]
        0x01100316:    6260        `b      STR      r0,[r4,#0x24]
        0x01100318:    462a        *F      MOV      r2,r5
        0x0110031a:    2101        .!      MOVS     r1,#1
        0x0110031c:    2004        .       MOVS     r0,#4
        0x0110031e:    f000fef3    ....    BL       $Ven$TT$L$$_irq_priority_set ; 0x1101108
        0x01100322:    4818        .H      LDR      r0,[pc,#96] ; [0x1100384] = 0xf055
        0x01100324:    62a5        .b      STR      r5,[r4,#0x28]
        0x01100326:    62e0        .b      STR      r0,[r4,#0x2c]
        0x01100328:    2200        ."      MOVS     r2,#0
        0x0110032a:    2101        .!      MOVS     r1,#1
        0x0110032c:    2005        .       MOVS     r0,#5
        0x0110032e:    f000feeb    ....    BL       $Ven$TT$L$$_irq_priority_set ; 0x1101108
        0x01100332:    4815        .H      LDR      r0,[pc,#84] ; [0x1100388] = 0xf065
        0x01100334:    6425        %d      STR      r5,[r4,#0x40]
        0x01100336:    6460        `d      STR      r0,[r4,#0x44]
        0x01100338:    2200        ."      MOVS     r2,#0
        0x0110033a:    2101        .!      MOVS     r1,#1
        0x0110033c:    2008        .       MOVS     r0,#8
        0x0110033e:    f000fee3    ....    BL       $Ven$TT$L$$_irq_priority_set ; 0x1101108
        0x01100342:    4812        .H      LDR      r0,[pc,#72] ; [0x110038c] = 0x20001401
        0x01100344:    64a5        .d      STR      r5,[r4,#0x48]
        0x01100346:    64e0        .d      STR      r0,[r4,#0x4c]
        0x01100348:    2200        ."      MOVS     r2,#0
        0x0110034a:    2101        .!      MOVS     r1,#1
        0x0110034c:    2009        .       MOVS     r0,#9
        0x0110034e:    f000fedb    ....    BL       $Ven$TT$L$$_irq_priority_set ; 0x1101108
        0x01100352:    480f        .H      LDR      r0,[pc,#60] ; [0x1100390] = 0xe06d
        0x01100354:    6625        %f      STR      r5,[r4,#0x60]
        0x01100356:    2200        ."      MOVS     r2,#0
        0x01100358:    6660        `f      STR      r0,[r4,#0x64]
        0x0110035a:    4611        .F      MOV      r1,r2
        0x0110035c:    200c        .       MOVS     r0,#0xc
        0x0110035e:    f000fed3    ....    BL       $Ven$TT$L$$_irq_priority_set ; 0x1101108
        0x01100362:    490c        .I      LDR      r1,[pc,#48] ; [0x1100394] = 0x20000bb4
        0x01100364:    2001        .       MOVS     r0,#1
        0x01100366:    7008        .p      STRB     r0,[r1,#0]
        0x01100368:    490c        .I      LDR      r1,[pc,#48] ; [0x110039c] = 0x20000a80
        0x0110036a:    480b        .H      LDR      r0,[pc,#44] ; [0x1100398] = 0x200068d8
        0x0110036c:    6008        .`      STR      r0,[r1,#0]
        0x0110036e:    490c        .I      LDR      r1,[pc,#48] ; [0x11003a0] = 0x20000a94
        0x01100370:    3034        40      ADDS     r0,r0,#0x34
        0x01100372:    6008        .`      STR      r0,[r1,#0]
        0x01100374:    f7ffff78    ..x.    BL       patch_llc_init_all_trim_upload ; 0x1100268
        0x01100378:    2000        .       MOVS     r0,#0
        0x0110037a:    bd70        p.      POP      {r4-r6,pc}
    $d
        0x0110037c:    200059b0    .Y.     DCD    536893872
        0x01100380:    200013ff    ...     DCD    536876031
        0x01100384:    0000f055    U...    DCD    61525
        0x01100388:    0000f065    e...    DCD    61541
        0x0110038c:    20001401    ...     DCD    536876033
        0x01100390:    0000e06d    m...    DCD    57453
        0x01100394:    20000bb4    ...     DCD    536873908
        0x01100398:    200068d8    .h.     DCD    536897752
        0x0110039c:    20000a80    ...     DCD    536873600
        0x011003a0:    20000a94    ...     DCD    536873620
    $t
    .init.once.text."..\\..\\..\\..\\drivers\\bluetooth\\hci\\llcc.c".14
    llcc_upload_ic_trim_new
        0x011003a4:    b500        ..      PUSH     {lr}
        0x011003a6:    4809        .H      LDR      r0,[pc,#36] ; [0x11003cc] = 0x20000b2c
        0x011003a8:    b089        ..      SUB      sp,sp,#0x24
        0x011003aa:    7802        .x      LDRB     r2,[r0,#0]
        0x011003ac:    4808        .H      LDR      r0,[pc,#32] ; [0x11003d0] = 0x20000a84
        0x011003ae:    6801        .h      LDR      r1,[r0,#0]
        0x011003b0:    4668        hF      MOV      r0,sp
        0x011003b2:    f000feaf    ....    BL       $Ven$TT$L$$llcc_compose_trim ; 0x1101114
        0x011003b6:    4669        iF      MOV      r1,sp
        0x011003b8:    7f08        ..      LDRB     r0,[r1,#0x1c]
        0x011003ba:    466a        jF      MOV      r2,sp
        0x011003bc:    3814        .8      SUBS     r0,r0,#0x14
        0x011003be:    7708        .w      STRB     r0,[r1,#0x1c]
        0x011003c0:    2120         !      MOVS     r1,#0x20
        0x011003c2:    200a        .       MOVS     r0,#0xa
        0x011003c4:    f000feac    ....    BL       $Ven$TT$L$$llc_init_trim_upload ; 0x1101120
        0x011003c8:    b009        ..      ADD      sp,sp,#0x24
        0x011003ca:    bd00        ..      POP      {pc}
    $d
        0x011003cc:    20000b2c    ,..     DCD    536873772
        0x011003d0:    20000a84    ...     DCD    536873604
    $t
    .init.once.text."..\\..\\..\\..\\drivers\\bluetooth\\hci\\llcc.c".15
    llc_init_all_trim_upload_new
        0x011003d4:    b510        ..      PUSH     {r4,lr}
        0x011003d6:    f000fea9    ....    BL       $Ven$TT$L$$acts_set_vd12_before_efuse_read ; 0x110112c
        0x011003da:    f7ffffe3    ....    BL       llcc_upload_ic_trim_new ; 0x11003a4
        0x011003de:    0004        ..      MOVS     r4,r0
        0x011003e0:    d006        ..      BEQ      0x11003f0 ; llc_init_all_trim_upload_new + 28
        0x011003e2:    f000fea9    ....    BL       $Ven$TT$L$$llcc_upload_board_trim ; 0x1101138
        0x011003e6:    0004        ..      MOVS     r4,r0
        0x011003e8:    d002        ..      BEQ      0x11003f0 ; llc_init_all_trim_upload_new + 28
        0x011003ea:    f000feab    ....    BL       $Ven$TT$L$$llcc_upload_tx_trim ; 0x1101144
        0x011003ee:    4604        .F      MOV      r4,r0
        0x011003f0:    f000feae    ....    BL       $Ven$TT$L$$acts_set_vd12_after_efuse_read ; 0x1101150
        0x011003f4:    4620         F      MOV      r0,r4
        0x011003f6:    bd10        ..      POP      {r4,pc}
    .init.once.text."..\\..\\..\\..\\drivers\\bluetooth\\hci\\llcc.c".16
    llc_init_tx_command
        0x011003f8:    b57c        |.      PUSH     {r2-r6,lr}
        0x011003fa:    4614        .F      MOV      r4,r2
        0x011003fc:    460d        .F      MOV      r5,r1
        0x011003fe:    f000fead    ....    BL       $Ven$TT$L$$llc_init_tx_message ; 0x110115c
        0x01100402:    2d00        .-      CMP      r5,#0
        0x01100404:    d007        ..      BEQ      0x1100416 ; llc_init_tx_command + 30
        0x01100406:    4668        hF      MOV      r0,sp
        0x01100408:    f000feae    ....    BL       $Ven$TT$L$$llc_init_wait_for_rx_message ; 0x1101168
        0x0110040c:    4668        hF      MOV      r0,sp
        0x0110040e:    7800        .x      LDRB     r0,[r0,#0]
        0x01100410:    2804        .(      CMP      r0,#4
        0x01100412:    d10f        ..      BNE      0x1100434 ; llc_init_tx_command + 60
        0x01100414:    e001        ..      B        0x110041a ; llc_init_tx_command + 34
        0x01100416:    2001        .       MOVS     r0,#1
        0x01100418:    bd7c        |.      POP      {r2-r6,pc}
        0x0110041a:    9801        ..      LDR      r0,[sp,#4]
        0x0110041c:    7801        .x      LDRB     r1,[r0,#0]
        0x0110041e:    1d40        @.      ADDS     r0,r0,#5
        0x01100420:    290e        .)      CMP      r1,#0xe
        0x01100422:    d107        ..      BNE      0x1100434 ; llc_init_tx_command + 60
        0x01100424:    7801        .x      LDRB     r1,[r0,#0]
        0x01100426:    1c40        @.      ADDS     r0,r0,#1
        0x01100428:    2c00        .,      CMP      r4,#0
        0x0110042a:    d001        ..      BEQ      0x1100430 ; llc_init_tx_command + 56
        0x0110042c:    7800        .x      LDRB     r0,[r0,#0]
        0x0110042e:    4301        .C      ORRS     r1,r1,r0
        0x01100430:    2900        .)      CMP      r1,#0
        0x01100432:    d004        ..      BEQ      0x110043e ; llc_init_tx_command + 70
        0x01100434:    9801        ..      LDR      r0,[sp,#4]
        0x01100436:    f000fe9d    ....    BL       $Ven$TT$L$$llc_hci_buf_free ; 0x1101174
        0x0110043a:    2000        .       MOVS     r0,#0
        0x0110043c:    bd7c        |.      POP      {r2-r6,pc}
        0x0110043e:    9801        ..      LDR      r0,[sp,#4]
        0x01100440:    f000fe98    ....    BL       $Ven$TT$L$$llc_hci_buf_free ; 0x1101174
        0x01100444:    e7e7        ..      B        0x1100416 ; llc_init_tx_command + 30
        0x01100446:    0000        ..      MOVS     r0,r0
    .init.once.text."..\\..\\..\\..\\drivers\\bluetooth\\hci\\llcc.c".17
    p_llc_init_trim_up_load_new
        0x01100448:    b5f7        ..      PUSH     {r0-r2,r4-r7,lr}
        0x0110044a:    b0c2        ..      SUB      sp,sp,#0x108
        0x0110044c:    460d        .F      MOV      r5,r1
        0x0110044e:    a021        !.      ADR      r0,{pc}+0x86 ; 0x11004d4
        0x01100450:    f000fe2a    ..*.    BL       $Ven$TT$L$$printk ; 0x11010a8
        0x01100454:    2001        .       MOVS     r0,#1
        0x01100456:    4669        iF      MOV      r1,sp
        0x01100458:    7008        .p      STRB     r0,[r1,#0]
        0x0110045a:    ac02        ..      ADD      r4,sp,#8
        0x0110045c:    2003        .       MOVS     r0,#3
        0x0110045e:    9401        ..      STR      r4,[sp,#4]
        0x01100460:    7208        .r      STRB     r0,[r1,#8]
        0x01100462:    20fc        .       MOVS     r0,#0xfc
        0x01100464:    7248        Hr      STRB     r0,[r1,#9]
        0x01100466:    2704        .'      MOVS     r7,#4
        0x01100468:    728f        .r      STRB     r7,[r1,#0xa]
        0x0110046a:    9842        B.      LDR      r0,[sp,#0x108]
        0x0110046c:    72c8        .r      STRB     r0,[r1,#0xb]
        0x0110046e:    2000        .       MOVS     r0,#0
        0x01100470:    7308        .s      STRB     r0,[r1,#0xc]
        0x01100472:    b2ee        ..      UXTB     r6,r5
        0x01100474:    734e        Ns      STRB     r6,[r1,#0xd]
        0x01100476:    0a28        (.      LSRS     r0,r5,#8
        0x01100478:    7388        .s      STRB     r0,[r1,#0xe]
        0x0110047a:    2007        .       MOVS     r0,#7
        0x0110047c:    8048        H.      STRH     r0,[r1,#2]
        0x0110047e:    2201        ."      MOVS     r2,#1
        0x01100480:    4611        .F      MOV      r1,r2
        0x01100482:    4668        hF      MOV      r0,sp
        0x01100484:    f7ffffb8    ....    BL       llc_init_tx_command ; 0x11003f8
        0x01100488:    2800        .(      CMP      r0,#0
        0x0110048a:    d019        ..      BEQ      0x11004c0 ; p_llc_init_trim_up_load_new + 120
        0x0110048c:    4669        iF      MOV      r1,sp
        0x0110048e:    720f        .r      STRB     r7,[r1,#8]
        0x01100490:    22fc        ."      MOVS     r2,#0xfc
        0x01100492:    724a        Jr      STRB     r2,[r1,#9]
        0x01100494:    728e        .r      STRB     r6,[r1,#0xa]
        0x01100496:    1ce0        ..      ADDS     r0,r4,#3
        0x01100498:    462a        *F      MOV      r2,r5
        0x0110049a:    9944        D.      LDR      r1,[sp,#0x110]
        0x0110049c:    f000fcf6    ....    BL       __aeabi_memcpy ; 0x1100e8c
        0x011004a0:    4669        iF      MOV      r1,sp
        0x011004a2:    1ced        ..      ADDS     r5,r5,#3
        0x011004a4:    804d        M.      STRH     r5,[r1,#2]
        0x011004a6:    2201        ."      MOVS     r2,#1
        0x011004a8:    4611        .F      MOV      r1,r2
        0x011004aa:    4668        hF      MOV      r0,sp
        0x011004ac:    f7ffffa4    ....    BL       llc_init_tx_command ; 0x11003f8
        0x011004b0:    2800        .(      CMP      r0,#0
        0x011004b2:    d008        ..      BEQ      0x11004c6 ; p_llc_init_trim_up_load_new + 126
        0x011004b4:    a00c        ..      ADR      r0,{pc}+0x34 ; 0x11004e8
        0x011004b6:    f000fdf7    ....    BL       $Ven$TT$L$$printk ; 0x11010a8
        0x011004ba:    2001        .       MOVS     r0,#1
        0x011004bc:    b045        E.      ADD      sp,sp,#0x114
        0x011004be:    bdf0        ..      POP      {r4-r7,pc}
        0x011004c0:    a00e        ..      ADR      r0,{pc}+0x3c ; 0x11004fc
        0x011004c2:    9942        B.      LDR      r1,[sp,#0x108]
        0x011004c4:    e001        ..      B        0x11004ca ; p_llc_init_trim_up_load_new + 130
        0x011004c6:    a015        ..      ADR      r0,{pc}+0x56 ; 0x110051c
        0x011004c8:    9942        B.      LDR      r1,[sp,#0x108]
        0x011004ca:    f000fded    ....    BL       $Ven$TT$L$$printk ; 0x11010a8
        0x011004ce:    2000        .       MOVS     r0,#0
        0x011004d0:    e7f4        ..      B        0x11004bc ; p_llc_init_trim_up_load_new + 116
    $d
        0x011004d2:    0000        ..      DCW    0
        0x011004d4:    49636c6c    llcI    DCD    1231252588
        0x011004d8:    5474696e    nitT    DCD    1416915310
        0x011004dc:    556d6972    rimU    DCD    1433233778
        0x011004e0:    616f6c70    ploa    DCD    1634692208
        0x011004e4:    00000a64    d...    DCD    2660
        0x011004e8:    54207854    Tx T    DCD    1411414100
        0x011004ec:    5f4d4952    RIM_    DCD    1598900562
        0x011004f0:    41544144    DATA    DCD    1096040772
        0x011004f4:    6e6f6420     don    DCD    1852793888
        0x011004f8:    00000a65    e...    DCD    2661
        0x011004fc:    54207854    Tx T    DCD    1411414100
        0x01100500:    5f4d4952    RIM_    DCD    1598900562
        0x01100504:    44414f4c    LOAD    DCD    1145130828
        0x01100508:    69616620     fai    DCD    1767990816
        0x0110050c:    2c64656c    led,    DCD    744777068
        0x01100510:    70797420     typ    DCD    1887007776
        0x01100514:    78303a65    e:0x    DCD    2016426597
        0x01100518:    000a7825    %x..    DCD    686117
        0x0110051c:    54207854    Tx T    DCD    1411414100
        0x01100520:    5f4d4952    RIM_    DCD    1598900562
        0x01100524:    41544144    DATA    DCD    1096040772
        0x01100528:    69616620     fai    DCD    1767990816
        0x0110052c:    2c64656c    led,    DCD    744777068
        0x01100530:    70797420     typ    DCD    1887007776
        0x01100534:    78303a65    e:0x    DCD    2016426597
        0x01100538:    000a7825    %x..    DCD    686117
    $t
    .init.once.text."..\\..\\..\\..\\drivers\\dma\\dma_acts.c".0
    dma_acts_init_config
        0x0110053c:    b510        ..      PUSH     {r4,lr}
        0x0110053e:    4808        .H      LDR      r0,[pc,#32] ; [0x1100560] = 0x200059b0
        0x01100540:    4906        .I      LDR      r1,[pc,#24] ; [0x110055c] = 0x200016e0
        0x01100542:    6681        .f      STR      r1,[r0,#0x68]
        0x01100544:    4907        .I      LDR      r1,[pc,#28] ; [0x1100564] = 0x115d7
        0x01100546:    66c1        .f      STR      r1,[r0,#0x6c]
        0x01100548:    2200        ."      MOVS     r2,#0
        0x0110054a:    2103        .!      MOVS     r1,#3
        0x0110054c:    200d        .       MOVS     r0,#0xd
        0x0110054e:    f000fddb    ....    BL       $Ven$TT$L$$_irq_priority_set ; 0x1101108
        0x01100552:    200d        .       MOVS     r0,#0xd
        0x01100554:    f000fe14    ....    BL       $Ven$TT$L$$_arch_irq_enable ; 0x1101180
        0x01100558:    bd10        ..      POP      {r4,pc}
    $d
        0x0110055a:    0000        ..      DCW    0
        0x0110055c:    200016e0    ...     DCD    536876768
        0x01100560:    200059b0    .Y.     DCD    536893872
        0x01100564:    000115d7    ....    DCD    71127
    $t
    .init.once.text."..\\..\\..\\..\\drivers\\uart\\uart_acts.c".0
    uart_acts_irq_config_0
        0x01100568:    b510        ..      PUSH     {r4,lr}
        0x0110056a:    4808        .H      LDR      r0,[pc,#32] ; [0x110058c] = 0x200059b0
        0x0110056c:    4906        .I      LDR      r1,[pc,#24] ; [0x1100588] = 0x20001704
        0x0110056e:    6781        .g      STR      r1,[r0,#0x78]
        0x01100570:    4907        .I      LDR      r1,[pc,#28] ; [0x1100590] = 0xda91
        0x01100572:    67c1        .g      STR      r1,[r0,#0x7c]
        0x01100574:    2200        ."      MOVS     r2,#0
        0x01100576:    4611        .F      MOV      r1,r2
        0x01100578:    200f        .       MOVS     r0,#0xf
        0x0110057a:    f000fdc5    ....    BL       $Ven$TT$L$$_irq_priority_set ; 0x1101108
        0x0110057e:    200f        .       MOVS     r0,#0xf
        0x01100580:    f000fdfe    ....    BL       $Ven$TT$L$$_arch_irq_enable ; 0x1101180
        0x01100584:    bd10        ..      POP      {r4,pc}
    $d
        0x01100586:    0000        ..      DCW    0
        0x01100588:    20001704    ...     DCD    536876804
        0x0110058c:    200059b0    .Y.     DCD    536893872
        0x01100590:    0000da91    ....    DCD    55953
    $t
    .init.once.text."..\\..\\..\\..\\ext\\lib\\actions\\framework\\input_manager.c".2
    input_manager_init
        0x01100594:    b570        p.      PUSH     {r4-r6,lr}
        0x01100596:    460c        .F      MOV      r4,r1
        0x01100598:    4605        .F      MOV      r5,r0
        0x0110059a:    a115        ..      ADR      r1,{pc}+0x56 ; 0x11005f0
        0x0110059c:    4817        .H      LDR      r0,[pc,#92] ; [0x11005fc] = 0x110383d
        0x0110059e:    f003f91b    ....    BL       key_device_open ; 0x11037d8
        0x011005a2:    2800        .(      CMP      r0,#0
        0x011005a4:    d00b        ..      BEQ      0x11005be ; input_manager_init + 42
        0x011005a6:    a116        ..      ADR      r1,{pc}+0x5a ; 0x1100600
        0x011005a8:    4814        .H      LDR      r0,[pc,#80] ; [0x11005fc] = 0x110383d
        0x011005aa:    f001fca5    ....    BL       adckey_device_open ; 0x1101ef8
        0x011005ae:    2800        .(      CMP      r0,#0
        0x011005b0:    d00a        ..      BEQ      0x11005c8 ; input_manager_init + 52
        0x011005b2:    4816        .H      LDR      r0,[pc,#88] ; [0x110060c] = 0x20001b04
        0x011005b4:    2c00        .,      CMP      r4,#0
        0x011005b6:    6802        .h      LDR      r2,[r0,#0]
        0x011005b8:    6015        .`      STR      r5,[r2,#0]
        0x011005ba:    d10e        ..      BNE      0x11005da ; input_manager_init + 70
        0x011005bc:    e00c        ..      B        0x11005d8 ; input_manager_init + 68
        0x011005be:    a30e        ..      ADR      r3,{pc}+0x3a ; 0x11005f8
        0x011005c0:    a20d        ..      ADR      r2,{pc}+0x38 ; 0x11005f8
        0x011005c2:    a113        ..      ADR      r1,{pc}+0x4e ; 0x1100610
        0x011005c4:    a014        ..      ADR      r0,{pc}+0x54 ; 0x1100618
        0x011005c6:    e003        ..      B        0x11005d0 ; input_manager_init + 60
        0x011005c8:    a30b        ..      ADR      r3,{pc}+0x30 ; 0x11005f8
        0x011005ca:    a20b        ..      ADR      r2,{pc}+0x2e ; 0x11005f8
        0x011005cc:    a110        ..      ADR      r1,{pc}+0x44 ; 0x1100610
        0x011005ce:    a01c        ..      ADR      r0,{pc}+0x72 ; 0x1100640
        0x011005d0:    f000fd6a    ..j.    BL       $Ven$TT$L$$printk ; 0x11010a8
        0x011005d4:    2000        .       MOVS     r0,#0
        0x011005d6:    bd70        p.      POP      {r4-r6,pc}
        0x011005d8:    4c23        #L      LDR      r4,[pc,#140] ; [0x1100668] = 0x11037a1
        0x011005da:    6054        T`      STR      r4,[r2,#4]
        0x011005dc:    a306        ..      ADR      r3,{pc}+0x1c ; 0x11005f8
        0x011005de:    a206        ..      ADR      r2,{pc}+0x1a ; 0x11005f8
        0x011005e0:    a10b        ..      ADR      r1,{pc}+0x30 ; 0x1100610
        0x011005e2:    a022        ".      ADR      r0,{pc}+0x8a ; 0x110066c
        0x011005e4:    f000fd60    ..`.    BL       $Ven$TT$L$$printk ; 0x11010a8
        0x011005e8:    f002feb6    ....    BL       input_event_lock ; 0x1103358
        0x011005ec:    2001        .       MOVS     r0,#1
        0x011005ee:    bd70        p.      POP      {r4-r6,pc}
    $d
        0x011005f0:    454b584d    MXKE    DCD    1162565709
        0x011005f4:    44415059    YPAD    DCD    1145131097
        0x011005f8:    00000000    ....    DCD    0
        0x011005fc:    0110383d    =8..    DCD    17840189
        0x01100600:    4b434441    ADCK    DCD    1262699585
        0x01100604:    305f5945    EY_0    DCD    811555141
        0x01100608:    00000000    ....    DCD    0
        0x0110060c:    20001b04    ...     DCD    536877828
        0x01100610:    75706e69    inpu    DCD    1970302569
        0x01100614:    00000074    t...    DCD    116
        0x01100618:    5d73255b    [%s]    DCD    1567827291
        0x0110061c:    6f732520     %so    DCD    1869817120
        0x01100620:    206e6570    pen     DCD    544105840
        0x01100624:    656b786d    mxke    DCD    1701541997
        0x01100628:    64706179    yapd    DCD    1685086585
        0x0110062c:    76656420     dev    DCD    1986356256
        0x01100630:    73656369    ices    DCD    1936024425
        0x01100634:    69616620     fai    DCD    1767990816
        0x01100638:    2564656c    led%    DCD    627336556
        0x0110063c:    00000a73    s...    DCD    2675
        0x01100640:    5d73255b    [%s]    DCD    1567827291
        0x01100644:    6f732520     %so    DCD    1869817120
        0x01100648:    206e6570    pen     DCD    544105840
        0x0110064c:    6b636461    adck    DCD    1801675873
        0x01100650:    20307965    ey0     DCD    540047717
        0x01100654:    69766564    devi    DCD    1769366884
        0x01100658:    20736563    ces     DCD    544433507
        0x0110065c:    6c696166    fail    DCD    1818845542
        0x01100660:    73256465    ed%s    DCD    1931830373
        0x01100664:    0000000a    ....    DCD    10
        0x01100668:    011037a1    .7..    DCD    17840033
        0x0110066c:    5d73255b    [%s]    DCD    1567827291
        0x01100670:    69732520     %si    DCD    1769153824
        0x01100674:    7475706e    nput    DCD    1953853550
        0x01100678:    6e616d5f    _man    DCD    1851878751
        0x0110067c:    72656761    ager    DCD    1919248225
        0x01100680:    696e695f    _ini    DCD    1768843615
        0x01100684:    75732074    t su    DCD    1970479220
        0x01100688:    73656363    cces    DCD    1936024419
        0x0110068c:    0a732573    s%s.    DCD    175318387
        0x01100690:    00000000    ....    DCD    0
    $t
    .init.once.text."..\\..\\..\\..\\ext\\lib\\actions\\framework\\led_manager.c".0
    led_manager_init
        0x01100694:    b570        p.      PUSH     {r4-r6,lr}
        0x01100696:    4d08        .M      LDR      r5,[pc,#32] ; [0x11006b8] = 0x1105ff4
        0x01100698:    4e08        .N      LDR      r6,[pc,#32] ; [0x11006bc] = 0x200061e4
        0x0110069a:    2400        .$      MOVS     r4,#0
        0x0110069c:    0060        `.      LSLS     r0,r4,#1
        0x0110069e:    1820         .      ADDS     r0,r4,r0
        0x011006a0:    1941        A.      ADDS     r1,r0,r5
        0x011006a2:    2054        T       MOVS     r0,#0x54
        0x011006a4:    4360        `C      MULS     r0,r4,r0
        0x011006a6:    1980        ..      ADDS     r0,r0,r6
        0x011006a8:    f003f9b8    ....    BL       led_device_init ; 0x1103a1c
        0x011006ac:    1c64        d.      ADDS     r4,r4,#1
        0x011006ae:    2c03        .,      CMP      r4,#3
        0x011006b0:    d3f4        ..      BCC      0x110069c ; led_manager_init + 8
        0x011006b2:    2001        .       MOVS     r0,#1
        0x011006b4:    bd70        p.      POP      {r4-r6,pc}
    $d
        0x011006b6:    0000        ..      DCW    0
        0x011006b8:    01105ff4    ._..    DCD    17850356
        0x011006bc:    200061e4    .a.     DCD    536895972
    $t
    .init.once.text."..\\..\\..\\..\\ext\\lib\\actions\\ota\\ota.c".0
    ota_profile_init
        0x011006c0:    b510        ..      PUSH     {r4,lr}
        0x011006c2:    2170        p!      MOVS     r1,#0x70
        0x011006c4:    4809        .H      LDR      r0,[pc,#36] ; [0x11006ec] = 0x20006b68
        0x011006c6:    f000fbfa    ....    BL       __aeabi_memclr ; 0x1100ebe
        0x011006ca:    4809        .H      LDR      r0,[pc,#36] ; [0x11006f0] = 0x11044b5
        0x011006cc:    f003fe80    ....    BL       ota_register ; 0x11043d0
        0x011006d0:    f003fe76    ..v.    BL       ota_init ; 0x11043c0
        0x011006d4:    f003fea4    ....    BL       ota_storage_init ; 0x1104420
        0x011006d8:    4904        .I      LDR      r1,[pc,#16] ; [0x11006ec] = 0x20006b68
        0x011006da:    2200        ."      MOVS     r2,#0
        0x011006dc:    6388        .c      STR      r0,[r1,#0x38]
        0x011006de:    4803        .H      LDR      r0,[pc,#12] ; [0x11006ec] = 0x20006b68
        0x011006e0:    4904        .I      LDR      r1,[pc,#16] ; [0x11006f4] = 0x110449d
        0x011006e2:    303c        <0      ADDS     r0,r0,#0x3c
        0x011006e4:    f000fd52    ..R.    BL       $Ven$TT$L$$k_timer_init ; 0x110118c
        0x011006e8:    bd10        ..      POP      {r4,pc}
    $d
        0x011006ea:    0000        ..      DCW    0
        0x011006ec:    20006b68    hk.     DCD    536898408
        0x011006f0:    011044b5    .D..    DCD    17843381
        0x011006f4:    0110449d    .D..    DCD    17843357
    $t
    .init.once.text."..\\..\\..\\..\\ext\\lib\\actions\\startup\\system.c".0
    SystemInit
        0x011006f8:    b500        ..      PUSH     {lr}
        0x011006fa:    4903        .I      LDR      r1,[pc,#12] ; [0x1100708] = 0x4000401c
        0x011006fc:    2000        .       MOVS     r0,#0
        0x011006fe:    6008        .`      STR      r0,[r1,#0]
        0x01100700:    f002fb80    ....    BL       debug_uart_init ; 0x1102e04
        0x01100704:    bd00        ..      POP      {pc}
    $d
        0x01100706:    0000        ..      DCW    0
        0x01100708:    4000401c    .@.@    DCD    1073758236
    $t
    .init.once.text."..\\..\\..\\..\\kernel\\kernel_config_init.c".4
    kernel_config_init
        0x0110070c:    b510        ..      PUSH     {r4,lr}
        0x0110070e:    2401        .$      MOVS     r4,#1
        0x01100710:    02a4        ..      LSLS     r4,r4,#10
        0x01100712:    2200        ."      MOVS     r2,#0
        0x01100714:    4621        !F      MOV      r1,r4
        0x01100716:    4815        .H      LDR      r0,[pc,#84] ; [0x110076c] = 0x200030d8
        0x01100718:    f000fd3e    ..>.    BL       $Ven$TT$L$$main_thread_init ; 0x1101198
        0x0110071c:    2800        .(      CMP      r0,#0
        0x0110071e:    d124        $.      BNE      0x110076a ; kernel_config_init + 94
        0x01100720:    220f        ."      MOVS     r2,#0xf
        0x01100722:    1061        a.      ASRS     r1,r4,#1
        0x01100724:    4812        .H      LDR      r0,[pc,#72] ; [0x1100770] = 0x20001038
        0x01100726:    f000fd3d    ..=.    BL       $Ven$TT$L$$idle_thread_init ; 0x11011a4
        0x0110072a:    2800        .(      CMP      r0,#0
        0x0110072c:    d11d        ..      BNE      0x110076a ; kernel_config_init + 94
        0x0110072e:    2105        .!      MOVS     r1,#5
        0x01100730:    01c9        ..      LSLS     r1,r1,#7
        0x01100732:    4810        .H      LDR      r0,[pc,#64] ; [0x1100774] = 0x20006f28
        0x01100734:    f000fd3c    ..<.    BL       $Ven$TT$L$$interrupt_stack_init ; 0x11011b0
        0x01100738:    2800        .(      CMP      r0,#0
        0x0110073a:    d116        ..      BNE      0x110076a ; kernel_config_init + 94
        0x0110073c:    1e42        B.      SUBS     r2,r0,#1
        0x0110073e:    4621        !F      MOV      r1,r4
        0x01100740:    480d        .H      LDR      r0,[pc,#52] ; [0x1100778] = 0x200034d8
        0x01100742:    f000fd3b    ..;.    BL       $Ven$TT$L$$sys_work_queue_init ; 0x11011bc
        0x01100746:    2800        .(      CMP      r0,#0
        0x01100748:    d10f        ..      BNE      0x110076a ; kernel_config_init + 94
        0x0110074a:    490d        .I      LDR      r1,[pc,#52] ; [0x1100780] = 0x20000dac
        0x0110074c:    480b        .H      LDR      r0,[pc,#44] ; [0x110077c] = 0x200017e4
        0x0110074e:    6008        .`      STR      r0,[r1,#0]
        0x01100750:    490d        .I      LDR      r1,[pc,#52] ; [0x1100788] = 0x20000a44
        0x01100752:    480c        .H      LDR      r0,[pc,#48] ; [0x1100784] = 0x2000194c
        0x01100754:    6008        .`      STR      r0,[r1,#0]
        0x01100756:    490e        .I      LDR      r1,[pc,#56] ; [0x1100790] = 0x20000984
        0x01100758:    480c        .H      LDR      r0,[pc,#48] ; [0x110078c] = 0x2000194c
        0x0110075a:    6008        .`      STR      r0,[r1,#0]
        0x0110075c:    490e        .I      LDR      r1,[pc,#56] ; [0x1100798] = 0x20000a48
        0x0110075e:    480d        .H      LDR      r0,[pc,#52] ; [0x1100794] = 0x200038d8
        0x01100760:    6008        .`      STR      r0,[r1,#0]
        0x01100762:    490f        .I      LDR      r1,[pc,#60] ; [0x11007a0] = 0x200009c8
        0x01100764:    480d        .H      LDR      r0,[pc,#52] ; [0x110079c] = 0x20001a20
        0x01100766:    6008        .`      STR      r0,[r1,#0]
        0x01100768:    2000        .       MOVS     r0,#0
        0x0110076a:    bd10        ..      POP      {r4,pc}
    $d
        0x0110076c:    200030d8    .0.     DCD    536883416
        0x01100770:    20001038    8..     DCD    536875064
        0x01100774:    20006f28    (o.     DCD    536899368
        0x01100778:    200034d8    .4.     DCD    536884440
        0x0110077c:    200017e4    ...     DCD    536877028
        0x01100780:    20000dac    ...     DCD    536874412
        0x01100784:    2000194c    L..     DCD    536877388
        0x01100788:    20000a44    D..     DCD    536873540
        0x0110078c:    2000194c    L..     DCD    536877388
        0x01100790:    20000984    ...     DCD    536873348
        0x01100794:    200038d8    .8.     DCD    536885464
        0x01100798:    20000a48    H..     DCD    536873544
        0x0110079c:    20001a20     ..     DCD    536877600
        0x011007a0:    200009c8    ...     DCD    536873416
    $t
    .init.once.text."..\\..\\..\\..\\subsys\\bluetooth\\host\\bt_host_config_init.c".8
    bt_host_config_init
        0x011007a4:    b510        ..      PUSH     {r4,lr}
        0x011007a6:    218b        .!      MOVS     r1,#0x8b
        0x011007a8:    b088        ..      SUB      sp,sp,#0x20
        0x011007aa:    2207        ."      MOVS     r2,#7
        0x011007ac:    0089        ..      LSLS     r1,r1,#2
        0x011007ae:    485c        \H      LDR      r0,[pc,#368] ; [0x1100920] = 0x20004188
        0x011007b0:    f000fd0a    ....    BL       $Ven$TT$L$$bt_tx_thread_init ; 0x11011c8
        0x011007b4:    2800        .(      CMP      r0,#0
        0x011007b6:    d17d        }.      BNE      0x11008b4 ; bt_host_config_init + 272
        0x011007b8:    2105        .!      MOVS     r1,#5
        0x011007ba:    2208        ."      MOVS     r2,#8
        0x011007bc:    0209        ..      LSLS     r1,r1,#8
        0x011007be:    4859        YH      LDR      r0,[pc,#356] ; [0x1100924] = 0x200043b8
        0x011007c0:    f000fd08    ....    BL       $Ven$TT$L$$bt_rx_thread_init ; 0x11011d4
        0x011007c4:    2800        .(      CMP      r0,#0
        0x011007c6:    d175        u.      BNE      0x11008b4 ; bt_host_config_init + 272
        0x011007c8:    4857        WH      LDR      r0,[pc,#348] ; [0x1100928] = 0x2000180c
        0x011007ca:    f000fd09    ....    BL       $Ven$TT$L$$bt_hci_cmd_pool_init ; 0x11011e0
        0x011007ce:    2800        .(      CMP      r0,#0
        0x011007d0:    d170        p.      BNE      0x11008b4 ; bt_host_config_init + 272
        0x011007d2:    2103        .!      MOVS     r1,#3
        0x011007d4:    4855        UH      LDR      r0,[pc,#340] ; [0x110092c] = 0x200021cc
        0x011007d6:    f000fd09    ....    BL       $Ven$TT$L$$bt_hci_rx_pool_init ; 0x11011ec
        0x011007da:    2800        .(      CMP      r0,#0
        0x011007dc:    d16a        j.      BNE      0x11008b4 ; bt_host_config_init + 272
        0x011007de:    4854        TH      LDR      r0,[pc,#336] ; [0x1100930] = 0x200017e4
        0x011007e0:    f000fd0a    ....    BL       $Ven$TT$L$$bt_acl_tx_pool_init ; 0x11011f8
        0x011007e4:    2800        .(      CMP      r0,#0
        0x011007e6:    d165        e.      BNE      0x11008b4 ; bt_host_config_init + 272
        0x011007e8:    2100        .!      MOVS     r1,#0
        0x011007ea:    4852        RH      LDR      r0,[pc,#328] ; [0x1100934] = 0x20001924
        0x011007ec:    f000fd0a    ....    BL       $Ven$TT$L$$bt_prep_pool_int ; 0x1101204
        0x011007f0:    2800        .(      CMP      r0,#0
        0x011007f2:    d15f        _.      BNE      0x11008b4 ; bt_host_config_init + 272
        0x011007f4:    2002        .       MOVS     r0,#2
        0x011007f6:    f000fd0b    ....    BL       $Ven$TT$L$$bt_l2cap_le_max_credits_init ; 0x1101210
        0x011007fa:    2800        .(      CMP      r0,#0
        0x011007fc:    d15a        Z.      BNE      0x11008b4 ; bt_host_config_init + 272
        0x011007fe:    2142        B!      MOVS     r1,#0x42
        0x01100800:    2044        D       MOVS     r0,#0x44
        0x01100802:    f000fd0b    ....    BL       $Ven$TT$L$$bt_l2cap_pramter_init ; 0x110121c
        0x01100806:    2800        .(      CMP      r0,#0
        0x01100808:    d154        T.      BNE      0x11008b4 ; bt_host_config_init + 272
        0x0110080a:    2107        .!      MOVS     r1,#7
        0x0110080c:    484a        JH      LDR      r0,[pc,#296] ; [0x1100938] = 0x20006410
        0x0110080e:    f000fd0b    ....    BL       $Ven$TT$L$$bt_conn_tx_init ; 0x1101228
        0x01100812:    2800        .(      CMP      r0,#0
        0x01100814:    d14e        N.      BNE      0x11008b4 ; bt_host_config_init + 272
        0x01100816:    4848        HH      LDR      r0,[pc,#288] ; [0x1100938] = 0x20006410
        0x01100818:    2101        .!      MOVS     r1,#1
        0x0110081a:    3038        80      ADDS     r0,r0,#0x38
        0x0110081c:    f000fd0a    ....    BL       $Ven$TT$L$$bt_conn_struct_init ; 0x1101234
        0x01100820:    2800        .(      CMP      r0,#0
        0x01100822:    d17a        z.      BNE      0x110091a ; bt_host_config_init + 374
        0x01100824:    4844        DH      LDR      r0,[pc,#272] ; [0x1100938] = 0x20006410
        0x01100826:    2101        .!      MOVS     r1,#1
        0x01100828:    30fc        .0      ADDS     r0,r0,#0xfc
        0x0110082a:    f000fd09    ....    BL       $Ven$TT$L$$bt_req_pool_int ; 0x1101240
        0x0110082e:    2800        .(      CMP      r0,#0
        0x01100830:    d173        s.      BNE      0x110091a ; bt_host_config_init + 374
        0x01100832:    2101        .!      MOVS     r1,#1
        0x01100834:    4841        AH      LDR      r0,[pc,#260] ; [0x110093c] = 0x20006608
        0x01100836:    f000fd09    ....    BL       $Ven$TT$L$$bt_l2cap_pool_init ; 0x110124c
        0x0110083a:    2800        .(      CMP      r0,#0
        0x0110083c:    d16d        m.      BNE      0x110091a ; bt_host_config_init + 374
        0x0110083e:    483b        ;H      LDR      r0,[pc,#236] ; [0x110092c] = 0x200021cc
        0x01100840:    300c        .0      ADDS     r0,r0,#0xc
        0x01100842:    f000fd09    ....    BL       $Ven$TT$L$$bt_tx_poll_event_init ; 0x1101258
        0x01100846:    2800        .(      CMP      r0,#0
        0x01100848:    d167        g.      BNE      0x110091a ; bt_host_config_init + 374
        0x0110084a:    2102        .!      MOVS     r1,#2
        0x0110084c:    2041        A       MOVS     r0,#0x41
        0x0110084e:    f000fd09    ....    BL       $Ven$TT$L$$bt_att_paramter_init ; 0x1101264
        0x01100852:    2800        .(      CMP      r0,#0
        0x01100854:    d161        a.      BNE      0x110091a ; bt_host_config_init + 374
        0x01100856:    4c35        5L      LDR      r4,[pc,#212] ; [0x110092c] = 0x200021cc
        0x01100858:    3c08        .<      SUBS     r4,r4,#8
        0x0110085a:    6860        `h      LDR      r0,[r4,#4]
        0x0110085c:    f000fd08    ....    BL       $Ven$TT$L$$strlen ; 0x1101270
        0x01100860:    b281        ..      UXTH     r1,r0
        0x01100862:    8822        ".      LDRH     r2,[r4,#0]
        0x01100864:    6860        `h      LDR      r0,[r4,#4]
        0x01100866:    f000fd09    ....    BL       $Ven$TT$L$$bt_gap_svc_config_init ; 0x110127c
        0x0110086a:    2800        .(      CMP      r0,#0
        0x0110086c:    d155        U.      BNE      0x110091a ; bt_host_config_init + 374
        0x0110086e:    4832        2H      LDR      r0,[pc,#200] ; [0x1100938] = 0x20006410
        0x01100870:    4a33        3J      LDR      r2,[pc,#204] ; [0x1100940] = 0x1104d31
        0x01100872:    2101        .!      MOVS     r1,#1
        0x01100874:    3810        .8      SUBS     r0,r0,#0x10
        0x01100876:    f000fd07    ....    BL       $Ven$TT$L$$bt_gatt_svc_config_init ; 0x1101288
        0x0110087a:    2800        .(      CMP      r0,#0
        0x0110087c:    d14d        M.      BNE      0x110091a ; bt_host_config_init + 374
        0x0110087e:    2001        .       MOVS     r0,#1
        0x01100880:    f000fd08    ....    BL       $Ven$TT$L$$bt_enable_smp ; 0x1101294
        0x01100884:    2800        .(      CMP      r0,#0
        0x01100886:    d148        H.      BNE      0x110091a ; bt_host_config_init + 374
        0x01100888:    482c        ,H      LDR      r0,[pc,#176] ; [0x110093c] = 0x20006608
        0x0110088a:    2101        .!      MOVS     r1,#1
        0x0110088c:    309c        .0      ADDS     r0,r0,#0x9c
        0x0110088e:    f000fd07    ....    BL       $Ven$TT$L$$bt_smp_pool_init ; 0x11012a0
        0x01100892:    2800        .(      CMP      r0,#0
        0x01100894:    d141        A.      BNE      0x110091a ; bt_host_config_init + 374
        0x01100896:    2101        .!      MOVS     r1,#1
        0x01100898:    482a        *H      LDR      r0,[pc,#168] ; [0x1100944] = 0x20006848
        0x0110089a:    f000fd07    ....    BL       $Ven$TT$L$$bt_host_keys_init ; 0x11012ac
        0x0110089e:    2800        .(      CMP      r0,#0
        0x011008a0:    d13b        ;.      BNE      0x110091a ; bt_host_config_init + 374
        0x011008a2:    207d        }       MOVS     r0,#0x7d
        0x011008a4:    00c0        ..      LSLS     r0,r0,#3
        0x011008a6:    f000fd07    ....    BL       $Ven$TT$L$$bt_set_delay_time_read_remote_features ; 0x11012b8
        0x011008aa:    2800        .(      CMP      r0,#0
        0x011008ac:    d135        5.      BNE      0x110091a ; bt_host_config_init + 374
        0x011008ae:    2100        .!      MOVS     r1,#0
        0x011008b0:    2003        .       MOVS     r0,#3
        0x011008b2:    e000        ..      B        0x11008b6 ; bt_host_config_init + 274
        0x011008b4:    e031        1.      B        0x110091a ; bt_host_config_init + 374
        0x011008b6:    f000fd05    ....    BL       $Ven$TT$L$$hci_set_le_sup_feat ; 0x11012c4
        0x011008ba:    2100        .!      MOVS     r1,#0
        0x011008bc:    2008        .       MOVS     r0,#8
        0x011008be:    f000fd01    ....    BL       $Ven$TT$L$$hci_set_le_sup_feat ; 0x11012c4
        0x011008c2:    2100        .!      MOVS     r1,#0
        0x011008c4:    2005        .       MOVS     r0,#5
        0x011008c6:    f000fcfd    ....    BL       $Ven$TT$L$$hci_set_le_sup_feat ; 0x11012c4
        0x011008ca:    2100        .!      MOVS     r1,#0
        0x011008cc:    2006        .       MOVS     r0,#6
        0x011008ce:    f000fcf9    ....    BL       $Ven$TT$L$$hci_set_le_sup_feat ; 0x11012c4
        0x011008d2:    2104        .!      MOVS     r1,#4
        0x011008d4:    2280        ."      MOVS     r2,#0x80
        0x011008d6:    4608        .F      MOV      r0,r1
        0x011008d8:    f000fcfa    ....    BL       $Ven$TT$L$$hci_vs_cfg_acl_bufs ; 0x11012d0
        0x011008dc:    2001        .       MOVS     r0,#1
        0x011008de:    f000fcfd    ....    BL       $Ven$TT$L$$hci_vs_cfg_max_conn ; 0x11012dc
        0x011008e2:    21ff        .!      MOVS     r1,#0xff
        0x011008e4:    201f        .       MOVS     r0,#0x1f
        0x011008e6:    2208        ."      MOVS     r2,#8
        0x011008e8:    3115        .1      ADDS     r1,r1,#0x15
        0x011008ea:    0140        @.      LSLS     r0,r0,#5
        0x011008ec:    f000fcfc    ....    BL       $Ven$TT$L$$hci_vs_cfg_version ; 0x11012e8
        0x011008f0:    2214        ."      MOVS     r2,#0x14
        0x011008f2:    a115        ..      ADR      r1,{pc}+0x56 ; 0x1100948
        0x011008f4:    4668        hF      MOV      r0,sp
        0x011008f6:    f000fac9    ....    BL       __aeabi_memcpy ; 0x1100e8c
        0x011008fa:    a905        ..      ADD      r1,sp,#0x14
        0x011008fc:    4668        hF      MOV      r0,sp
        0x011008fe:    f004fecd    ....    BL       str2bt_addr ; 0x110569c
        0x01100902:    a805        ..      ADD      r0,sp,#0x14
        0x01100904:    f000fcf6    ....    BL       $Ven$TT$L$$hci_vs_cfg_bd_addr ; 0x11012f4
        0x01100908:    2201        ."      MOVS     r2,#1
        0x0110090a:    210e        .!      MOVS     r1,#0xe
        0x0110090c:    2003        .       MOVS     r0,#3
        0x0110090e:    f000fcf7    ....    BL       $Ven$TT$L$$hci_vs_cfg_pwr_mgmt ; 0x1101300
        0x01100912:    2000        .       MOVS     r0,#0
        0x01100914:    f000fcfa    ....    BL       $Ven$TT$L$$enable_scan_with_identity ; 0x110130c
        0x01100918:    2000        .       MOVS     r0,#0
        0x0110091a:    b008        ..      ADD      sp,sp,#0x20
        0x0110091c:    bd10        ..      POP      {r4,pc}
    $d
        0x0110091e:    0000        ..      DCW    0
        0x01100920:    20004188    .A.     DCD    536887688
        0x01100924:    200043b8    .C.     DCD    536888248
        0x01100928:    2000180c    ...     DCD    536877068
        0x0110092c:    200021cc    .!.     DCD    536879564
        0x01100930:    200017e4    ...     DCD    536877028
        0x01100934:    20001924    $..     DCD    536877348
        0x01100938:    20006410    .d.     DCD    536896528
        0x0110093c:    20006608    .f.     DCD    536897032
        0x01100940:    01104d31    1M..    DCD    17845553
        0x01100944:    20006848    Hh.     DCD    536897608
        0x01100948:    323a3132    21:2    DCD    842674482
        0x0110094c:    33333a32    2:33    DCD    858995250
        0x01100950:    3a34343a    :44:    DCD    976499770
        0x01100954:    363a3535    55:6    DCD    909784373
        0x01100958:    00000036    6...    DCD    54
    $t
    .init.once.text."..\\..\\..\\..\\subsys\\bluetooth\\host\\bt_host_config_init.c".9
    _bt_host_config_init
        0x0110095c:    4903        .I      LDR      r1,[pc,#12] ; [0x110096c] = 0x20000c44
        0x0110095e:    4802        .H      LDR      r0,[pc,#8] ; [0x1100968] = 0x11007a5
        0x01100960:    6008        .`      STR      r0,[r1,#0]
        0x01100962:    2000        .       MOVS     r0,#0
        0x01100964:    4770        pG      BX       lr
    $d
        0x01100966:    0000        ..      DCW    0
        0x01100968:    011007a5    ....    DCD    17827749
        0x0110096c:    20000c44    D..     DCD    536874052
    $t
    .init.once.text."..\\..\\..\\..\\subsys\\shell\\shell.c".1
    shell_rom_init
        0x01100970:    b510        ..      PUSH     {r4,lr}
        0x01100972:    490f        .I      LDR      r1,[pc,#60] ; [0x11009b0] = 0x20000ef4
        0x01100974:    480d        .H      LDR      r0,[pc,#52] ; [0x11009ac] = 0x20006de4
        0x01100976:    6008        .`      STR      r0,[r1,#0]
        0x01100978:    490e        .I      LDR      r1,[pc,#56] ; [0x11009b4] = 0x20000df0
        0x0110097a:    3010        .0      ADDS     r0,r0,#0x10
        0x0110097c:    6008        .`      STR      r0,[r1,#0]
        0x0110097e:    490e        .I      LDR      r1,[pc,#56] ; [0x11009b8] = 0x20000fa0
        0x01100980:    2003        .       MOVS     r0,#3
        0x01100982:    6008        .`      STR      r0,[r1,#0]
        0x01100984:    490e        .I      LDR      r1,[pc,#56] ; [0x11009c0] = 0x20000fbc
        0x01100986:    480d        .H      LDR      r0,[pc,#52] ; [0x11009bc] = 0x20006c58
        0x01100988:    6008        .`      STR      r0,[r1,#0]
        0x0110098a:    490e        .I      LDR      r1,[pc,#56] ; [0x11009c4] = 0x20000fb8
        0x0110098c:    3880        .8      SUBS     r0,r0,#0x80
        0x0110098e:    6008        .`      STR      r0,[r1,#0]
        0x01100990:    480e        .H      LDR      r0,[pc,#56] ; [0x11009cc] = 0x20000c0c
        0x01100992:    490d        .I      LDR      r1,[pc,#52] ; [0x11009c8] = 0x2000194c
        0x01100994:    6001        .`      STR      r1,[r0,#0]
        0x01100996:    4a0f        .J      LDR      r2,[pc,#60] ; [0x11009d4] = 0x20000eec
        0x01100998:    480d        .H      LDR      r0,[pc,#52] ; [0x11009d0] = 0x20001958
        0x0110099a:    6010        .`      STR      r0,[r2,#0]
        0x0110099c:    1a40        @.      SUBS     r0,r0,r1
        0x0110099e:    210c        .!      MOVS     r1,#0xc
        0x011009a0:    f000fcba    ....    BL       $Ven$TT$L$$__aeabi_uidivmod ; 0x1101318
        0x011009a4:    490c        .I      LDR      r1,[pc,#48] ; [0x11009d8] = 0x20000bf8
        0x011009a6:    6008        .`      STR      r0,[r1,#0]
        0x011009a8:    bd10        ..      POP      {r4,pc}
    $d
        0x011009aa:    0000        ..      DCW    0
        0x011009ac:    20006de4    .m.     DCD    536899044
        0x011009b0:    20000ef4    ...     DCD    536874740
        0x011009b4:    20000df0    ...     DCD    536874480
        0x011009b8:    20000fa0    ...     DCD    536874912
        0x011009bc:    20006c58    Xl.     DCD    536898648
        0x011009c0:    20000fbc    ...     DCD    536874940
        0x011009c4:    20000fb8    ...     DCD    536874936
        0x011009c8:    2000194c    L..     DCD    536877388
        0x011009cc:    20000c0c    ...     DCD    536873996
        0x011009d0:    20001958    X..     DCD    536877400
        0x011009d4:    20000eec    ...     DCD    536874732
        0x011009d8:    20000bf8    ...     DCD    536873976
    $t
    .init.once.text."..\\..\\..\\..\\subsys\\shell\\shell.c".2
    shell_init
        0x011009dc:    b530        0.      PUSH     {r4,r5,lr}
        0x011009de:    b087        ..      SUB      sp,sp,#0x1c
        0x011009e0:    4604        .F      MOV      r4,r0
        0x011009e2:    f7ffffc5    ....    BL       shell_rom_init ; 0x1100970
        0x011009e6:    4813        .H      LDR      r0,[pc,#76] ; [0x1100a34] = 0x20000df0
        0x011009e8:    6800        .h      LDR      r0,[r0,#0]
        0x011009ea:    f000fc9b    ....    BL       $Ven$TT$L$$k_queue_init ; 0x1101324
        0x011009ee:    4d12        .M      LDR      r5,[pc,#72] ; [0x1100a38] = 0x20000ef4
        0x011009f0:    6828        (h      LDR      r0,[r5,#0]
        0x011009f2:    f000fc97    ....    BL       $Ven$TT$L$$k_queue_init ; 0x1101324
        0x011009f6:    f000fc9b    ....    BL       $Ven$TT$L$$line_queue_init ; 0x1101330
        0x011009fa:    2c00        .,      CMP      r4,#0
        0x011009fc:    d100        ..      BNE      0x1100a00 ; shell_init + 36
        0x011009fe:    a40f        ..      ADR      r4,{pc}+0x3e ; 0x1100a3c
        0x01100a00:    480f        .H      LDR      r0,[pc,#60] ; [0x1100a40] = 0x20000e44
        0x01100a02:    2108        .!      MOVS     r1,#8
        0x01100a04:    6004        .`      STR      r4,[r0,#0]
        0x01100a06:    2000        .       MOVS     r0,#0
        0x01100a08:    43c9        .C      MVNS     r1,r1
        0x01100a0a:    9005        ..      STR      r0,[sp,#0x14]
        0x01100a0c:    9002        ..      STR      r0,[sp,#8]
        0x01100a0e:    9004        ..      STR      r0,[sp,#0x10]
        0x01100a10:    9000        ..      STR      r0,[sp,#0]
        0x01100a12:    2201        ."      MOVS     r2,#1
        0x01100a14:    9103        ..      STR      r1,[sp,#0xc]
        0x01100a16:    9001        ..      STR      r0,[sp,#4]
        0x01100a18:    4b0a        .K      LDR      r3,[pc,#40] ; [0x1100a44] = 0x21cbd
        0x01100a1a:    0292        ..      LSLS     r2,r2,#10
        0x01100a1c:    490a        .I      LDR      r1,[pc,#40] ; [0x1100a48] = 0x200048b8
        0x01100a1e:    480b        .H      LDR      r0,[pc,#44] ; [0x1100a4c] = 0x20006bf0
        0x01100a20:    f000fc8c    ....    BL       $Ven$TT$L$$k_thread_create ; 0x110133c
        0x01100a24:    4a0a        .J      LDR      r2,[pc,#40] ; [0x1100a50] = 0x21cf9
        0x01100a26:    490b        .I      LDR      r1,[pc,#44] ; [0x1100a54] = 0x20006df4
        0x01100a28:    6828        (h      LDR      r0,[r5,#0]
        0x01100a2a:    f000fc8d    ....    BL       $Ven$TT$L$$uart_register_input ; 0x1101348
        0x01100a2e:    b007        ..      ADD      sp,sp,#0x1c
        0x01100a30:    bd30        0.      POP      {r4,r5,pc}
    $d
        0x01100a32:    0000        ..      DCW    0
        0x01100a34:    20000df0    ...     DCD    536874480
        0x01100a38:    20000ef4    ...     DCD    536874740
        0x01100a3c:    00000000    ....    DCD    0
        0x01100a40:    20000e44    D..     DCD    536874564
        0x01100a44:    00021cbd    ....    DCD    138429
        0x01100a48:    200048b8    .H.     DCD    536889528
        0x01100a4c:    20006bf0    .k.     DCD    536898544
        0x01100a50:    00021cf9    ....    DCD    138489
        0x01100a54:    20006df4    .m.     DCD    536899060
    $t
    .init.once.text."..\\..\\..\\..\\subsys\\shell\\shell_service.c".0
    shell_run
        0x01100a58:    b510        ..      PUSH     {r4,lr}
        0x01100a5a:    a002        ..      ADR      r0,{pc}+0xa ; 0x1100a64
        0x01100a5c:    f7ffffbe    ....    BL       shell_init ; 0x11009dc
        0x01100a60:    2000        .       MOVS     r0,#0
        0x01100a62:    bd10        ..      POP      {r4,pc}
    $d
        0x01100a64:    6c656873    shel    DCD    1818585203
        0x01100a68:    00203e6c    l> .    DCD    2113132
    $t
    .init.once.text."..\\..\\..\\bluetooth\\gatt\\hid\\bas.c".0
    bas_init
        0x01100a6c:    b570        p.      PUSH     {r4-r6,lr}
        0x01100a6e:    4605        .F      MOV      r5,r0
        0x01100a70:    4616        .F      MOV      r6,r2
        0x01100a72:    460c        .F      MOV      r4,r1
        0x01100a74:    4805        .H      LDR      r0,[pc,#20] ; [0x1100a8c] = 0x20001d60
        0x01100a76:    f000fc6d    ..m.    BL       $Ven$TT$L$$bt_gatt_service_register ; 0x1101354
        0x01100a7a:    4804        .H      LDR      r0,[pc,#16] ; [0x1100a8c] = 0x20001d60
        0x01100a7c:    4905        .I      LDR      r1,[pc,#20] ; [0x1100a94] = 0x11029b5
        0x01100a7e:    3858        X8      SUBS     r0,r0,#0x58
        0x01100a80:    6045        E`      STR      r5,[r0,#4]
        0x01100a82:    4803        .H      LDR      r0,[pc,#12] ; [0x1100a90] = 0x20006320
        0x01100a84:    60c1        .`      STR      r1,[r0,#0xc]
        0x01100a86:    c050        P.      STM      r0!,{r4,r6}
        0x01100a88:    bd70        p.      POP      {r4-r6,pc}
    $d
        0x01100a8a:    0000        ..      DCW    0
        0x01100a8c:    20001d60    `..     DCD    536878432
        0x01100a90:    20006320     c.     DCD    536896288
        0x01100a94:    011029b5    .)..    DCD    17836469
    $t
    .init.once.text."..\\..\\..\\bluetooth\\gatt\\hid\\dis.c".0
    dis_init
        0x01100a98:    b510        ..      PUSH     {r4,lr}
        0x01100a9a:    4b03        .K      LDR      r3,[pc,#12] ; [0x1100aa8] = 0x20001e3c
        0x01100a9c:    c307        ..      STM      r3!,{r0-r2}
        0x01100a9e:    4618        .F      MOV      r0,r3
        0x01100aa0:    f000fc58    ..X.    BL       $Ven$TT$L$$bt_gatt_service_register ; 0x1101354
        0x01100aa4:    bd10        ..      POP      {r4,pc}
    $d
        0x01100aa6:    0000        ..      DCW    0
        0x01100aa8:    20001e3c    <..     DCD    536878652
    $t
    .init.once.text."..\\..\\..\\bluetooth\\gatt\\wp.c".1
    wp_init
        0x01100aac:    b510        ..      PUSH     {r4,lr}
        0x01100aae:    4802        .H      LDR      r0,[pc,#8] ; [0x1100ab8] = 0x20002198
        0x01100ab0:    f000fc50    ..P.    BL       $Ven$TT$L$$bt_gatt_service_register ; 0x1101354
        0x01100ab4:    bd10        ..      POP      {r4,pc}
    $d
        0x01100ab6:    0000        ..      DCW    0
        0x01100ab8:    20002198    .!.     DCD    536879512
    $t
    .init.once.text."..\\..\\src\\peripheral_rmc\\main.c".4
    system_app_init
        0x01100abc:    b510        ..      PUSH     {r4,lr}
        0x01100abe:    f003f869    ..i.    BL       msg_manager_init ; 0x1103b94
        0x01100ac2:    f7fffde7    ....    BL       led_manager_init ; 0x1100694
        0x01100ac6:    f000f917    ....    BL       system_input_handle_init ; 0x1100cf8
        0x01100aca:    f000f945    ..E.    BL       system_led_handle_init ; 0x1100d58
        0x01100ace:    f000f969    ..i.    BL       rmc_sm_init ; 0x1100da4
        0x01100ad2:    f000f99b    ....    BL       rmc_timer_init ; 0x1100e0c
        0x01100ad6:    f000f803    ....    BL       audio_init ; 0x1100ae0
        0x01100ada:    f001ff67    ..g.    BL       batt_manager_init ; 0x11029ac
        0x01100ade:    bd10        ..      POP      {r4,pc}
    .init.once.text."..\\..\\src\\peripheral_rmc\\system_app_audio.c".6
    audio_init
        0x01100ae0:    b570        p.      PUSH     {r4-r6,lr}
        0x01100ae2:    2108        .!      MOVS     r1,#8
        0x01100ae4:    480f        .H      LDR      r0,[pc,#60] ; [0x1100b24] = 0x20001af0
        0x01100ae6:    f000f9ea    ....    BL       __aeabi_memclr ; 0x1100ebe
        0x01100aea:    490e        .I      LDR      r1,[pc,#56] ; [0x1100b24] = 0x20001af0
        0x01100aec:    2014        .       MOVS     r0,#0x14
        0x01100aee:    8008        ..      STRH     r0,[r1,#0]
        0x01100af0:    460c        .F      MOV      r4,r1
        0x01100af2:    480d        .H      LDR      r0,[pc,#52] ; [0x1100b28] = 0x11019a5
        0x01100af4:    3c1c        .<      SUBS     r4,r4,#0x1c
        0x01100af6:    6120         a      STR      r0,[r4,#0x10]
        0x01100af8:    480c        .H      LDR      r0,[pc,#48] ; [0x1100b2c] = 0x11018b9
        0x01100afa:    6160        `a      STR      r0,[r4,#0x14]
        0x01100afc:    2010        .       MOVS     r0,#0x10
        0x01100afe:    f001fbbd    ....    BL       audio_out_device_open ; 0x110227c
        0x01100b02:    4d0b        .M      LDR      r5,[pc,#44] ; [0x1100b30] = 0x200018fc
        0x01100b04:    6060        ``      STR      r0,[r4,#4]
        0x01100b06:    490b        .I      LDR      r1,[pc,#44] ; [0x1100b34] = 0x20001a10
        0x01100b08:    6205        .b      STR      r5,[r0,#0x20]
        0x01100b0a:    6241        Ab      STR      r1,[r0,#0x24]
        0x01100b0c:    490a        .I      LDR      r1,[pc,#40] ; [0x1100b38] = 0x200026c4
        0x01100b0e:    6181        .a      STR      r1,[r0,#0x18]
        0x01100b10:    2105        .!      MOVS     r1,#5
        0x01100b12:    0209        ..      LSLS     r1,r1,#8
        0x01100b14:    61c1        .a      STR      r1,[r0,#0x1c]
        0x01100b16:    2010        .       MOVS     r0,#0x10
        0x01100b18:    f001fe90    ....    BL       audioin_device_open ; 0x110283c
        0x01100b1c:    60e0        .`      STR      r0,[r4,#0xc]
        0x01100b1e:    6205        .b      STR      r5,[r0,#0x20]
        0x01100b20:    2000        .       MOVS     r0,#0
        0x01100b22:    bd70        p.      POP      {r4-r6,pc}
    $d
        0x01100b24:    20001af0    ...     DCD    536877808
        0x01100b28:    011019a5    ....    DCD    17832357
        0x01100b2c:    011018b9    ....    DCD    17832121
        0x01100b30:    200018fc    ...     DCD    536877308
        0x01100b34:    20001a10    ...     DCD    536877584
        0x01100b38:    200026c4    .&.     DCD    536880836
    $t
    .init.once.text."..\\..\\src\\peripheral_rmc\\system_app_ble.c".3
    bt_ready
        0x01100b3c:    b510        ..      PUSH     {r4,lr}
        0x01100b3e:    b088        ..      SUB      sp,sp,#0x20
        0x01100b40:    4604        .F      MOV      r4,r0
        0x01100b42:    f000fc0d    ....    BL       $Ven$TT$L$$app_release_wake_lock ; 0x1101360
        0x01100b46:    2c00        .,      CMP      r4,#0
        0x01100b48:    d009        ..      BEQ      0x1100b5e ; bt_ready + 34
        0x01100b4a:    a136        6.      ADR      r1,{pc}+0xda ; 0x1100c24
        0x01100b4c:    9100        ..      STR      r1,[sp,#0]
        0x01100b4e:    4623        #F      MOV      r3,r4
        0x01100b50:    a234        4.      ADR      r2,{pc}+0xd4 ; 0x1100c24
        0x01100b52:    a135        5.      ADR      r1,{pc}+0xd6 ; 0x1100c28
        0x01100b54:    a035        5.      ADR      r0,{pc}+0xd8 ; 0x1100c2c
        0x01100b56:    f000faa7    ....    BL       $Ven$TT$L$$printk ; 0x11010a8
        0x01100b5a:    b008        ..      ADD      sp,sp,#0x20
        0x01100b5c:    bd10        ..      POP      {r4,pc}
        0x01100b5e:    483e        >H      LDR      r0,[pc,#248] ; [0x1100c58] = 0x20000c00
        0x01100b60:    2400        .$      MOVS     r4,#0
        0x01100b62:    7004        .p      STRB     r4,[r0,#0]
        0x01100b64:    a32f        /.      ADR      r3,{pc}+0xc0 ; 0x1100c24
        0x01100b66:    a22f        /.      ADR      r2,{pc}+0xbe ; 0x1100c24
        0x01100b68:    a12f        /.      ADR      r1,{pc}+0xc0 ; 0x1100c28
        0x01100b6a:    a03c        <.      ADR      r0,{pc}+0xf2 ; 0x1100c5c
        0x01100b6c:    f000fa9c    ....    BL       $Ven$TT$L$$printk ; 0x11010a8
        0x01100b70:    2100        .!      MOVS     r1,#0
        0x01100b72:    2001        .       MOVS     r0,#1
        0x01100b74:    f002fa86    ....    BL       hci_set_le_local_feat ; 0x1103084
        0x01100b78:    a32a        *.      ADR      r3,{pc}+0xac ; 0x1100c24
        0x01100b7a:    a22a        *.      ADR      r2,{pc}+0xaa ; 0x1100c24
        0x01100b7c:    a12a        *.      ADR      r1,{pc}+0xac ; 0x1100c28
        0x01100b7e:    a03f        ?.      ADR      r0,{pc}+0xfe ; 0x1100c7c
        0x01100b80:    f000fa92    ....    BL       $Ven$TT$L$$printk ; 0x11010a8
        0x01100b84:    4845        EH      LDR      r0,[pc,#276] ; [0x1100c9c] = 0x20005ab0
        0x01100b86:    2201        ."      MOVS     r2,#1
        0x01100b88:    6104        .a      STR      r4,[r0,#0x10]
        0x01100b8a:    6144        Da      STR      r4,[r0,#0x14]
        0x01100b8c:    6184        .a      STR      r4,[r0,#0x18]
        0x01100b8e:    4601        .F      MOV      r1,r0
        0x01100b90:    61c4        .a      STR      r4,[r0,#0x1c]
        0x01100b92:    4843        CH      LDR      r0,[pc,#268] ; [0x1100ca0] = 0x1101b7d
        0x01100b94:    f7ffff6a    ..j.    BL       bas_init ; 0x1100a6c
        0x01100b98:    4a42        BJ      LDR      r2,[pc,#264] ; [0x1100ca4] = 0x1105f14
        0x01100b9a:    a143        C.      ADR      r1,{pc}+0x10e ; 0x1100ca8
        0x01100b9c:    a045        E.      ADR      r0,{pc}+0x118 ; 0x1100cb4
        0x01100b9e:    f7ffff7b    ..{.    BL       dis_init ; 0x1100a98
        0x01100ba2:    f7ffff83    ....    BL       wp_init ; 0x1100aac
        0x01100ba6:    4845        EH      LDR      r0,[pc,#276] ; [0x1100cbc] = 0x11031d5
        0x01100ba8:    f005f8d6    ....    BL       wp_register_rx_notify_enabled_cb ; 0x1105d58
        0x01100bac:    f7fffd88    ....    BL       ota_profile_init ; 0x11006c0
        0x01100bb0:    207d        }       MOVS     r0,#0x7d
        0x01100bb2:    4943        CI      LDR      r1,[pc,#268] ; [0x1100cc0] = 0x20001a42
        0x01100bb4:    00c0        ..      LSLS     r0,r0,#3
        0x01100bb6:    f000fbd9    ....    BL       $Ven$TT$L$$bt_set_conn_update_param ; 0x110136c
        0x01100bba:    4841        AH      LDR      r0,[pc,#260] ; [0x1100cc0] = 0x20001a42
        0x01100bbc:    3032        20      ADDS     r0,r0,#0x32
        0x01100bbe:    f000fbdb    ....    BL       $Ven$TT$L$$bt_conn_cb_register ; 0x1101378
        0x01100bc2:    f001ff5d    ..].    BL       bt_gatt_load_ccc ; 0x1102a80
        0x01100bc6:    483e        >H      LDR      r0,[pc,#248] ; [0x1100cc0] = 0x20001a42
        0x01100bc8:    2101        .!      MOVS     r1,#1
        0x01100bca:    1e80        ..      SUBS     r0,r0,#2
        0x01100bcc:    7001        .p      STRB     r1,[r0,#0]
        0x01100bce:    7041        Ap      STRB     r1,[r0,#1]
        0x01100bd0:    2214        ."      MOVS     r2,#0x14
        0x01100bd2:    a13c        <.      ADR      r1,{pc}+0xf2 ; 0x1100cc4
        0x01100bd4:    a801        ..      ADD      r0,sp,#4
        0x01100bd6:    f000f959    ..Y.    BL       __aeabi_memcpy ; 0x1100e8c
        0x01100bda:    a801        ..      ADD      r0,sp,#4
        0x01100bdc:    f000fb48    ..H.    BL       $Ven$TT$L$$strlen ; 0x1101270
        0x01100be0:    4602        .F      MOV      r2,r0
        0x01100be2:    a901        ..      ADD      r1,sp,#4
        0x01100be4:    a03c        <.      ADR      r0,{pc}+0xf4 ; 0x1100cd8
        0x01100be6:    f000fbcd    ....    BL       $Ven$TT$L$$nvram_config_get_factory ; 0x1101384
        0x01100bea:    2800        .(      CMP      r0,#0
        0x01100bec:    db16        ..      BLT      0x1100c1c ; bt_ready + 224
        0x01100bee:    a135        5.      ADR      r1,{pc}+0xd6 ; 0x1100cc4
        0x01100bf0:    a801        ..      ADD      r0,sp,#4
        0x01100bf2:    f000fbcd    ....    BL       $Ven$TT$L$$strcmp ; 0x1101390
        0x01100bf6:    2800        .(      CMP      r0,#0
        0x01100bf8:    d010        ..      BEQ      0x1100c1c ; bt_ready + 224
        0x01100bfa:    a901        ..      ADD      r1,sp,#4
        0x01100bfc:    a039        9.      ADR      r0,{pc}+0xe8 ; 0x1100ce4
        0x01100bfe:    f000fa53    ..S.    BL       $Ven$TT$L$$printk ; 0x11010a8
        0x01100c02:    4668        hF      MOV      r0,sp
        0x01100c04:    7604        .v      STRB     r4,[r0,#0x18]
        0x01100c06:    a906        ..      ADD      r1,sp,#0x18
        0x01100c08:    3101        .1      ADDS     r1,#1
        0x01100c0a:    a801        ..      ADD      r0,sp,#4
        0x01100c0c:    f004fd46    ..F.    BL       str2bt_addr ; 0x110569c
        0x01100c10:    4822        "H      LDR      r0,[pc,#136] ; [0x1100c9c] = 0x20005ab0
        0x01100c12:    a906        ..      ADD      r1,sp,#0x18
        0x01100c14:    3014        .0      ADDS     r0,r0,#0x14
        0x01100c16:    2207        ."      MOVS     r2,#7
        0x01100c18:    f000f938    ..8.    BL       __aeabi_memcpy ; 0x1100e8c
        0x01100c1c:    200a        .       MOVS     r0,#0xa
        0x01100c1e:    f003ffdd    ....    BL       rmc_sm_execute ; 0x1104bdc
        0x01100c22:    e79a        ..      B        0x1100b5a ; bt_ready + 30
    $d
        0x01100c24:    00000000    ....    DCD    0
        0x01100c28:    00656c62    ble.    DCD    6646882
        0x01100c2c:    5d73255b    [%s]    DCD    1567827291
        0x01100c30:    42732520     %sB    DCD    1114842400
        0x01100c34:    7465756c    luet    DCD    1952806252
        0x01100c38:    68746f6f    ooth    DCD    1752461167
        0x01100c3c:    696e6920     ini    DCD    1768843552
        0x01100c40:    61662074    t fa    DCD    1634082932
        0x01100c44:    64656c69    iled    DCD    1684368489
        0x01100c48:    72652820     (er    DCD    1919232032
        0x01100c4c:    64252072    r %d    DCD    1680154738
        0x01100c50:    0a732529    )%s.    DCD    175318313
        0x01100c54:    00000000    ....    DCD    0
        0x01100c58:    20000c00    ...     DCD    536873984
        0x01100c5c:    5d73255b    [%s]    DCD    1567827291
        0x01100c60:    66732520     %sf    DCD    1718822176
        0x01100c64:    6563726f    orce    DCD    1701016175
        0x01100c68:    206f7420     to     DCD    544175136
        0x01100c6c:    61736964    disa    DCD    1634953572
        0x01100c70:    20656c62    ble     DCD    543517794
        0x01100c74:    73256373    sc%s    DCD    1931830131
        0x01100c78:    0000000a    ....    DCD    10
        0x01100c7c:    5d73255b    [%s]    DCD    1567827291
        0x01100c80:    42732520     %sB    DCD    1114842400
        0x01100c84:    7465756c    luet    DCD    1952806252
        0x01100c88:    68746f6f    ooth    DCD    1752461167
        0x01100c8c:    696e6920     ini    DCD    1768843552
        0x01100c90:    6c616974    tial    DCD    1818323316
        0x01100c94:    64657a69    ized    DCD    1684372073
        0x01100c98:    000a7325    %s..    DCD    684837
        0x01100c9c:    20005ab0    .Z.     DCD    536894128
        0x01100ca0:    01101b7d    }...    DCD    17832829
        0x01100ca4:    01105f14    ._..    DCD    17850132
        0x01100ca8:    63205450    PT c    DCD    1663063120
        0x01100cac:    2e70726f    orp.    DCD    779121263
        0x01100cb0:    00000000    ....    DCD    0
        0x01100cb4:    31425441    ATB1    DCD    826430529
        0x01100cb8:    00783031    10x.    DCD    7876657
        0x01100cbc:    011031d5    .1..    DCD    17838549
        0x01100cc0:    20001a42    B..     DCD    536877634
        0x01100cc4:    303a3030    00:0    DCD    809119792
        0x01100cc8:    30303a30    0:00    DCD    808466992
        0x01100ccc:    3a30303a    :00:    DCD    976236602
        0x01100cd0:    303a3030    00:0    DCD    809119792
        0x01100cd4:    00000030    0...    DCD    48
        0x01100cd8:    545f5442    BT_T    DCD    1415533634
        0x01100cdc:    415f5447    GT_A    DCD    1096766535
        0x01100ce0:    00524444    DDR.    DCD    5391428
        0x01100ce4:    67726174    targ    DCD    1735549300
        0x01100ce8:    615f7465    et_a    DCD    1633645669
        0x01100cec:    5f726464    ddr_    DCD    1601332324
        0x01100cf0:    3d727473    str=    DCD    1030911091
        0x01100cf4:    000a7325    %s..    DCD    684837
    $t
    .init.once.text."..\\..\\src\\peripheral_rmc\\system_app_input.c".5
    system_input_handle_init
        0x01100cf8:    b510        ..      PUSH     {r4,lr}
        0x01100cfa:    490a        .I      LDR      r1,[pc,#40] ; [0x1100d24] = 0x110379d
        0x01100cfc:    480a        .H      LDR      r0,[pc,#40] ; [0x1100d28] = 0x1101a99
        0x01100cfe:    f7fffc49    ..I.    BL       input_manager_init ; 0x1100594
        0x01100d02:    f002fb37    ..7.    BL       input_event_unlock ; 0x1103374
        0x01100d06:    a009        ..      ADR      r0,{pc}+0x26 ; 0x1100d2c
        0x01100d08:    f002fbfc    ....    BL       irc_device_open ; 0x1103504
        0x01100d0c:    4908        .I      LDR      r1,[pc,#32] ; [0x1100d30] = 0x20001a90
        0x01100d0e:    2800        .(      CMP      r0,#0
        0x01100d10:    6088        .`      STR      r0,[r1,#8]
        0x01100d12:    d105        ..      BNE      0x1100d20 ; system_input_handle_init + 40
        0x01100d14:    a307        ..      ADR      r3,{pc}+0x20 ; 0x1100d34
        0x01100d16:    a207        ..      ADR      r2,{pc}+0x1e ; 0x1100d34
        0x01100d18:    a107        ..      ADR      r1,{pc}+0x20 ; 0x1100d38
        0x01100d1a:    a009        ..      ADR      r0,{pc}+0x26 ; 0x1100d40
        0x01100d1c:    f000f9c4    ....    BL       $Ven$TT$L$$printk ; 0x11010a8
        0x01100d20:    bd10        ..      POP      {r4,pc}
    $d
        0x01100d22:    0000        ..      DCW    0
        0x01100d24:    0110379d    .7..    DCD    17840029
        0x01100d28:    01101a99    ....    DCD    17832601
        0x01100d2c:    00435249    IRC.    DCD    4411977
        0x01100d30:    20001a90    ...     DCD    536877712
        0x01100d34:    00000000    ....    DCD    0
        0x01100d38:    75706e69    inpu    DCD    1970302569
        0x01100d3c:    00000074    t...    DCD    116
        0x01100d40:    5d73255b    [%s]    DCD    1567827291
        0x01100d44:    6f732520     %so    DCD    1869817120
        0x01100d48:    206e6570    pen     DCD    544105840
        0x01100d4c:    20637269    irc     DCD    543388265
        0x01100d50:    6c696166    fail    DCD    1818845542
        0x01100d54:    000a7325    %s..    DCD    684837
    $t
    .init.once.text."..\\..\\src\\peripheral_rmc\\system_app_led.c".1
    system_led_handle_init
        0x01100d58:    b510        ..      PUSH     {r4,lr}
        0x01100d5a:    490c        .I      LDR      r1,[pc,#48] ; [0x1100d8c] = 0x1103b19
        0x01100d5c:    480c        .H      LDR      r0,[pc,#48] ; [0x1100d90] = 0x20005c04
        0x01100d5e:    f000fb1d    ....    BL       $Ven$TT$L$$k_delayed_work_init ; 0x110139c
        0x01100d62:    480b        .H      LDR      r0,[pc,#44] ; [0x1100d90] = 0x20005c04
        0x01100d64:    490b        .I      LDR      r1,[pc,#44] ; [0x1100d94] = 0x110459d
        0x01100d66:    3028        (0      ADDS     r0,r0,#0x28
        0x01100d68:    f000fb18    ....    BL       $Ven$TT$L$$k_delayed_work_init ; 0x110139c
        0x01100d6c:    4808        .H      LDR      r0,[pc,#32] ; [0x1100d90] = 0x20005c04
        0x01100d6e:    490a        .I      LDR      r1,[pc,#40] ; [0x1100d98] = 0x1103391
        0x01100d70:    3050        P0      ADDS     r0,r0,#0x50
        0x01100d72:    f000fb13    ....    BL       $Ven$TT$L$$k_delayed_work_init ; 0x110139c
        0x01100d76:    4806        .H      LDR      r0,[pc,#24] ; [0x1100d90] = 0x20005c04
        0x01100d78:    4908        .I      LDR      r1,[pc,#32] ; [0x1100d9c] = 0x1103587
        0x01100d7a:    3078        x0      ADDS     r0,r0,#0x78
        0x01100d7c:    f000fb0e    ....    BL       $Ven$TT$L$$k_delayed_work_init ; 0x110139c
        0x01100d80:    4803        .H      LDR      r0,[pc,#12] ; [0x1100d90] = 0x20005c04
        0x01100d82:    4907        .I      LDR      r1,[pc,#28] ; [0x1100da0] = 0x1103577
        0x01100d84:    30a0        .0      ADDS     r0,r0,#0xa0
        0x01100d86:    f000fb09    ....    BL       $Ven$TT$L$$k_delayed_work_init ; 0x110139c
        0x01100d8a:    bd10        ..      POP      {r4,pc}
    $d
        0x01100d8c:    01103b19    .;..    DCD    17840921
        0x01100d90:    20005c04    .\.     DCD    536894468
        0x01100d94:    0110459d    .E..    DCD    17843613
        0x01100d98:    01103391    .3..    DCD    17838993
        0x01100d9c:    01103587    .5..    DCD    17839495
        0x01100da0:    01103577    w5..    DCD    17839479
    $t
    .init.once.text."..\\..\\src\\peripheral_rmc\\system_app_sm.c".0
    rmc_sm_init
        0x01100da4:    4901        .I      LDR      r1,[pc,#4] ; [0x1100dac] = 0x20001aa0
        0x01100da6:    2000        .       MOVS     r0,#0
        0x01100da8:    7008        .p      STRB     r0,[r1,#0]
        0x01100daa:    4770        pG      BX       lr
    $d
        0x01100dac:    20001aa0    ...     DCD    536877728
    $t
    .init.once.text."..\\..\\src\\peripheral_rmc\\system_app_storage.c".1
    system_app_storage_init
        0x01100db0:    b510        ..      PUSH     {r4,lr}
        0x01100db2:    a007        ..      ADR      r0,{pc}+0x1e ; 0x1100dd0
        0x01100db4:    f002f88e    ....    BL       device_get_binding ; 0x1102ed4
        0x01100db8:    4908        .I      LDR      r1,[pc,#32] ; [0x1100ddc] = 0x20001af8
        0x01100dba:    2800        .(      CMP      r0,#0
        0x01100dbc:    6088        .`      STR      r0,[r1,#8]
        0x01100dbe:    d103        ..      BNE      0x1100dc8 ; system_app_storage_init + 24
        0x01100dc0:    a103        ..      ADR      r1,{pc}+0x10 ; 0x1100dd0
        0x01100dc2:    a007        ..      ADR      r0,{pc}+0x1e ; 0x1100de0
        0x01100dc4:    f000f970    ..p.    BL       $Ven$TT$L$$printk ; 0x11010a8
        0x01100dc8:    a00c        ..      ADR      r0,{pc}+0x34 ; 0x1100dfc
        0x01100dca:    f000f96d    ..m.    BL       $Ven$TT$L$$printk ; 0x11010a8
        0x01100dce:    bd10        ..      POP      {r4,pc}
    $d
        0x01100dd0:    69707378    xspi    DCD    1768977272
        0x01100dd4:    726f6e5f    _nor    DCD    1919905375
        0x01100dd8:    00000000    ....    DCD    0
        0x01100ddc:    20001af8    ...     DCD    536877816
        0x01100de0:    6e6e6163    cann    DCD    1852727651
        0x01100de4:    6620746f    ot f    DCD    1713402991
        0x01100de8:    646e756f    ound    DCD    1684960623
        0x01100dec:    76656420     dev    DCD    1986356256
        0x01100df0:    20656369    ice     DCD    543515497
        0x01100df4:    27732527    '%s'    DCD    661857575
        0x01100df8:    0000000a    ....    DCD    10
        0x01100dfc:    73616c66    flas    DCD    1935764582
        0x01100e00:    65642068    h de    DCD    1701060712
        0x01100e04:    6e692076    v in    DCD    1852383350
        0x01100e08:    000a7469    it..    DCD    685161
    $t
    .init.once.text."..\\..\\src\\peripheral_rmc\\system_app_timer.c".1
    rmc_timer_init
        0x01100e0c:    b570        p.      PUSH     {r4-r6,lr}
        0x01100e0e:    4d07        .M      LDR      r5,[pc,#28] ; [0x1100e2c] = 0x20005ad0
        0x01100e10:    2400        .$      MOVS     r4,#0
        0x01100e12:    202c        ,       MOVS     r0,#0x2c
        0x01100e14:    4360        `C      MULS     r0,r4,r0
        0x01100e16:    1940        @.      ADDS     r0,r0,r5
        0x01100e18:    2128        (!      MOVS     r1,#0x28
        0x01100e1a:    540c        .T      STRB     r4,[r1,r0]
        0x01100e1c:    4904        .I      LDR      r1,[pc,#16] ; [0x1100e30] = 0x1102c8d
        0x01100e1e:    f000fabd    ....    BL       $Ven$TT$L$$k_delayed_work_init ; 0x110139c
        0x01100e22:    1c64        d.      ADDS     r4,r4,#1
        0x01100e24:    2c07        .,      CMP      r4,#7
        0x01100e26:    dbf4        ..      BLT      0x1100e12 ; rmc_timer_init + 6
        0x01100e28:    2000        .       MOVS     r0,#0
        0x01100e2a:    bd70        p.      POP      {r4-r6,pc}
    $d
        0x01100e2c:    20005ad0    .Z.     DCD    536894160
        0x01100e30:    01102c8d    .,..    DCD    17837197
    $t
    .text
    Reset_Handler
        0x01100e34:    480f        .H      LDR      r0,[pc,#60] ; [0x1100e74] = 0
        0x01100e36:    4810        .H      LDR      r0,[pc,#64] ; [0x1100e78] = 0x20006f28
        0x01100e38:    4910        .I      LDR      r1,[pc,#64] ; [0x1100e7c] = 0x280
        0x01100e3a:    4a11        .J      LDR      r2,[pc,#68] ; [0x1100e80] = 0xaa
        0x01100e3c:    f000f838    ..8.    BL       __aeabi_memset ; 0x1100eb0
        0x01100e40:    480d        .H      LDR      r0,[pc,#52] ; [0x1100e78] = 0x20006f28
        0x01100e42:    490e        .I      LDR      r1,[pc,#56] ; [0x1100e7c] = 0x280
        0x01100e44:    1840        @.      ADDS     r0,r0,r1
        0x01100e46:    f3808809    ....    MSR      PSP,r0
        0x01100e4a:    2002        .       MOVS     r0,#2
        0x01100e4c:    f3808814    ....    MSR      CONTROL,r0
        0x01100e50:    480c        .H      LDR      r0,[pc,#48] ; [0x1100e84] = 0x11006f9
        0x01100e52:    4780        .G      BLX      r0
        0x01100e54:    480c        .H      LDR      r0,[pc,#48] ; [0x1100e88] = 0x11000e1
        0x01100e56:    4700        .G      BX       r0
    _arch_irq_lock_s
        0x01100e58:    f3ef8010    ....    MRS      r0,PRIMASK
        0x01100e5c:    b672        r.      CPSID    i
        0x01100e5e:    4770        pG      BX       lr
    _arch_irq_unlock_s
        0x01100e60:    2800        .(      CMP      r0,#0
        0x01100e62:    d100        ..      BNE      0x1100e66 ; _arch_irq_unlock_s + 6
        0x01100e64:    b662        b.      CPSIE    i
        0x01100e66:    4770        pG      BX       lr
        0x01100e68:    e7fe        ..      B        0x1100e68 ; _arch_irq_unlock_s + 8
        0x01100e6a:    e7fe        ..      B        0x1100e6a ; _arch_irq_unlock_s + 10
        0x01100e6c:    e7fe        ..      B        0x1100e6c ; _arch_irq_unlock_s + 12
        0x01100e6e:    e7fe        ..      B        0x1100e6e ; _arch_irq_unlock_s + 14
    _timer_int_handler
        0x01100e70:    e7fe        ..      B        _timer_int_handler ; 0x1100e70
        0x01100e72:    e7fe        ..      B        0x1100e72 ; _timer_int_handler + 2
    $d
        0x01100e74:    00000000    ....    DCD    0
        0x01100e78:    20006f28    (o.     DCD    536899368
        0x01100e7c:    00000280    ....    DCD    640
        0x01100e80:    000000aa    ....    DCD    170
        0x01100e84:    011006f9    ....    DCD    17827577
        0x01100e88:    011000e1    ....    DCD    17826017
    $t
    .text
    __aeabi_memcpy
    __aeabi_memcpy4
    __aeabi_memcpy8
        0x01100e8c:    4603        .F      MOV      r3,r0
        0x01100e8e:    430b        .C      ORRS     r3,r3,r1
        0x01100e90:    079b        ..      LSLS     r3,r3,#30
        0x01100e92:    d003        ..      BEQ      0x1100e9c ; __aeabi_memcpy + 16
        0x01100e94:    e009        ..      B        0x1100eaa ; __aeabi_memcpy + 30
        0x01100e96:    c908        ..      LDM      r1!,{r3}
        0x01100e98:    1f12        ..      SUBS     r2,r2,#4
        0x01100e9a:    c008        ..      STM      r0!,{r3}
        0x01100e9c:    2a04        .*      CMP      r2,#4
        0x01100e9e:    d2fa        ..      BCS      0x1100e96 ; __aeabi_memcpy + 10
        0x01100ea0:    e003        ..      B        0x1100eaa ; __aeabi_memcpy + 30
        0x01100ea2:    780b        .x      LDRB     r3,[r1,#0]
        0x01100ea4:    7003        .p      STRB     r3,[r0,#0]
        0x01100ea6:    1c40        @.      ADDS     r0,r0,#1
        0x01100ea8:    1c49        I.      ADDS     r1,r1,#1
        0x01100eaa:    1e52        R.      SUBS     r2,r2,#1
        0x01100eac:    d2f9        ..      BCS      0x1100ea2 ; __aeabi_memcpy + 22
        0x01100eae:    4770        pG      BX       lr
    .text
    __aeabi_memset
    __aeabi_memset4
    __aeabi_memset8
        0x01100eb0:    b2d2        ..      UXTB     r2,r2
        0x01100eb2:    e001        ..      B        0x1100eb8 ; __aeabi_memset + 8
        0x01100eb4:    7002        .p      STRB     r2,[r0,#0]
        0x01100eb6:    1c40        @.      ADDS     r0,r0,#1
        0x01100eb8:    1e49        I.      SUBS     r1,r1,#1
        0x01100eba:    d2fb        ..      BCS      0x1100eb4 ; __aeabi_memset + 4
        0x01100ebc:    4770        pG      BX       lr
    __aeabi_memclr
    __aeabi_memclr4
    __aeabi_memclr8
        0x01100ebe:    2200        ."      MOVS     r2,#0
        0x01100ec0:    e7f6        ..      B        __aeabi_memset ; 0x1100eb0
    _memset$wrapper
        0x01100ec2:    b510        ..      PUSH     {r4,lr}
        0x01100ec4:    4613        .F      MOV      r3,r2
        0x01100ec6:    460a        .F      MOV      r2,r1
        0x01100ec8:    4604        .F      MOV      r4,r0
        0x01100eca:    4619        .F      MOV      r1,r3
        0x01100ecc:    f7fffff0    ....    BL       __aeabi_memset ; 0x1100eb0
        0x01100ed0:    4620         F      MOV      r0,r4
        0x01100ed2:    bd10        ..      POP      {r4,pc}
    .text
    __aeabi_fmul
        0x01100ed4:    4602        .F      MOV      r2,r0
        0x01100ed6:    b570        p.      PUSH     {r4-r6,lr}
        0x01100ed8:    404a        J@      EORS     r2,r2,r1
        0x01100eda:    0fd3        ..      LSRS     r3,r2,#31
        0x01100edc:    07db        ..      LSLS     r3,r3,#31
        0x01100ede:    0040        @.      LSLS     r0,r0,#1
        0x01100ee0:    d02d        -.      BEQ      0x1100f3e ; __aeabi_fmul + 106
        0x01100ee2:    004a        J.      LSLS     r2,r1,#1
        0x01100ee4:    d02a        *.      BEQ      0x1100f3c ; __aeabi_fmul + 104
        0x01100ee6:    0e01        ..      LSRS     r1,r0,#24
        0x01100ee8:    0e14        ..      LSRS     r4,r2,#24
        0x01100eea:    0200        ..      LSLS     r0,r0,#8
        0x01100eec:    0212        ..      LSLS     r2,r2,#8
        0x01100eee:    1909        ..      ADDS     r1,r1,r4
        0x01100ef0:    0a40        @.      LSRS     r0,r0,#9
        0x01100ef2:    0a52        R.      LSRS     r2,r2,#9
        0x01100ef4:    1884        ..      ADDS     r4,r0,r2
        0x01100ef6:    01e5        ..      LSLS     r5,r4,#7
        0x01100ef8:    4604        .F      MOV      r4,r0
        0x01100efa:    4354        TC      MULS     r4,r2,r4
        0x01100efc:    0a00        ..      LSRS     r0,r0,#8
        0x01100efe:    0a12        ..      LSRS     r2,r2,#8
        0x01100f00:    042e        ..      LSLS     r6,r5,#16
        0x01100f02:    4350        PC      MULS     r0,r2,r0
        0x01100f04:    19a4        ..      ADDS     r4,r4,r6
        0x01100f06:    1942        B.      ADDS     r2,r0,r5
        0x01100f08:    0c20         .      LSRS     r0,r4,#16
        0x01100f0a:    43c5        .C      MVNS     r5,r0
        0x01100f0c:    18aa        ..      ADDS     r2,r5,r2
        0x01100f0e:    0c12        ..      LSRS     r2,r2,#16
        0x01100f10:    2501        .%      MOVS     r5,#1
        0x01100f12:    03ad        ..      LSLS     r5,r5,#14
        0x01100f14:    1c52        R.      ADDS     r2,r2,#1
        0x01100f16:    1952        R.      ADDS     r2,r2,r5
        0x01100f18:    0412        ..      LSLS     r2,r2,#16
        0x01100f1a:    397f        .9      SUBS     r1,r1,#0x7f
        0x01100f1c:    0424        $.      LSLS     r4,r4,#16
        0x01100f1e:    d000        ..      BEQ      0x1100f22 ; __aeabi_fmul + 78
        0x01100f20:    1c52        R.      ADDS     r2,r2,#1
        0x01100f22:    4310        .C      ORRS     r0,r0,r2
        0x01100f24:    d401        ..      BMI      0x1100f2a ; __aeabi_fmul + 86
        0x01100f26:    0040        @.      LSLS     r0,r0,#1
        0x01100f28:    1e49        I.      SUBS     r1,r1,#1
        0x01100f2a:    b2c2        ..      UXTB     r2,r0
        0x01100f2c:    060c        ..      LSLS     r4,r1,#24
        0x01100f2e:    09c0        ..      LSRS     r0,r0,#7
        0x01100f30:    1820         .      ADDS     r0,r4,r0
        0x01100f32:    1c40        @.      ADDS     r0,r0,#1
        0x01100f34:    0840        @.      LSRS     r0,r0,#1
        0x01100f36:    2a80        .*      CMP      r2,#0x80
        0x01100f38:    d002        ..      BEQ      0x1100f40 ; __aeabi_fmul + 108
        0x01100f3a:    e003        ..      B        0x1100f44 ; __aeabi_fmul + 112
        0x01100f3c:    2000        .       MOVS     r0,#0
        0x01100f3e:    bd70        p.      POP      {r4-r6,pc}
        0x01100f40:    0840        @.      LSRS     r0,r0,#1
        0x01100f42:    0040        @.      LSLS     r0,r0,#1
        0x01100f44:    2900        .)      CMP      r1,#0
        0x01100f46:    da00        ..      BGE      0x1100f4a ; __aeabi_fmul + 118
        0x01100f48:    2000        .       MOVS     r0,#0
        0x01100f4a:    4318        .C      ORRS     r0,r0,r3
        0x01100f4c:    bd70        p.      POP      {r4-r6,pc}
    .text
    __aeabi_fdiv
        0x01100f4e:    b570        p.      PUSH     {r4-r6,lr}
        0x01100f50:    4602        .F      MOV      r2,r0
        0x01100f52:    404a        J@      EORS     r2,r2,r1
        0x01100f54:    0fd5        ..      LSRS     r5,r2,#31
        0x01100f56:    0040        @.      LSLS     r0,r0,#1
        0x01100f58:    004a        J.      LSLS     r2,r1,#1
        0x01100f5a:    07ed        ..      LSLS     r5,r5,#31
        0x01100f5c:    0840        @.      LSRS     r0,r0,#1
        0x01100f5e:    0852        R.      LSRS     r2,r2,#1
        0x01100f60:    2800        .(      CMP      r0,#0
        0x01100f62:    d014        ..      BEQ      0x1100f8e ; __aeabi_fdiv + 64
        0x01100f64:    2a00        .*      CMP      r2,#0
        0x01100f66:    d012        ..      BEQ      0x1100f8e ; __aeabi_fdiv + 64
        0x01100f68:    0dc4        ..      LSRS     r4,r0,#23
        0x01100f6a:    0dd3        ..      LSRS     r3,r2,#23
        0x01100f6c:    0241        A.      LSLS     r1,r0,#9
        0x01100f6e:    2001        .       MOVS     r0,#1
        0x01100f70:    05c0        ..      LSLS     r0,r0,#23
        0x01100f72:    0252        R.      LSLS     r2,r2,#9
        0x01100f74:    0a49        I.      LSRS     r1,r1,#9
        0x01100f76:    0a52        R.      LSRS     r2,r2,#9
        0x01100f78:    1ae4        ..      SUBS     r4,r4,r3
        0x01100f7a:    1809        ..      ADDS     r1,r1,r0
        0x01100f7c:    1812        ..      ADDS     r2,r2,r0
        0x01100f7e:    347d        }4      ADDS     r4,r4,#0x7d
        0x01100f80:    4291        .B      CMP      r1,r2
        0x01100f82:    d301        ..      BCC      0x1100f88 ; __aeabi_fdiv + 58
        0x01100f84:    1c64        d.      ADDS     r4,r4,#1
        0x01100f86:    e000        ..      B        0x1100f8a ; __aeabi_fdiv + 60
        0x01100f88:    0049        I.      LSLS     r1,r1,#1
        0x01100f8a:    2c00        .,      CMP      r4,#0
        0x01100f8c:    da01        ..      BGE      0x1100f92 ; __aeabi_fdiv + 68
        0x01100f8e:    2000        .       MOVS     r0,#0
        0x01100f90:    bd70        p.      POP      {r4-r6,pc}
        0x01100f92:    2300        .#      MOVS     r3,#0
        0x01100f94:    4291        .B      CMP      r1,r2
        0x01100f96:    d301        ..      BCC      0x1100f9c ; __aeabi_fdiv + 78
        0x01100f98:    1a89        ..      SUBS     r1,r1,r2
        0x01100f9a:    4303        .C      ORRS     r3,r3,r0
        0x01100f9c:    0840        @.      LSRS     r0,r0,#1
        0x01100f9e:    0049        I.      LSLS     r1,r1,#1
        0x01100fa0:    2800        .(      CMP      r0,#0
        0x01100fa2:    d1f7        ..      BNE      0x1100f94 ; __aeabi_fdiv + 70
        0x01100fa4:    2900        .)      CMP      r1,#0
        0x01100fa6:    d00a        ..      BEQ      0x1100fbe ; __aeabi_fdiv + 112
        0x01100fa8:    4291        .B      CMP      r1,r2
        0x01100faa:    d102        ..      BNE      0x1100fb2 ; __aeabi_fdiv + 100
        0x01100fac:    2101        .!      MOVS     r1,#1
        0x01100fae:    07c9        ..      LSLS     r1,r1,#31
        0x01100fb0:    e005        ..      B        0x1100fbe ; __aeabi_fdiv + 112
        0x01100fb2:    4291        .B      CMP      r1,r2
        0x01100fb4:    d201        ..      BCS      0x1100fba ; __aeabi_fdiv + 108
        0x01100fb6:    2101        .!      MOVS     r1,#1
        0x01100fb8:    e001        ..      B        0x1100fbe ; __aeabi_fdiv + 112
        0x01100fba:    2101        .!      MOVS     r1,#1
        0x01100fbc:    43c9        .C      MVNS     r1,r1
        0x01100fbe:    05e0        ..      LSLS     r0,r4,#23
        0x01100fc0:    18c0        ..      ADDS     r0,r0,r3
        0x01100fc2:    1940        @.      ADDS     r0,r0,r5
        0x01100fc4:    f000f81c    ....    BL       __I$use$fp ; 0x1101000
        0x01100fc8:    bd70        p.      POP      {r4-r6,pc}
    .text
    __aeabi_ui2f
        0x01100fca:    b510        ..      PUSH     {r4,lr}
        0x01100fcc:    2200        ."      MOVS     r2,#0
        0x01100fce:    2396        .#      MOVS     r3,#0x96
        0x01100fd0:    4611        .F      MOV      r1,r2
        0x01100fd2:    f000f81d    ....    BL       _float_epilogue ; 0x1101010
        0x01100fd6:    bd10        ..      POP      {r4,pc}
    .text
    __aeabi_f2uiz
        0x01100fd8:    0041        A.      LSLS     r1,r0,#1
        0x01100fda:    0240        @.      LSLS     r0,r0,#9
        0x01100fdc:    2201        ."      MOVS     r2,#1
        0x01100fde:    0a40        @.      LSRS     r0,r0,#9
        0x01100fe0:    05d2        ..      LSLS     r2,r2,#23
        0x01100fe2:    0e09        ..      LSRS     r1,r1,#24
        0x01100fe4:    1880        ..      ADDS     r0,r0,r2
        0x01100fe6:    297f        .)      CMP      r1,#0x7f
        0x01100fe8:    da01        ..      BGE      0x1100fee ; __aeabi_f2uiz + 22
        0x01100fea:    2000        .       MOVS     r0,#0
        0x01100fec:    4770        pG      BX       lr
        0x01100fee:    2996        .)      CMP      r1,#0x96
        0x01100ff0:    dc03        ..      BGT      0x1100ffa ; __aeabi_f2uiz + 34
        0x01100ff2:    2296        ."      MOVS     r2,#0x96
        0x01100ff4:    1a51        Q.      SUBS     r1,r2,r1
        0x01100ff6:    40c8        .@      LSRS     r0,r0,r1
        0x01100ff8:    4770        pG      BX       lr
        0x01100ffa:    3996        .9      SUBS     r1,r1,#0x96
        0x01100ffc:    4088        .@      LSLS     r0,r0,r1
        0x01100ffe:    4770        pG      BX       lr
    .text
    .text
    __I$use$fp
    _float_round
        0x01101000:    2900        .)      CMP      r1,#0
        0x01101002:    da04        ..      BGE      0x110100e ; __I$use$fp + 14
        0x01101004:    1c40        @.      ADDS     r0,r0,#1
        0x01101006:    0049        I.      LSLS     r1,r1,#1
        0x01101008:    d101        ..      BNE      0x110100e ; __I$use$fp + 14
        0x0110100a:    0840        @.      LSRS     r0,r0,#1
        0x0110100c:    0040        @.      LSLS     r0,r0,#1
        0x0110100e:    4770        pG      BX       lr
    _float_epilogue
        0x01101010:    b470        p.      PUSH     {r4-r6}
        0x01101012:    2400        .$      MOVS     r4,#0
        0x01101014:    0c05        ..      LSRS     r5,r0,#16
        0x01101016:    d105        ..      BNE      0x1101024 ; _float_epilogue + 20
        0x01101018:    2410        .$      MOVS     r4,#0x10
        0x0110101a:    0400        ..      LSLS     r0,r0,#16
        0x0110101c:    d102        ..      BNE      0x1101024 ; _float_epilogue + 20
        0x0110101e:    2900        .)      CMP      r1,#0
        0x01101020:    d021        !.      BEQ      0x1101066 ; _float_epilogue + 86
        0x01101022:    2411        .$      MOVS     r4,#0x11
        0x01101024:    0e05        ..      LSRS     r5,r0,#24
        0x01101026:    d101        ..      BNE      0x110102c ; _float_epilogue + 28
        0x01101028:    0200        ..      LSLS     r0,r0,#8
        0x0110102a:    3408        .4      ADDS     r4,r4,#8
        0x0110102c:    0f05        ..      LSRS     r5,r0,#28
        0x0110102e:    d101        ..      BNE      0x1101034 ; _float_epilogue + 36
        0x01101030:    0100        ..      LSLS     r0,r0,#4
        0x01101032:    1d24        $.      ADDS     r4,r4,#4
        0x01101034:    0f85        ..      LSRS     r5,r0,#30
        0x01101036:    d101        ..      BNE      0x110103c ; _float_epilogue + 44
        0x01101038:    0080        ..      LSLS     r0,r0,#2
        0x0110103a:    1ca4        ..      ADDS     r4,r4,#2
        0x0110103c:    2800        .(      CMP      r0,#0
        0x0110103e:    db01        ..      BLT      0x1101044 ; _float_epilogue + 52
        0x01101040:    0040        @.      LSLS     r0,r0,#1
        0x01101042:    1c64        d.      ADDS     r4,r4,#1
        0x01101044:    2900        .)      CMP      r1,#0
        0x01101046:    d008        ..      BEQ      0x110105a ; _float_epilogue + 74
        0x01101048:    2520         %      MOVS     r5,#0x20
        0x0110104a:    1b2e        ..      SUBS     r6,r5,r4
        0x0110104c:    460d        .F      MOV      r5,r1
        0x0110104e:    40f5        .@      LSRS     r5,r5,r6
        0x01101050:    40a1        .@      LSLS     r1,r1,r4
        0x01101052:    d000        ..      BEQ      0x1101056 ; _float_epilogue + 70
        0x01101054:    2101        .!      MOVS     r1,#1
        0x01101056:    4329        )C      ORRS     r1,r1,r5
        0x01101058:    4308        .C      ORRS     r0,r0,r1
        0x0110105a:    0601        ..      LSLS     r1,r0,#24
        0x0110105c:    1b1b        ..      SUBS     r3,r3,r4
        0x0110105e:    0a00        ..      LSRS     r0,r0,#8
        0x01101060:    1ddb        ..      ADDS     r3,r3,#7
        0x01101062:    d502        ..      BPL      0x110106a ; _float_epilogue + 90
        0x01101064:    2000        .       MOVS     r0,#0
        0x01101066:    bc70        p.      POP      {r4-r6}
        0x01101068:    4770        pG      BX       lr
        0x0110106a:    05db        ..      LSLS     r3,r3,#23
        0x0110106c:    1818        ..      ADDS     r0,r3,r0
        0x0110106e:    1880        ..      ADDS     r0,r0,r2
        0x01101070:    2900        .)      CMP      r1,#0
        0x01101072:    daf8        ..      BGE      0x1101066 ; _float_epilogue + 86
        0x01101074:    1c40        @.      ADDS     r0,r0,#1
        0x01101076:    0049        I.      LSLS     r1,r1,#1
        0x01101078:    d1f5        ..      BNE      0x1101066 ; _float_epilogue + 86
        0x0110107a:    bc70        p.      POP      {r4-r6}
        0x0110107c:    0840        @.      LSRS     r0,r0,#1
        0x0110107e:    0040        @.      LSLS     r0,r0,#1
        0x01101080:    4770        pG      BX       lr
        0x01101082:    0000        ..      MOVS     r0,r0
    .text
    __scatterload
    __scatterload_rt2
        0x01101084:    4c06        .L      LDR      r4,[pc,#24] ; [0x11010a0] = 0x1106468
        0x01101086:    2501        .%      MOVS     r5,#1
        0x01101088:    4e06        .N      LDR      r6,[pc,#24] ; [0x11010a4] = 0x1106548
        0x0110108a:    e005        ..      B        0x1101098 ; __scatterload + 20
        0x0110108c:    68e3        .h      LDR      r3,[r4,#0xc]
        0x0110108e:    cc07        ..      LDM      r4!,{r0-r2}
        0x01101090:    432b        +C      ORRS     r3,r3,r5
        0x01101092:    3c0c        .<      SUBS     r4,r4,#0xc
        0x01101094:    4798        .G      BLX      r3
        0x01101096:    3410        .4      ADDS     r4,r4,#0x10
        0x01101098:    42b4        .B      CMP      r4,r6
        0x0110109a:    d3f7        ..      BCC      0x110108c ; __scatterload + 8
        0x0110109c:    f7fff824    ..$.    BL       __main_after_scatterload ; 0x11000e8
    $d
        0x011010a0:    01106468    hd..    DCD    17851496
        0x011010a4:    01106548    He..    DCD    17851720
    $t
    $Ven$TT$L$$printk
        0x011010a8:    b403        ..      PUSH     {r0,r1}
        0x011010aa:    4801        .H      LDR      r0,[pc,#4] ; [0x11010b0] = 0x12ad5
        0x011010ac:    9001        ..      STR      r0,[sp,#4]
        0x011010ae:    bd01        ..      POP      {r0,pc}
    $d
        0x011010b0:    00012ad5    .*..    DCD    76501
    $t
    $Ven$TT$L$$acts_efuse_read
        0x011010b4:    b403        ..      PUSH     {r0,r1}
        0x011010b6:    4801        .H      LDR      r0,[pc,#4] ; [0x11010bc] = 0x22405
        0x011010b8:    9001        ..      STR      r0,[sp,#4]
        0x011010ba:    bd01        ..      POP      {r0,pc}
    $d
        0x011010bc:    00022405    .$..    DCD    140293
    $t
    $Ven$TT$L$$acts_set_vdd
        0x011010c0:    b403        ..      PUSH     {r0,r1}
        0x011010c2:    4801        .H      LDR      r0,[pc,#4] ; [0x11010c8] = 0x22289
        0x011010c4:    9001        ..      STR      r0,[sp,#4]
        0x011010c6:    bd01        ..      POP      {r0,pc}
    $d
        0x011010c8:    00022289    ."..    DCD    139913
    $t
    $Ven$TT$L$$acts_delay_us
        0x011010cc:    b403        ..      PUSH     {r0,r1}
        0x011010ce:    4801        .H      LDR      r0,[pc,#4] ; [0x11010d4] = 0x22039
        0x011010d0:    9001        ..      STR      r0,[sp,#4]
        0x011010d2:    bd01        ..      POP      {r0,pc}
    $d
        0x011010d4:    00022039    9 ..    DCD    139321
    $t
    $Ven$TT$L$$acts_request_vd12_pd
        0x011010d8:    b403        ..      PUSH     {r0,r1}
        0x011010da:    4801        .H      LDR      r0,[pc,#4] ; [0x11010e0] = 0x22225
        0x011010dc:    9001        ..      STR      r0,[sp,#4]
        0x011010de:    bd01        ..      POP      {r0,pc}
    $d
        0x011010e0:    00022225    %"..    DCD    139813
    $t
    $Ven$TT$L$$acts_request_vd12_largebias
        0x011010e4:    b403        ..      PUSH     {r0,r1}
        0x011010e6:    4801        .H      LDR      r0,[pc,#4] ; [0x11010ec] = 0x22255
        0x011010e8:    9001        ..      STR      r0,[sp,#4]
        0x011010ea:    bd01        ..      POP      {r0,pc}
    $d
        0x011010ec:    00022255    U"..    DCD    139861
    $t
    $Ven$TT$L$$acts_request_rc_3M
        0x011010f0:    b403        ..      PUSH     {r0,r1}
        0x011010f2:    4801        .H      LDR      r0,[pc,#4] ; [0x11010f8] = 0x222f1
        0x011010f4:    9001        ..      STR      r0,[sp,#4]
        0x011010f6:    bd01        ..      POP      {r0,pc}
    $d
        0x011010f8:    000222f1    ."..    DCD    140017
    $t
    $Ven$TT$L$$acts_pinmux_setup_pins
        0x011010fc:    b403        ..      PUSH     {r0,r1}
        0x011010fe:    4801        .H      LDR      r0,[pc,#4] ; [0x1101104] = 0x2216d
        0x01101100:    9001        ..      STR      r0,[sp,#4]
        0x01101102:    bd01        ..      POP      {r0,pc}
    $d
        0x01101104:    0002216d    m!..    DCD    139629
    $t
    $Ven$TT$L$$_irq_priority_set
        0x01101108:    b403        ..      PUSH     {r0,r1}
        0x0110110a:    4801        .H      LDR      r0,[pc,#4] ; [0x1101110] = 0x22719
        0x0110110c:    9001        ..      STR      r0,[sp,#4]
        0x0110110e:    bd01        ..      POP      {r0,pc}
    $d
        0x01101110:    00022719    .'..    DCD    141081
    $t
    $Ven$TT$L$$llcc_compose_trim
        0x01101114:    b403        ..      PUSH     {r0,r1}
        0x01101116:    4801        .H      LDR      r0,[pc,#4] ; [0x110111c] = 0xf255
        0x01101118:    9001        ..      STR      r0,[sp,#4]
        0x0110111a:    bd01        ..      POP      {r0,pc}
    $d
        0x0110111c:    0000f255    U...    DCD    62037
    $t
    $Ven$TT$L$$llc_init_trim_upload
        0x01101120:    b403        ..      PUSH     {r0,r1}
        0x01101122:    4801        .H      LDR      r0,[pc,#4] ; [0x1101128] = 0xf185
        0x01101124:    9001        ..      STR      r0,[sp,#4]
        0x01101126:    bd01        ..      POP      {r0,pc}
    $d
        0x01101128:    0000f185    ....    DCD    61829
    $t
    $Ven$TT$L$$acts_set_vd12_before_efuse_read
        0x0110112c:    b403        ..      PUSH     {r0,r1}
        0x0110112e:    4801        .H      LDR      r0,[pc,#4] ; [0x1101134] = 0x223d9
        0x01101130:    9001        ..      STR      r0,[sp,#4]
        0x01101132:    bd01        ..      POP      {r0,pc}
    $d
        0x01101134:    000223d9    .#..    DCD    140249
    $t
    $Ven$TT$L$$llcc_upload_board_trim
        0x01101138:    b403        ..      PUSH     {r0,r1}
        0x0110113a:    4801        .H      LDR      r0,[pc,#4] ; [0x1101140] = 0xf345
        0x0110113c:    9001        ..      STR      r0,[sp,#4]
        0x0110113e:    bd01        ..      POP      {r0,pc}
    $d
        0x01101140:    0000f345    E...    DCD    62277
    $t
    $Ven$TT$L$$llcc_upload_tx_trim
        0x01101144:    b403        ..      PUSH     {r0,r1}
        0x01101146:    4801        .H      LDR      r0,[pc,#4] ; [0x110114c] = 0xf3a9
        0x01101148:    9001        ..      STR      r0,[sp,#4]
        0x0110114a:    bd01        ..      POP      {r0,pc}
    $d
        0x0110114c:    0000f3a9    ....    DCD    62377
    $t
    $Ven$TT$L$$acts_set_vd12_after_efuse_read
        0x01101150:    b403        ..      PUSH     {r0,r1}
        0x01101152:    4801        .H      LDR      r0,[pc,#4] ; [0x1101158] = 0x223ef
        0x01101154:    9001        ..      STR      r0,[sp,#4]
        0x01101156:    bd01        ..      POP      {r0,pc}
    $d
        0x01101158:    000223ef    .#..    DCD    140271
    $t
    $Ven$TT$L$$llc_init_tx_message
        0x0110115c:    b403        ..      PUSH     {r0,r1}
        0x0110115e:    4801        .H      LDR      r0,[pc,#4] ; [0x1101164] = 0xf0b9
        0x01101160:    9001        ..      STR      r0,[sp,#4]
        0x01101162:    bd01        ..      POP      {r0,pc}
    $d
        0x01101164:    0000f0b9    ....    DCD    61625
    $t
    $Ven$TT$L$$llc_init_wait_for_rx_message
        0x01101168:    b403        ..      PUSH     {r0,r1}
        0x0110116a:    4801        .H      LDR      r0,[pc,#4] ; [0x1101170] = 0xf101
        0x0110116c:    9001        ..      STR      r0,[sp,#4]
        0x0110116e:    bd01        ..      POP      {r0,pc}
    $d
        0x01101170:    0000f101    ....    DCD    61697
    $t
    $Ven$TT$L$$llc_hci_buf_free
        0x01101174:    b403        ..      PUSH     {r0,r1}
        0x01101176:    4801        .H      LDR      r0,[pc,#4] ; [0x110117c] = 0xf0a9
        0x01101178:    9001        ..      STR      r0,[sp,#4]
        0x0110117a:    bd01        ..      POP      {r0,pc}
    $d
        0x0110117c:    0000f0a9    ....    DCD    61609
    $t
    $Ven$TT$L$$_arch_irq_enable
        0x01101180:    b403        ..      PUSH     {r0,r1}
        0x01101182:    4801        .H      LDR      r0,[pc,#4] ; [0x1101188] = 0x226d5
        0x01101184:    9001        ..      STR      r0,[sp,#4]
        0x01101186:    bd01        ..      POP      {r0,pc}
    $d
        0x01101188:    000226d5    .&..    DCD    141013
    $t
    $Ven$TT$L$$k_timer_init
        0x0110118c:    b403        ..      PUSH     {r0,r1}
        0x0110118e:    4801        .H      LDR      r0,[pc,#4] ; [0x1101194] = 0x22ffd
        0x01101190:    9001        ..      STR      r0,[sp,#4]
        0x01101192:    bd01        ..      POP      {r0,pc}
    $d
        0x01101194:    00022ffd    ./..    DCD    143357
    $t
    $Ven$TT$L$$main_thread_init
        0x01101198:    b403        ..      PUSH     {r0,r1}
        0x0110119a:    4801        .H      LDR      r0,[pc,#4] ; [0x11011a0] = 0xb099
        0x0110119c:    9001        ..      STR      r0,[sp,#4]
        0x0110119e:    bd01        ..      POP      {r0,pc}
    $d
        0x011011a0:    0000b099    ....    DCD    45209
    $t
    $Ven$TT$L$$idle_thread_init
        0x011011a4:    b403        ..      PUSH     {r0,r1}
        0x011011a6:    4801        .H      LDR      r0,[pc,#4] ; [0x11011ac] = 0xb0c9
        0x011011a8:    9001        ..      STR      r0,[sp,#4]
        0x011011aa:    bd01        ..      POP      {r0,pc}
    $d
        0x011011ac:    0000b0c9    ....    DCD    45257
    $t
    $Ven$TT$L$$interrupt_stack_init
        0x011011b0:    b403        ..      PUSH     {r0,r1}
        0x011011b2:    4801        .H      LDR      r0,[pc,#4] ; [0x11011b8] = 0xb0f1
        0x011011b4:    9001        ..      STR      r0,[sp,#4]
        0x011011b6:    bd01        ..      POP      {r0,pc}
    $d
        0x011011b8:    0000b0f1    ....    DCD    45297
    $t
    $Ven$TT$L$$sys_work_queue_init
        0x011011bc:    b403        ..      PUSH     {r0,r1}
        0x011011be:    4801        .H      LDR      r0,[pc,#4] ; [0x11011c4] = 0xd411
        0x011011c0:    9001        ..      STR      r0,[sp,#4]
        0x011011c2:    bd01        ..      POP      {r0,pc}
    $d
        0x011011c4:    0000d411    ....    DCD    54289
    $t
    $Ven$TT$L$$bt_tx_thread_init
        0x011011c8:    b403        ..      PUSH     {r0,r1}
        0x011011ca:    4801        .H      LDR      r0,[pc,#4] ; [0x11011d0] = 0x13fed
        0x011011cc:    9001        ..      STR      r0,[sp,#4]
        0x011011ce:    bd01        ..      POP      {r0,pc}
    $d
        0x011011d0:    00013fed    .?..    DCD    81901
    $t
    $Ven$TT$L$$bt_rx_thread_init
        0x011011d4:    b403        ..      PUSH     {r0,r1}
        0x011011d6:    4801        .H      LDR      r0,[pc,#4] ; [0x11011dc] = 0x14015
        0x011011d8:    9001        ..      STR      r0,[sp,#4]
        0x011011da:    bd01        ..      POP      {r0,pc}
    $d
        0x011011dc:    00014015    .@..    DCD    81941
    $t
    $Ven$TT$L$$bt_hci_cmd_pool_init
        0x011011e0:    b403        ..      PUSH     {r0,r1}
        0x011011e2:    4801        .H      LDR      r0,[pc,#4] ; [0x11011e8] = 0x1403d
        0x011011e4:    9001        ..      STR      r0,[sp,#4]
        0x011011e6:    bd01        ..      POP      {r0,pc}
    $d
        0x011011e8:    0001403d    =@..    DCD    81981
    $t
    $Ven$TT$L$$bt_hci_rx_pool_init
        0x011011ec:    b403        ..      PUSH     {r0,r1}
        0x011011ee:    4801        .H      LDR      r0,[pc,#4] ; [0x11011f4] = 0x14055
        0x011011f0:    9001        ..      STR      r0,[sp,#4]
        0x011011f2:    bd01        ..      POP      {r0,pc}
    $d
        0x011011f4:    00014055    U@..    DCD    82005
    $t
    $Ven$TT$L$$bt_acl_tx_pool_init
        0x011011f8:    b403        ..      PUSH     {r0,r1}
        0x011011fa:    4801        .H      LDR      r0,[pc,#4] ; [0x1101200] = 0x17ce5
        0x011011fc:    9001        ..      STR      r0,[sp,#4]
        0x011011fe:    bd01        ..      POP      {r0,pc}
    $d
        0x01101200:    00017ce5    .|..    DCD    97509
    $t
    $Ven$TT$L$$bt_prep_pool_int
        0x01101204:    b403        ..      PUSH     {r0,r1}
        0x01101206:    4801        .H      LDR      r0,[pc,#4] ; [0x110120c] = 0x1aacd
        0x01101208:    9001        ..      STR      r0,[sp,#4]
        0x0110120a:    bd01        ..      POP      {r0,pc}
    $d
        0x0110120c:    0001aacd    ....    DCD    109261
    $t
    $Ven$TT$L$$bt_l2cap_le_max_credits_init
        0x01101210:    b403        ..      PUSH     {r0,r1}
        0x01101212:    4801        .H      LDR      r0,[pc,#4] ; [0x1101218] = 0x191d1
        0x01101214:    9001        ..      STR      r0,[sp,#4]
        0x01101216:    bd01        ..      POP      {r0,pc}
    $d
        0x01101218:    000191d1    ....    DCD    102865
    $t
    $Ven$TT$L$$bt_l2cap_pramter_init
        0x0110121c:    b403        ..      PUSH     {r0,r1}
        0x0110121e:    4801        .H      LDR      r0,[pc,#4] ; [0x1101224] = 0x191e9
        0x01101220:    9001        ..      STR      r0,[sp,#4]
        0x01101222:    bd01        ..      POP      {r0,pc}
    $d
        0x01101224:    000191e9    ....    DCD    102889
    $t
    $Ven$TT$L$$bt_conn_tx_init
        0x01101228:    b403        ..      PUSH     {r0,r1}
        0x0110122a:    4801        .H      LDR      r0,[pc,#4] ; [0x1101230] = 0x17d21
        0x0110122c:    9001        ..      STR      r0,[sp,#4]
        0x0110122e:    bd01        ..      POP      {r0,pc}
    $d
        0x01101230:    00017d21    !}..    DCD    97569
    $t
    $Ven$TT$L$$bt_conn_struct_init
        0x01101234:    b403        ..      PUSH     {r0,r1}
        0x01101236:    4801        .H      LDR      r0,[pc,#4] ; [0x110123c] = 0x17cfd
        0x01101238:    9001        ..      STR      r0,[sp,#4]
        0x0110123a:    bd01        ..      POP      {r0,pc}
    $d
        0x0110123c:    00017cfd    .|..    DCD    97533
    $t
    $Ven$TT$L$$bt_req_pool_int
        0x01101240:    b403        ..      PUSH     {r0,r1}
        0x01101242:    4801        .H      LDR      r0,[pc,#4] ; [0x1101248] = 0x1aaed
        0x01101244:    9001        ..      STR      r0,[sp,#4]
        0x01101246:    bd01        ..      POP      {r0,pc}
    $d
        0x01101248:    0001aaed    ....    DCD    109293
    $t
    $Ven$TT$L$$bt_l2cap_pool_init
        0x0110124c:    b403        ..      PUSH     {r0,r1}
        0x0110124e:    4801        .H      LDR      r0,[pc,#4] ; [0x1101254] = 0x191fd
        0x01101250:    9001        ..      STR      r0,[sp,#4]
        0x01101252:    bd01        ..      POP      {r0,pc}
    $d
        0x01101254:    000191fd    ....    DCD    102909
    $t
    $Ven$TT$L$$bt_tx_poll_event_init
        0x01101258:    b403        ..      PUSH     {r0,r1}
        0x0110125a:    4801        .H      LDR      r0,[pc,#4] ; [0x1101260] = 0x14f35
        0x0110125c:    9001        ..      STR      r0,[sp,#4]
        0x0110125e:    bd01        ..      POP      {r0,pc}
    $d
        0x01101260:    00014f35    5O..    DCD    85813
    $t
    $Ven$TT$L$$bt_att_paramter_init
        0x01101264:    b403        ..      PUSH     {r0,r1}
        0x01101266:    4801        .H      LDR      r0,[pc,#4] ; [0x110126c] = 0x1aaad
        0x01101268:    9001        ..      STR      r0,[sp,#4]
        0x0110126a:    bd01        ..      POP      {r0,pc}
    $d
        0x0110126c:    0001aaad    ....    DCD    109229
    $t
    $Ven$TT$L$$strlen
        0x01101270:    b403        ..      PUSH     {r0,r1}
        0x01101272:    4801        .H      LDR      r0,[pc,#4] ; [0x1101278] = 0xa493
        0x01101274:    9001        ..      STR      r0,[sp,#4]
        0x01101276:    bd01        ..      POP      {r0,pc}
    $d
        0x01101278:    0000a493    ....    DCD    42131
    $t
    $Ven$TT$L$$bt_gap_svc_config_init
        0x0110127c:    b403        ..      PUSH     {r0,r1}
        0x0110127e:    4801        .H      LDR      r0,[pc,#4] ; [0x1101284] = 0x1c42d
        0x01101280:    9001        ..      STR      r0,[sp,#4]
        0x01101282:    bd01        ..      POP      {r0,pc}
    $d
        0x01101284:    0001c42d    -...    DCD    115757
    $t
    $Ven$TT$L$$bt_gatt_svc_config_init
        0x01101288:    b403        ..      PUSH     {r0,r1}
        0x0110128a:    4801        .H      LDR      r0,[pc,#4] ; [0x1101290] = 0x1c449
        0x0110128c:    9001        ..      STR      r0,[sp,#4]
        0x0110128e:    bd01        ..      POP      {r0,pc}
    $d
        0x01101290:    0001c449    I...    DCD    115785
    $t
    $Ven$TT$L$$bt_enable_smp
        0x01101294:    b403        ..      PUSH     {r0,r1}
        0x01101296:    4801        .H      LDR      r0,[pc,#4] ; [0x110129c] = 0x14075
        0x01101298:    9001        ..      STR      r0,[sp,#4]
        0x0110129a:    bd01        ..      POP      {r0,pc}
    $d
        0x0110129c:    00014075    u@..    DCD    82037
    $t
    $Ven$TT$L$$bt_smp_pool_init
        0x011012a0:    b403        ..      PUSH     {r0,r1}
        0x011012a2:    4801        .H      LDR      r0,[pc,#4] ; [0x11012a8] = 0x1e255
        0x011012a4:    9001        ..      STR      r0,[sp,#4]
        0x011012a6:    bd01        ..      POP      {r0,pc}
    $d
        0x011012a8:    0001e255    U...    DCD    123477
    $t
    $Ven$TT$L$$bt_host_keys_init
        0x011012ac:    b403        ..      PUSH     {r0,r1}
        0x011012ae:    4801        .H      LDR      r0,[pc,#4] ; [0x11012b4] = 0x20bd9
        0x011012b0:    9001        ..      STR      r0,[sp,#4]
        0x011012b2:    bd01        ..      POP      {r0,pc}
    $d
        0x011012b4:    00020bd9    ....    DCD    134105
    $t
    $Ven$TT$L$$bt_set_delay_time_read_remote_features
        0x011012b8:    b403        ..      PUSH     {r0,r1}
        0x011012ba:    4801        .H      LDR      r0,[pc,#4] ; [0x11012c0] = 0x14679
        0x011012bc:    9001        ..      STR      r0,[sp,#4]
        0x011012be:    bd01        ..      POP      {r0,pc}
    $d
        0x011012c0:    00014679    yF..    DCD    83577
    $t
    $Ven$TT$L$$hci_set_le_sup_feat
        0x011012c4:    b403        ..      PUSH     {r0,r1}
        0x011012c6:    4801        .H      LDR      r0,[pc,#4] ; [0x11012cc] = 0x14f95
        0x011012c8:    9001        ..      STR      r0,[sp,#4]
        0x011012ca:    bd01        ..      POP      {r0,pc}
    $d
        0x011012cc:    00014f95    .O..    DCD    85909
    $t
    $Ven$TT$L$$hci_vs_cfg_acl_bufs
        0x011012d0:    b403        ..      PUSH     {r0,r1}
        0x011012d2:    4801        .H      LDR      r0,[pc,#4] ; [0x11012d8] = 0x177c9
        0x011012d4:    9001        ..      STR      r0,[sp,#4]
        0x011012d6:    bd01        ..      POP      {r0,pc}
    $d
        0x011012d8:    000177c9    .w..    DCD    96201
    $t
    $Ven$TT$L$$hci_vs_cfg_max_conn
        0x011012dc:    b403        ..      PUSH     {r0,r1}
        0x011012de:    4801        .H      LDR      r0,[pc,#4] ; [0x11012e4] = 0x17841
        0x011012e0:    9001        ..      STR      r0,[sp,#4]
        0x011012e2:    bd01        ..      POP      {r0,pc}
    $d
        0x011012e4:    00017841    Ax..    DCD    96321
    $t
    $Ven$TT$L$$hci_vs_cfg_version
        0x011012e8:    b403        ..      PUSH     {r0,r1}
        0x011012ea:    4801        .H      LDR      r0,[pc,#4] ; [0x11012f0] = 0x177e1
        0x011012ec:    9001        ..      STR      r0,[sp,#4]
        0x011012ee:    bd01        ..      POP      {r0,pc}
    $d
        0x011012f0:    000177e1    .w..    DCD    96225
    $t
    $Ven$TT$L$$hci_vs_cfg_bd_addr
        0x011012f4:    b403        ..      PUSH     {r0,r1}
        0x011012f6:    4801        .H      LDR      r0,[pc,#4] ; [0x11012fc] = 0x177ad
        0x011012f8:    9001        ..      STR      r0,[sp,#4]
        0x011012fa:    bd01        ..      POP      {r0,pc}
    $d
        0x011012fc:    000177ad    .w..    DCD    96173
    $t
    $Ven$TT$L$$hci_vs_cfg_pwr_mgmt
        0x01101300:    b403        ..      PUSH     {r0,r1}
        0x01101302:    4801        .H      LDR      r0,[pc,#4] ; [0x1101308] = 0x17799
        0x01101304:    9001        ..      STR      r0,[sp,#4]
        0x01101306:    bd01        ..      POP      {r0,pc}
    $d
        0x01101308:    00017799    .w..    DCD    96153
    $t
    $Ven$TT$L$$enable_scan_with_identity
        0x0110130c:    b403        ..      PUSH     {r0,r1}
        0x0110130e:    4801        .H      LDR      r0,[pc,#4] ; [0x1101314] = 0x13fc1
        0x01101310:    9001        ..      STR      r0,[sp,#4]
        0x01101312:    bd01        ..      POP      {r0,pc}
    $d
        0x01101314:    00013fc1    .?..    DCD    81857
    $t
    $Ven$TT$L$$__aeabi_uidivmod
        0x01101318:    b403        ..      PUSH     {r0,r1}
        0x0110131a:    4801        .H      LDR      r0,[pc,#4] ; [0x1101320] = 0x4285
        0x0110131c:    9001        ..      STR      r0,[sp,#4]
        0x0110131e:    bd01        ..      POP      {r0,pc}
    $d
        0x01101320:    00004285    .B..    DCD    17029
    $t
    $Ven$TT$L$$k_queue_init
        0x01101324:    b403        ..      PUSH     {r0,r1}
        0x01101326:    4801        .H      LDR      r0,[pc,#4] ; [0x110132c] = 0xbce9
        0x01101328:    9001        ..      STR      r0,[sp,#4]
        0x0110132a:    bd01        ..      POP      {r0,pc}
    $d
        0x0110132c:    0000bce9    ....    DCD    48361
    $t
    $Ven$TT$L$$line_queue_init
        0x01101330:    b403        ..      PUSH     {r0,r1}
        0x01101332:    4801        .H      LDR      r0,[pc,#4] ; [0x1101338] = 0x21b11
        0x01101334:    9001        ..      STR      r0,[sp,#4]
        0x01101336:    bd01        ..      POP      {r0,pc}
    $d
        0x01101338:    00021b11    ....    DCD    138001
    $t
    $Ven$TT$L$$k_thread_create
        0x0110133c:    b403        ..      PUSH     {r0,r1}
        0x0110133e:    4801        .H      LDR      r0,[pc,#4] ; [0x1101344] = 0xae41
        0x01101340:    9001        ..      STR      r0,[sp,#4]
        0x01101342:    bd01        ..      POP      {r0,pc}
    $d
        0x01101344:    0000ae41    A...    DCD    44609
    $t
    $Ven$TT$L$$uart_register_input
        0x01101348:    b403        ..      PUSH     {r0,r1}
        0x0110134a:    4801        .H      LDR      r0,[pc,#4] ; [0x1101350] = 0xd851
        0x0110134c:    9001        ..      STR      r0,[sp,#4]
        0x0110134e:    bd01        ..      POP      {r0,pc}
    $d
        0x01101350:    0000d851    Q...    DCD    55377
    $t
    $Ven$TT$L$$bt_gatt_service_register
        0x01101354:    b403        ..      PUSH     {r0,r1}
        0x01101356:    4801        .H      LDR      r0,[pc,#4] ; [0x110135c] = 0x1c5c9
        0x01101358:    9001        ..      STR      r0,[sp,#4]
        0x0110135a:    bd01        ..      POP      {r0,pc}
    $d
        0x0110135c:    0001c5c9    ....    DCD    116169
    $t
    $Ven$TT$L$$app_release_wake_lock
        0x01101360:    b403        ..      PUSH     {r0,r1}
        0x01101362:    4801        .H      LDR      r0,[pc,#4] ; [0x1101368] = 0x22199
        0x01101364:    9001        ..      STR      r0,[sp,#4]
        0x01101366:    bd01        ..      POP      {r0,pc}
    $d
        0x01101368:    00022199    .!..    DCD    139673
    $t
    $Ven$TT$L$$bt_set_conn_update_param
        0x0110136c:    b403        ..      PUSH     {r0,r1}
        0x0110136e:    4801        .H      LDR      r0,[pc,#4] ; [0x1101374] = 0x13fcd
        0x01101370:    9001        ..      STR      r0,[sp,#4]
        0x01101372:    bd01        ..      POP      {r0,pc}
    $d
        0x01101374:    00013fcd    .?..    DCD    81869
    $t
    $Ven$TT$L$$bt_conn_cb_register
        0x01101378:    b403        ..      PUSH     {r0,r1}
        0x0110137a:    4801        .H      LDR      r0,[pc,#4] ; [0x1101380] = 0x18075
        0x0110137c:    9001        ..      STR      r0,[sp,#4]
        0x0110137e:    bd01        ..      POP      {r0,pc}
    $d
        0x01101380:    00018075    u...    DCD    98421
    $t
    $Ven$TT$L$$nvram_config_get_factory
        0x01101384:    b403        ..      PUSH     {r0,r1}
        0x01101386:    4801        .H      LDR      r0,[pc,#4] ; [0x110138c] = 0x11f71
        0x01101388:    9001        ..      STR      r0,[sp,#4]
        0x0110138a:    bd01        ..      POP      {r0,pc}
    $d
        0x0110138c:    00011f71    q...    DCD    73585
    $t
    $Ven$TT$L$$strcmp
        0x01101390:    b403        ..      PUSH     {r0,r1}
        0x01101392:    4801        .H      LDR      r0,[pc,#4] ; [0x1101398] = 0xa4a5
        0x01101394:    9001        ..      STR      r0,[sp,#4]
        0x01101396:    bd01        ..      POP      {r0,pc}
    $d
        0x01101398:    0000a4a5    ....    DCD    42149
    $t
    $Ven$TT$L$$k_delayed_work_init
        0x0110139c:    b403        ..      PUSH     {r0,r1}
        0x0110139e:    4801        .H      LDR      r0,[pc,#4] ; [0x11013a4] = 0xd2a1
        0x011013a0:    9001        ..      STR      r0,[sp,#4]
        0x011013a2:    bd01        ..      POP      {r0,pc}
    $d
        0x011013a4:    0000d2a1    ....    DCD    53921
    $t
    $Ven$TT$L$$__aeabi_idivmod
        0x011013a8:    b403        ..      PUSH     {r0,r1}
        0x011013aa:    4801        .H      LDR      r0,[pc,#4] ; [0x11013b0] = 0x4345
        0x011013ac:    9001        ..      STR      r0,[sp,#4]
        0x011013ae:    bd01        ..      POP      {r0,pc}
    $d
        0x011013b0:    00004345    EC..    DCD    17221
    $t
    $Ven$TT$L$$audio_in_disable
        0x011013b4:    b403        ..      PUSH     {r0,r1}
        0x011013b6:    4801        .H      LDR      r0,[pc,#4] ; [0x11013bc] = 0x12699
        0x011013b8:    9001        ..      STR      r0,[sp,#4]
        0x011013ba:    bd01        ..      POP      {r0,pc}
    $d
        0x011013bc:    00012699    .&..    DCD    75417
    $t
    $Ven$TT$L$$acts_reset_peripheral
        0x011013c0:    b403        ..      PUSH     {r0,r1}
        0x011013c2:    4801        .H      LDR      r0,[pc,#4] ; [0x11013c8] = 0x22105
        0x011013c4:    9001        ..      STR      r0,[sp,#4]
        0x011013c6:    bd01        ..      POP      {r0,pc}
    $d
        0x011013c8:    00022105    .!..    DCD    139525
    $t
    $Ven$TT$L$$device_busy_clear
        0x011013cc:    b403        ..      PUSH     {r0,r1}
        0x011013ce:    4801        .H      LDR      r0,[pc,#4] ; [0x11013d4] = 0xb5f9
        0x011013d0:    9001        ..      STR      r0,[sp,#4]
        0x011013d2:    bd01        ..      POP      {r0,pc}
    $d
        0x011013d4:    0000b5f9    ....    DCD    46585
    $t
    $Ven$TT$L$$audio_in_enable
        0x011013d8:    b403        ..      PUSH     {r0,r1}
        0x011013da:    4801        .H      LDR      r0,[pc,#4] ; [0x11013e0] = 0x125b5
        0x011013dc:    9001        ..      STR      r0,[sp,#4]
        0x011013de:    bd01        ..      POP      {r0,pc}
    $d
        0x011013e0:    000125b5    .%..    DCD    75189
    $t
    $Ven$TT$L$$device_busy_set
        0x011013e4:    b403        ..      PUSH     {r0,r1}
        0x011013e6:    4801        .H      LDR      r0,[pc,#4] ; [0x11013ec] = 0xb5c5
        0x011013e8:    9001        ..      STR      r0,[sp,#4]
        0x011013ea:    bd01        ..      POP      {r0,pc}
    $d
        0x011013ec:    0000b5c5    ....    DCD    46533
    $t
    $Ven$TT$L$$nvram_config_init
        0x011013f0:    b403        ..      PUSH     {r0,r1}
        0x011013f2:    4801        .H      LDR      r0,[pc,#4] ; [0x11013f8] = 0x121e9
        0x011013f4:    9001        ..      STR      r0,[sp,#4]
        0x011013f6:    bd01        ..      POP      {r0,pc}
    $d
        0x011013f8:    000121e9    .!..    DCD    74217
    $t
    $Ven$TT$L$$_arch_irq_disable
        0x011013fc:    b403        ..      PUSH     {r0,r1}
        0x011013fe:    4801        .H      LDR      r0,[pc,#4] ; [0x1101404] = 0x226e9
        0x01101400:    9001        ..      STR      r0,[sp,#4]
        0x01101402:    bd01        ..      POP      {r0,pc}
    $d
        0x01101404:    000226e9    .&..    DCD    141033
    $t
    $Ven$TT$L$$memcmp
        0x01101408:    b403        ..      PUSH     {r0,r1}
        0x0110140a:    4801        .H      LDR      r0,[pc,#4] ; [0x1101410] = 0xa51b
        0x0110140c:    9001        ..      STR      r0,[sp,#4]
        0x0110140e:    bd01        ..      POP      {r0,pc}
    $d
        0x01101410:    0000a51b    ....    DCD    42267
    $t
    $Ven$TT$L$$bt_rpa_irk_matches
        0x01101414:    b403        ..      PUSH     {r0,r1}
        0x01101416:    4801        .H      LDR      r0,[pc,#4] ; [0x110141c] = 0x13d47
        0x01101418:    9001        ..      STR      r0,[sp,#4]
        0x0110141a:    bd01        ..      POP      {r0,pc}
    $d
        0x0110141c:    00013d47    G=..    DCD    81223
    $t
    $Ven$TT$L$$app_get_wake_lock
        0x01101420:    b403        ..      PUSH     {r0,r1}
        0x01101422:    4801        .H      LDR      r0,[pc,#4] ; [0x1101428] = 0x22189
        0x01101424:    9001        ..      STR      r0,[sp,#4]
        0x01101426:    bd01        ..      POP      {r0,pc}
    $d
        0x01101428:    00022189    .!..    DCD    139657
    $t
    $Ven$TT$L$$bt_enable
        0x0110142c:    b403        ..      PUSH     {r0,r1}
        0x0110142e:    4801        .H      LDR      r0,[pc,#4] ; [0x1101434] = 0x16d31
        0x01101430:    9001        ..      STR      r0,[sp,#4]
        0x01101432:    bd01        ..      POP      {r0,pc}
    $d
        0x01101434:    00016d31    1m..    DCD    93489
    $t
    $Ven$TT$L$$snprintk
        0x01101438:    b403        ..      PUSH     {r0,r1}
        0x0110143a:    4801        .H      LDR      r0,[pc,#4] ; [0x1101440] = 0x12aed
        0x0110143c:    9001        ..      STR      r0,[sp,#4]
        0x0110143e:    bd01        ..      POP      {r0,pc}
    $d
        0x01101440:    00012aed    .*..    DCD    76525
    $t
    $Ven$TT$L$$atomic_or
        0x01101444:    b403        ..      PUSH     {r0,r1}
        0x01101446:    4801        .H      LDR      r0,[pc,#4] ; [0x110144c] = 0x22b25
        0x01101448:    9001        ..      STR      r0,[sp,#4]
        0x0110144a:    bd01        ..      POP      {r0,pc}
    $d
        0x0110144c:    00022b25    %+..    DCD    142117
    $t
    $Ven$TT$L$$att_get
        0x01101450:    b403        ..      PUSH     {r0,r1}
        0x01101452:    4801        .H      LDR      r0,[pc,#4] ; [0x1101458] = 0x1ab31
        0x01101454:    9001        ..      STR      r0,[sp,#4]
        0x01101456:    bd01        ..      POP      {r0,pc}
    $d
        0x01101458:    0001ab31    1...    DCD    109361
    $t
    $Ven$TT$L$$k_sem_give
        0x0110145c:    b403        ..      PUSH     {r0,r1}
        0x0110145e:    4801        .H      LDR      r0,[pc,#4] ; [0x1101464] = 0xb481
        0x01101460:    9001        ..      STR      r0,[sp,#4]
        0x01101462:    bd01        ..      POP      {r0,pc}
    $d
        0x01101464:    0000b481    ....    DCD    46209
    $t
    $Ven$TT$L$$k_delayed_work_submit_to_queue
        0x01101468:    b403        ..      PUSH     {r0,r1}
        0x0110146a:    4801        .H      LDR      r0,[pc,#4] ; [0x1101470] = 0xd361
        0x0110146c:    9001        ..      STR      r0,[sp,#4]
        0x0110146e:    bd01        ..      POP      {r0,pc}
    $d
        0x01101470:    0000d361    a...    DCD    54113
    $t
    $Ven$TT$L$$atomic_and
        0x01101474:    b403        ..      PUSH     {r0,r1}
        0x01101476:    4801        .H      LDR      r0,[pc,#4] ; [0x110147c] = 0x22b51
        0x01101478:    9001        ..      STR      r0,[sp,#4]
        0x0110147a:    bd01        ..      POP      {r0,pc}
    $d
        0x0110147c:    00022b51    Q+..    DCD    142161
    $t
    $Ven$TT$L$$net_buf_get
        0x01101480:    b403        ..      PUSH     {r0,r1}
        0x01101482:    4801        .H      LDR      r0,[pc,#4] ; [0x1101488] = 0x2153d
        0x01101484:    9001        ..      STR      r0,[sp,#4]
        0x01101486:    bd01        ..      POP      {r0,pc}
    $d
        0x01101488:    0002153d    =...    DCD    136509
    $t
    $Ven$TT$L$$net_buf_unref
        0x0110148c:    b403        ..      PUSH     {r0,r1}
        0x0110148e:    4801        .H      LDR      r0,[pc,#4] ; [0x1101494] = 0x21593
        0x01101490:    9001        ..      STR      r0,[sp,#4]
        0x01101492:    bd01        ..      POP      {r0,pc}
    $d
        0x01101494:    00021593    ....    DCD    136595
    $t
    $Ven$TT$L$$net_buf_alloc
        0x01101498:    b403        ..      PUSH     {r0,r1}
        0x0110149a:    4801        .H      LDR      r0,[pc,#4] ; [0x11014a0] = 0x214b5
        0x0110149c:    9001        ..      STR      r0,[sp,#4]
        0x0110149e:    bd01        ..      POP      {r0,pc}
    $d
        0x011014a0:    000214b5    ....    DCD    136373
    $t
    $Ven$TT$L$$audio_in_pcmbuf_transfer_config
        0x011014a4:    b403        ..      PUSH     {r0,r1}
        0x011014a6:    4801        .H      LDR      r0,[pc,#4] ; [0x11014ac] = 0x122f9
        0x011014a8:    9001        ..      STR      r0,[sp,#4]
        0x011014aa:    bd01        ..      POP      {r0,pc}
    $d
        0x011014ac:    000122f9    ."..    DCD    74489
    $t
    $Ven$TT$L$$net_buf_simple_add
        0x011014b0:    b403        ..      PUSH     {r0,r1}
        0x011014b2:    4801        .H      LDR      r0,[pc,#4] ; [0x11014b8] = 0x21677
        0x011014b4:    9001        ..      STR      r0,[sp,#4]
        0x011014b6:    bd01        ..      POP      {r0,pc}
    $d
        0x011014b8:    00021677    w...    DCD    136823
    $t
    $Ven$TT$L$$k_queue_append
        0x011014bc:    b403        ..      PUSH     {r0,r1}
        0x011014be:    4801        .H      LDR      r0,[pc,#4] ; [0x11014c4] = 0xbd77
        0x011014c0:    9001        ..      STR      r0,[sp,#4]
        0x011014c2:    bd01        ..      POP      {r0,pc}
    $d
        0x011014c4:    0000bd77    w...    DCD    48503
    $t
    $Ven$TT$L$$audio_in_pcmbuf_config
        0x011014c8:    b403        ..      PUSH     {r0,r1}
        0x011014ca:    4801        .H      LDR      r0,[pc,#4] ; [0x11014d0] = 0x12361
        0x011014cc:    9001        ..      STR      r0,[sp,#4]
        0x011014ce:    bd01        ..      POP      {r0,pc}
    $d
        0x011014d0:    00012361    a#..    DCD    74593
    $t
    $Ven$TT$L$$bt_gatt_notify
        0x011014d4:    b403        ..      PUSH     {r0,r1}
        0x011014d6:    4801        .H      LDR      r0,[pc,#4] ; [0x11014dc] = 0x1cd4d
        0x011014d8:    9001        ..      STR      r0,[sp,#4]
        0x011014da:    bd01        ..      POP      {r0,pc}
    $d
        0x011014dc:    0001cd4d    M...    DCD    118093
    $t
    $Ven$TT$L$$strcpy
        0x011014e0:    b403        ..      PUSH     {r0,r1}
        0x011014e2:    4801        .H      LDR      r0,[pc,#4] ; [0x11014e8] = 0xa42d
        0x011014e4:    9001        ..      STR      r0,[sp,#4]
        0x011014e6:    bd01        ..      POP      {r0,pc}
    $d
        0x011014e8:    0000a42d    -...    DCD    42029
    $t
    $Ven$TT$L$$nvram_config_get
        0x011014ec:    b403        ..      PUSH     {r0,r1}
        0x011014ee:    4801        .H      LDR      r0,[pc,#4] ; [0x11014f4] = 0x11f85
        0x011014f0:    9001        ..      STR      r0,[sp,#4]
        0x011014f2:    bd01        ..      POP      {r0,pc}
    $d
        0x011014f4:    00011f85    ....    DCD    73605
    $t
    $Ven$TT$L$$bt_gatt_foreach_attr
        0x011014f8:    b403        ..      PUSH     {r0,r1}
        0x011014fa:    4801        .H      LDR      r0,[pc,#4] ; [0x1101500] = 0x1c705
        0x011014fc:    9001        ..      STR      r0,[sp,#4]
        0x011014fe:    bd01        ..      POP      {r0,pc}
    $d
        0x01101500:    0001c705    ....    DCD    116485
    $t
    $Ven$TT$L$$nvram_config_set
        0x01101504:    b403        ..      PUSH     {r0,r1}
        0x01101506:    4801        .H      LDR      r0,[pc,#4] ; [0x110150c] = 0x11f3d
        0x01101508:    9001        ..      STR      r0,[sp,#4]
        0x0110150a:    bd01        ..      POP      {r0,pc}
    $d
        0x0110150c:    00011f3d    =...    DCD    73533
    $t
    $Ven$TT$L$$bt_conn_get_dst
        0x01101510:    b403        ..      PUSH     {r0,r1}
        0x01101512:    4801        .H      LDR      r0,[pc,#4] ; [0x1101518] = 0x188cd
        0x01101514:    9001        ..      STR      r0,[sp,#4]
        0x01101516:    bd01        ..      POP      {r0,pc}
    $d
        0x01101518:    000188cd    ....    DCD    100557
    $t
    $Ven$TT$L$$nvram_config_set_factory
        0x0110151c:    b403        ..      PUSH     {r0,r1}
        0x0110151e:    4801        .H      LDR      r0,[pc,#4] ; [0x1101524] = 0x11f29
        0x01101520:    9001        ..      STR      r0,[sp,#4]
        0x01101522:    bd01        ..      POP      {r0,pc}
    $d
        0x01101524:    00011f29    )...    DCD    73513
    $t
    $Ven$TT$L$$bt_addr_le_is_bonded
        0x01101528:    b403        ..      PUSH     {r0,r1}
        0x0110152a:    4801        .H      LDR      r0,[pc,#4] ; [0x1101530] = 0x16e91
        0x0110152c:    9001        ..      STR      r0,[sp,#4]
        0x0110152e:    bd01        ..      POP      {r0,pc}
    $d
        0x01101530:    00016e91    .n..    DCD    93841
    $t
    $Ven$TT$L$$bt_hci_cmd_send_sync
        0x01101534:    b403        ..      PUSH     {r0,r1}
        0x01101536:    4801        .H      LDR      r0,[pc,#4] ; [0x110153c] = 0x14105
        0x01101538:    9001        ..      STR      r0,[sp,#4]
        0x0110153a:    bd01        ..      POP      {r0,pc}
    $d
        0x0110153c:    00014105    .A..    DCD    82181
    $t
    $Ven$TT$L$$bt_hci_cmd_create
        0x01101540:    b403        ..      PUSH     {r0,r1}
        0x01101542:    4801        .H      LDR      r0,[pc,#4] ; [0x1101548] = 0x14081
        0x01101544:    9001        ..      STR      r0,[sp,#4]
        0x01101546:    bd01        ..      POP      {r0,pc}
    $d
        0x01101548:    00014081    .@..    DCD    82049
    $t
    $Ven$TT$L$$acts_clock_peripheral_enable
        0x0110154c:    b403        ..      PUSH     {r0,r1}
        0x0110154e:    4801        .H      LDR      r0,[pc,#4] ; [0x1101554] = 0x222a9
        0x01101550:    9001        ..      STR      r0,[sp,#4]
        0x01101552:    bd01        ..      POP      {r0,pc}
    $d
        0x01101554:    000222a9    ."..    DCD    139945
    $t
    $Ven$TT$L$$acts_clock_peripheral_disable
        0x01101558:    b403        ..      PUSH     {r0,r1}
        0x0110155a:    4801        .H      LDR      r0,[pc,#4] ; [0x1101560] = 0x222cd
        0x0110155c:    9001        ..      STR      r0,[sp,#4]
        0x0110155e:    bd01        ..      POP      {r0,pc}
    $d
        0x01101560:    000222cd    ."..    DCD    139981
    $t
    $Ven$TT$L$$bt_conn_disconnect
        0x01101564:    b403        ..      PUSH     {r0,r1}
        0x01101566:    4801        .H      LDR      r0,[pc,#4] ; [0x110156c] = 0x18b15
        0x01101568:    9001        ..      STR      r0,[sp,#4]
        0x0110156a:    bd01        ..      POP      {r0,pc}
    $d
        0x0110156c:    00018b15    ....    DCD    101141
    $t
    $Ven$TT$L$$update_conn_param
        0x01101570:    b403        ..      PUSH     {r0,r1}
        0x01101572:    4801        .H      LDR      r0,[pc,#4] ; [0x1101578] = 0x14631
        0x01101574:    9001        ..      STR      r0,[sp,#4]
        0x01101576:    bd01        ..      POP      {r0,pc}
    $d
        0x01101578:    00014631    1F..    DCD    83505
    $t
    $Ven$TT$L$$bt_conn_le_param_update
        0x0110157c:    b403        ..      PUSH     {r0,r1}
        0x0110157e:    4801        .H      LDR      r0,[pc,#4] ; [0x1101584] = 0x18c51
        0x01101580:    9001        ..      STR      r0,[sp,#4]
        0x01101582:    bd01        ..      POP      {r0,pc}
    $d
        0x01101584:    00018c51    Q...    DCD    101457
    $t
    $Ven$TT$L$$llcc_tx_cmd_crc
        0x01101588:    b403        ..      PUSH     {r0,r1}
        0x0110158a:    4801        .H      LDR      r0,[pc,#4] ; [0x1101590] = 0xe5a9
        0x0110158c:    9001        ..      STR      r0,[sp,#4]
        0x0110158e:    bd01        ..      POP      {r0,pc}
    $d
        0x01101590:    0000e5a9    ....    DCD    58793
    $t
    $Ven$TT$L$$_PrepC
        0x01101594:    b403        ..      PUSH     {r0,r1}
        0x01101596:    4801        .H      LDR      r0,[pc,#4] ; [0x110159c] = 0x229b9
        0x01101598:    9001        ..      STR      r0,[sp,#4]
        0x0110159a:    bd01        ..      POP      {r0,pc}
    $d
        0x0110159c:    000229b9    .)..    DCD    141753
    $t
    $Ven$TT$L$$mxkeypad_acts_get_keycode
        0x011015a0:    b403        ..      PUSH     {r0,r1}
        0x011015a2:    4801        .H      LDR      r0,[pc,#4] ; [0x11015a8] = 0x11717
        0x011015a4:    9001        ..      STR      r0,[sp,#4]
        0x011015a6:    bd01        ..      POP      {r0,pc}
    $d
        0x011015a8:    00011717    ....    DCD    71447
    $t
    $Ven$TT$L$$mxkeypad_acts_report_key
        0x011015ac:    b403        ..      PUSH     {r0,r1}
        0x011015ae:    4801        .H      LDR      r0,[pc,#4] ; [0x11015b4] = 0x1174f
        0x011015b0:    9001        ..      STR      r0,[sp,#4]
        0x011015b2:    bd01        ..      POP      {r0,pc}
    $d
        0x011015b4:    0001174f    O...    DCD    71503
    $t
    $Ven$TT$L$$k_timer_stop
        0x011015b8:    b403        ..      PUSH     {r0,r1}
        0x011015ba:    4801        .H      LDR      r0,[pc,#4] ; [0x11015c0] = 0x23071
        0x011015bc:    9001        ..      STR      r0,[sp,#4]
        0x011015be:    bd01        ..      POP      {r0,pc}
    $d
        0x011015c0:    00023071    q0..    DCD    143473
    $t
    $Ven$TT$L$$k_timer_start
        0x011015c4:    b403        ..      PUSH     {r0,r1}
        0x011015c6:    4801        .H      LDR      r0,[pc,#4] ; [0x11015cc] = 0x23025
        0x011015c8:    9001        ..      STR      r0,[sp,#4]
        0x011015ca:    bd01        ..      POP      {r0,pc}
    $d
        0x011015cc:    00023025    %0..    DCD    143397
    $t
    $Ven$TT$L$$atomic_get
        0x011015d0:    b403        ..      PUSH     {r0,r1}
        0x011015d2:    4801        .H      LDR      r0,[pc,#4] ; [0x11015d8] = 0x22af7
        0x011015d4:    9001        ..      STR      r0,[sp,#4]
        0x011015d6:    bd01        ..      POP      {r0,pc}
    $d
        0x011015d8:    00022af7    .*..    DCD    142071
    $t
    $Ven$TT$L$$crc32
        0x011015dc:    b403        ..      PUSH     {r0,r1}
        0x011015de:    4801        .H      LDR      r0,[pc,#4] ; [0x11015e4] = 0x119d5
        0x011015e0:    9001        ..      STR      r0,[sp,#4]
        0x011015e2:    bd01        ..      POP      {r0,pc}
    $d
        0x011015e4:    000119d5    ....    DCD    72149
    $t
    $Ven$TT$L$$bt_gatt_attr_read
        0x011015e8:    b403        ..      PUSH     {r0,r1}
        0x011015ea:    4801        .H      LDR      r0,[pc,#4] ; [0x11015f0] = 0x1c6d5
        0x011015ec:    9001        ..      STR      r0,[sp,#4]
        0x011015ee:    bd01        ..      POP      {r0,pc}
    $d
        0x011015f0:    0001c6d5    ....    DCD    116437
    $t
    $Ven$TT$L$$bt_le_adv_stop
        0x011015f4:    b403        ..      PUSH     {r0,r1}
        0x011015f6:    4801        .H      LDR      r0,[pc,#4] ; [0x11015fc] = 0x171b1
        0x011015f8:    9001        ..      STR      r0,[sp,#4]
        0x011015fa:    bd01        ..      POP      {r0,pc}
    $d
        0x011015fc:    000171b1    .q..    DCD    94641
    $t
    $Ven$TT$L$$bt_le_adv_start
        0x01101600:    b403        ..      PUSH     {r0,r1}
        0x01101602:    4801        .H      LDR      r0,[pc,#4] ; [0x1101608] = 0x16f71
        0x01101604:    9001        ..      STR      r0,[sp,#4]
        0x01101606:    bd01        ..      POP      {r0,pc}
    $d
        0x01101608:    00016f71    qo..    DCD    94065
    $t
    $Ven$TT$L$$k_delayed_work_cancel
        0x0110160c:    b403        ..      PUSH     {r0,r1}
        0x0110160e:    4801        .H      LDR      r0,[pc,#4] ; [0x1101614] = 0xd2cd
        0x01101610:    9001        ..      STR      r0,[sp,#4]
        0x01101612:    bd01        ..      POP      {r0,pc}
    $d
        0x01101614:    0000d2cd    ....    DCD    53965
    $t
    $Ven$TT$L$$net_buf_put
        0x01101618:    b403        ..      PUSH     {r0,r1}
        0x0110161a:    4801        .H      LDR      r0,[pc,#4] ; [0x1101620] = 0x21577
        0x0110161c:    9001        ..      STR      r0,[sp,#4]
        0x0110161e:    bd01        ..      POP      {r0,pc}
    $d
        0x01101620:    00021577    w...    DCD    136567
    $t
    $Ven$TT$L$$acts_pinmux_set
        0x01101624:    b403        ..      PUSH     {r0,r1}
        0x01101626:    4801        .H      LDR      r0,[pc,#4] ; [0x110162c] = 0x22115
        0x01101628:    9001        ..      STR      r0,[sp,#4]
        0x0110162a:    bd01        ..      POP      {r0,pc}
    $d
        0x0110162c:    00022115    .!..    DCD    139541
    $t
    $Ven$TT$L$$atomic_set
        0x01101630:    b403        ..      PUSH     {r0,r1}
        0x01101632:    4801        .H      LDR      r0,[pc,#4] ; [0x1101638] = 0x22afb
        0x01101634:    9001        ..      STR      r0,[sp,#4]
        0x01101636:    bd01        ..      POP      {r0,pc}
    $d
        0x01101638:    00022afb    .*..    DCD    142075
    $t
    $Ven$TT$L$$bt_storage_register
        0x0110163c:    b403        ..      PUSH     {r0,r1}
        0x0110163e:    4801        .H      LDR      r0,[pc,#4] ; [0x1101644] = 0x1750d
        0x01101640:    9001        ..      STR      r0,[sp,#4]
        0x01101642:    bd01        ..      POP      {r0,pc}
    $d
        0x01101644:    0001750d    .u..    DCD    95501
    $t
    $Ven$TT$L$$snprintf_rom
        0x01101648:    b403        ..      PUSH     {r0,r1}
        0x0110164a:    4801        .H      LDR      r0,[pc,#4] ; [0x1101650] = 0xa2c9
        0x0110164c:    9001        ..      STR      r0,[sp,#4]
        0x0110164e:    bd01        ..      POP      {r0,pc}
    $d
        0x01101650:    0000a2c9    ....    DCD    41673
    $t
    $Ven$TT$L$$uart_console_init
        0x01101654:    b403        ..      PUSH     {r0,r1}
        0x01101656:    4801        .H      LDR      r0,[pc,#4] ; [0x110165c] = 0xd8dd
        0x01101658:    9001        ..      STR      r0,[sp,#4]
        0x0110165a:    bd01        ..      POP      {r0,pc}
    $d
        0x0110165c:    0000d8dd    ....    DCD    55517
    $t
    $Ven$TT$L$$bt_gatt_get_mtu
        0x01101660:    b403        ..      PUSH     {r0,r1}
        0x01101662:    4801        .H      LDR      r0,[pc,#4] ; [0x1101668] = 0x1cda1
        0x01101664:    9001        ..      STR      r0,[sp,#4]
        0x01101666:    bd01        ..      POP      {r0,pc}
    $d
        0x01101668:    0001cda1    ....    DCD    118177
    $t
    i.ASC_III_Decoder
    ASC_III_Decoder
        0x0110166c:    b5f7        ..      PUSH     {r0-r2,r4-r7,lr}
        0x0110166e:    b085        ..      SUB      sp,sp,#0x14
        0x01101670:    2028        (       MOVS     r0,#0x28
        0x01101672:    9007        ..      STR      r0,[sp,#0x1c]
        0x01101674:    9806        ..      LDR      r0,[sp,#0x18]
        0x01101676:    9003        ..      STR      r0,[sp,#0xc]
        0x01101678:    9805        ..      LDR      r0,[sp,#0x14]
        0x0110167a:    9004        ..      STR      r0,[sp,#0x10]
        0x0110167c:    4834        4H      LDR      r0,[pc,#208] ; [0x1101750] = 0x200026bc
        0x0110167e:    6802        .h      LDR      r2,[r0,#0]
        0x01101680:    4834        4H      LDR      r0,[pc,#208] ; [0x1101754] = 0x200026c0
        0x01101682:    6803        .h      LDR      r3,[r0,#0]
        0x01101684:    0098        ..      LSLS     r0,r3,#2
        0x01101686:    4f34        4O      LDR      r7,[pc,#208] ; [0x1101758] = 0x20002558
        0x01101688:    583d        =X      LDR      r5,[r7,r0]
        0x0110168a:    2000        .       MOVS     r0,#0
        0x0110168c:    9001        ..      STR      r0,[sp,#4]
        0x0110168e:    9000        ..      STR      r0,[sp,#0]
        0x01101690:    e051        Q.      B        0x1101736 ; ASC_III_Decoder + 202
        0x01101692:    9801        ..      LDR      r0,[sp,#4]
        0x01101694:    2800        .(      CMP      r0,#0
        0x01101696:    d002        ..      BEQ      0x110169e ; ASC_III_Decoder + 50
        0x01101698:    0630        0.      LSLS     r0,r6,#24
        0x0110169a:    0f01        ..      LSRS     r1,r0,#28
        0x0110169c:    e006        ..      B        0x11016ac ; ASC_III_Decoder + 64
        0x0110169e:    2600        .&      MOVS     r6,#0
        0x011016a0:    9804        ..      LDR      r0,[sp,#0x10]
        0x011016a2:    5786        .W      LDRSB    r6,[r0,r6]
        0x011016a4:    1c40        @.      ADDS     r0,r0,#1
        0x011016a6:    9004        ..      STR      r0,[sp,#0x10]
        0x011016a8:    0731        1.      LSLS     r1,r6,#28
        0x011016aa:    0f09        ..      LSRS     r1,r1,#28
        0x011016ac:    9801        ..      LDR      r0,[sp,#4]
        0x011016ae:    2800        .(      CMP      r0,#0
        0x011016b0:    d101        ..      BNE      0x11016b6 ; ASC_III_Decoder + 74
        0x011016b2:    2001        .       MOVS     r0,#1
        0x011016b4:    e000        ..      B        0x11016b8 ; ASC_III_Decoder + 76
        0x011016b6:    2000        .       MOVS     r0,#0
        0x011016b8:    9001        ..      STR      r0,[sp,#4]
        0x011016ba:    0088        ..      LSLS     r0,r1,#2
        0x011016bc:    4f27        'O      LDR      r7,[pc,#156] ; [0x110175c] = 0x20002518
        0x011016be:    5838        8X      LDR      r0,[r7,r0]
        0x011016c0:    18c3        ..      ADDS     r3,r0,r3
        0x011016c2:    2b00        .+      CMP      r3,#0
        0x011016c4:    da00        ..      BGE      0x11016c8 ; ASC_III_Decoder + 92
        0x011016c6:    2300        .#      MOVS     r3,#0
        0x011016c8:    2b58        X+      CMP      r3,#0x58
        0x011016ca:    dd00        ..      BLE      0x11016ce ; ASC_III_Decoder + 98
        0x011016cc:    2358        X#      MOVS     r3,#0x58
        0x011016ce:    4608        .F      MOV      r0,r1
        0x011016d0:    2708        .'      MOVS     r7,#8
        0x011016d2:    4038        8@      ANDS     r0,r0,r7
        0x011016d4:    9002        ..      STR      r0,[sp,#8]
        0x011016d6:    0749        I.      LSLS     r1,r1,#29
        0x011016d8:    0f49        I.      LSRS     r1,r1,#29
        0x011016da:    10ec        ..      ASRS     r4,r5,#3
        0x011016dc:    2004        .       MOVS     r0,#4
        0x011016de:    4008        .@      ANDS     r0,r0,r1
        0x011016e0:    2800        .(      CMP      r0,#0
        0x011016e2:    d000        ..      BEQ      0x11016e6 ; ASC_III_Decoder + 122
        0x011016e4:    1964        d.      ADDS     r4,r4,r5
        0x011016e6:    2002        .       MOVS     r0,#2
        0x011016e8:    4008        .@      ANDS     r0,r0,r1
        0x011016ea:    2800        .(      CMP      r0,#0
        0x011016ec:    d001        ..      BEQ      0x11016f2 ; ASC_III_Decoder + 134
        0x011016ee:    1068        h.      ASRS     r0,r5,#1
        0x011016f0:    1904        ..      ADDS     r4,r0,r4
        0x011016f2:    07c8        ..      LSLS     r0,r1,#31
        0x011016f4:    0fc0        ..      LSRS     r0,r0,#31
        0x011016f6:    2800        .(      CMP      r0,#0
        0x011016f8:    d001        ..      BEQ      0x11016fe ; ASC_III_Decoder + 146
        0x011016fa:    10a8        ..      ASRS     r0,r5,#2
        0x011016fc:    1904        ..      ADDS     r4,r0,r4
        0x011016fe:    9802        ..      LDR      r0,[sp,#8]
        0x01101700:    2800        .(      CMP      r0,#0
        0x01101702:    d001        ..      BEQ      0x1101708 ; ASC_III_Decoder + 156
        0x01101704:    1b12        ..      SUBS     r2,r2,r4
        0x01101706:    e000        ..      B        0x110170a ; ASC_III_Decoder + 158
        0x01101708:    1912        ..      ADDS     r2,r2,r4
        0x0110170a:    4815        .H      LDR      r0,[pc,#84] ; [0x1101760] = 0x7fff
        0x0110170c:    4282        .B      CMP      r2,r0
        0x0110170e:    dd01        ..      BLE      0x1101714 ; ASC_III_Decoder + 168
        0x01101710:    4602        .F      MOV      r2,r0
        0x01101712:    e004        ..      B        0x110171e ; ASC_III_Decoder + 178
        0x01101714:    4812        .H      LDR      r0,[pc,#72] ; [0x1101760] = 0x7fff
        0x01101716:    43c0        .C      MVNS     r0,r0
        0x01101718:    4282        .B      CMP      r2,r0
        0x0110171a:    da00        ..      BGE      0x110171e ; ASC_III_Decoder + 178
        0x0110171c:    4602        .F      MOV      r2,r0
        0x0110171e:    0098        ..      LSLS     r0,r3,#2
        0x01101720:    4f0d        .O      LDR      r7,[pc,#52] ; [0x1101758] = 0x20002558
        0x01101722:    583d        =X      LDR      r5,[r7,r0]
        0x01101724:    b217        ..      SXTH     r7,r2
        0x01101726:    9803        ..      LDR      r0,[sp,#0xc]
        0x01101728:    8007        ..      STRH     r7,[r0,#0]
        0x0110172a:    9803        ..      LDR      r0,[sp,#0xc]
        0x0110172c:    1c80        ..      ADDS     r0,r0,#2
        0x0110172e:    9003        ..      STR      r0,[sp,#0xc]
        0x01101730:    9800        ..      LDR      r0,[sp,#0]
        0x01101732:    1c40        @.      ADDS     r0,r0,#1
        0x01101734:    9000        ..      STR      r0,[sp,#0]
        0x01101736:    9f07        ..      LDR      r7,[sp,#0x1c]
        0x01101738:    9800        ..      LDR      r0,[sp,#0]
        0x0110173a:    42b8        .B      CMP      r0,r7
        0x0110173c:    dba9        ..      BLT      0x1101692 ; ASC_III_Decoder + 38
        0x0110173e:    4804        .H      LDR      r0,[pc,#16] ; [0x1101750] = 0x200026bc
        0x01101740:    6002        .`      STR      r2,[r0,#0]
        0x01101742:    4804        .H      LDR      r0,[pc,#16] ; [0x1101754] = 0x200026c0
        0x01101744:    6003        .`      STR      r3,[r0,#0]
        0x01101746:    2028        (       MOVS     r0,#0x28
        0x01101748:    9007        ..      STR      r0,[sp,#0x1c]
        0x0110174a:    9807        ..      LDR      r0,[sp,#0x1c]
        0x0110174c:    b008        ..      ADD      sp,sp,#0x20
        0x0110174e:    bdf0        ..      POP      {r4-r7,pc}
    $d
        0x01101750:    200026bc    .&.     DCD    536880828
        0x01101754:    200026c0    .&.     DCD    536880832
        0x01101758:    20002558    X%.     DCD    536880472
        0x0110175c:    20002518    .%.     DCD    536880408
        0x01101760:    00007fff    ....    DCD    32767
    $t
    i.ASC_III_Decoder_Init
    ASC_III_Decoder_Init
        0x01101764:    b5ff        ..      PUSH     {r0-r7,lr}
        0x01101766:    b081        ..      SUB      sp,sp,#4
        0x01101768:    4604        .F      MOV      r4,r0
        0x0110176a:    460d        .F      MOV      r5,r1
        0x0110176c:    4616        .F      MOV      r6,r2
        0x0110176e:    2000        .       MOVS     r0,#0
        0x01101770:    490c        .I      LDR      r1,[pc,#48] ; [0x11017a4] = 0x200026bc
        0x01101772:    6008        .`      STR      r0,[r1,#0]
        0x01101774:    490c        .I      LDR      r1,[pc,#48] ; [0x11017a8] = 0x200026c0
        0x01101776:    6008        .`      STR      r0,[r1,#0]
        0x01101778:    4621        !F      MOV      r1,r4
        0x0110177a:    9804        ..      LDR      r0,[sp,#0x10]
        0x0110177c:    f7fffe14    ....    BL       $Ven$TT$L$$__aeabi_idivmod ; 0x11013a8
        0x01101780:    4607        .F      MOV      r7,r0
        0x01101782:    2f04        ./      CMP      r7,#4
        0x01101784:    d004        ..      BEQ      0x1101790 ; ASC_III_Decoder_Init + 44
        0x01101786:    2f02        ./      CMP      r7,#2
        0x01101788:    d002        ..      BEQ      0x1101790 ; ASC_III_Decoder_Init + 44
        0x0110178a:    2000        .       MOVS     r0,#0
        0x0110178c:    b005        ..      ADD      sp,sp,#0x14
        0x0110178e:    bdf0        ..      POP      {r4-r7,pc}
        0x01101790:    2d10        .-      CMP      r5,#0x10
        0x01101792:    d001        ..      BEQ      0x1101798 ; ASC_III_Decoder_Init + 52
        0x01101794:    2000        .       MOVS     r0,#0
        0x01101796:    e7f9        ..      B        0x110178c ; ASC_III_Decoder_Init + 40
        0x01101798:    2e01        ..      CMP      r6,#1
        0x0110179a:    d001        ..      BEQ      0x11017a0 ; ASC_III_Decoder_Init + 60
        0x0110179c:    2000        .       MOVS     r0,#0
        0x0110179e:    e7f5        ..      B        0x110178c ; ASC_III_Decoder_Init + 40
        0x011017a0:    200a        .       MOVS     r0,#0xa
        0x011017a2:    e7f3        ..      B        0x110178c ; ASC_III_Decoder_Init + 40
    $d
        0x011017a4:    200026bc    .&.     DCD    536880828
        0x011017a8:    200026c0    .&.     DCD    536880832
    $t
    i.ASC_II_AF1
    ASC_II_AF1
        0x011017ac:    b510        ..      PUSH     {r4,lr}
        0x011017ae:    17d3        ..      ASRS     r3,r2,#31
        0x011017b0:    0f9b        ..      LSRS     r3,r3,#30
        0x011017b2:    189c        ..      ADDS     r4,r3,r2
        0x011017b4:    10a3        ..      ASRS     r3,r4,#2
        0x011017b6:    08a4        ..      LSRS     r4,r4,#2
        0x011017b8:    00a4        ..      LSLS     r4,r4,#2
        0x011017ba:    1b12        ..      SUBS     r2,r2,r4
        0x011017bc:    e001        ..      B        0x11017c2 ; ASC_II_AF1 + 22
        0x011017be:    c910        ..      LDM      r1!,{r4}
        0x011017c0:    c010        ..      STM      r0!,{r4}
        0x011017c2:    1e5b        [.      SUBS     r3,r3,#1
        0x011017c4:    d2fb        ..      BCS      0x11017be ; ASC_II_AF1 + 18
        0x011017c6:    e003        ..      B        0x11017d0 ; ASC_II_AF1 + 36
        0x011017c8:    780b        .x      LDRB     r3,[r1,#0]
        0x011017ca:    7003        .p      STRB     r3,[r0,#0]
        0x011017cc:    1d00        ..      ADDS     r0,r0,#4
        0x011017ce:    1d09        ..      ADDS     r1,r1,#4
        0x011017d0:    1e52        R.      SUBS     r2,r2,#1
        0x011017d2:    d2f9        ..      BCS      0x11017c8 ; ASC_II_AF1 + 28
        0x011017d4:    bd10        ..      POP      {r4,pc}
        0x011017d6:    0000        ..      MOVS     r0,r0
    i.ASC_II_AF2
    ASC_II_AF2
        0x011017d8:    b5f7        ..      PUSH     {r0-r2,r4-r7,lr}
        0x011017da:    4601        .F      MOV      r1,r0
        0x011017dc:    b082        ..      SUB      sp,sp,#8
        0x011017de:    1050        P.      ASRS     r0,r2,#1
        0x011017e0:    9001        ..      STR      r0,[sp,#4]
        0x011017e2:    0050        P.      LSLS     r0,r2,#1
        0x011017e4:    4b31        1K      LDR      r3,[pc,#196] ; [0x11018ac] = 0x20006e84
        0x011017e6:    b202        ..      SXTH     r2,r0
        0x011017e8:    9000        ..      STR      r0,[sp,#0]
        0x011017ea:    4618        .F      MOV      r0,r3
        0x011017ec:    f7ffffde    ....    BL       ASC_II_AF1 ; 0x11017ac
        0x011017f0:    4d2e        .M      LDR      r5,[pc,#184] ; [0x11018ac] = 0x20006e84
        0x011017f2:    3d80        .=      SUBS     r5,r5,#0x80
        0x011017f4:    2400        .$      MOVS     r4,#0
        0x011017f6:    e04a        J.      B        0x110188e ; ASC_II_AF2 + 182
        0x011017f8:    492d        -I      LDR      r1,[pc,#180] ; [0x11018b0] = 0x1106180
        0x011017fa:    2200        ."      MOVS     r2,#0
        0x011017fc:    2300        .#      MOVS     r3,#0
        0x011017fe:    5eaa        .^      LDRSH    r2,[r5,r2]
        0x01101800:    5ecb        .^      LDRSH    r3,[r1,r3]
        0x01101802:    1ca8        ..      ADDS     r0,r5,#2
        0x01101804:    435a        ZC      MULS     r2,r3,r2
        0x01101806:    2300        .#      MOVS     r3,#0
        0x01101808:    1c89        ..      ADDS     r1,r1,#2
        0x0110180a:    2600        .&      MOVS     r6,#0
        0x0110180c:    2700        .'      MOVS     r7,#0
        0x0110180e:    5f86        ._      LDRSH    r6,[r0,r6]
        0x01101810:    5fcf        ._      LDRSH    r7,[r1,r7]
        0x01101812:    1c5b        [.      ADDS     r3,r3,#1
        0x01101814:    437e        ~C      MULS     r6,r7,r6
        0x01101816:    18b2        ..      ADDS     r2,r6,r2
        0x01101818:    2602        .&      MOVS     r6,#2
        0x0110181a:    2702        .'      MOVS     r7,#2
        0x0110181c:    5f86        ._      LDRSH    r6,[r0,r6]
        0x0110181e:    5fcf        ._      LDRSH    r7,[r1,r7]
        0x01101820:    437e        ~C      MULS     r6,r7,r6
        0x01101822:    18b2        ..      ADDS     r2,r6,r2
        0x01101824:    2604        .&      MOVS     r6,#4
        0x01101826:    2704        .'      MOVS     r7,#4
        0x01101828:    5f86        ._      LDRSH    r6,[r0,r6]
        0x0110182a:    5fcf        ._      LDRSH    r7,[r1,r7]
        0x0110182c:    437e        ~C      MULS     r6,r7,r6
        0x0110182e:    18b2        ..      ADDS     r2,r6,r2
        0x01101830:    2606        .&      MOVS     r6,#6
        0x01101832:    2706        .'      MOVS     r7,#6
        0x01101834:    5f86        ._      LDRSH    r6,[r0,r6]
        0x01101836:    5fcf        ._      LDRSH    r7,[r1,r7]
        0x01101838:    437e        ~C      MULS     r6,r7,r6
        0x0110183a:    18b2        ..      ADDS     r2,r6,r2
        0x0110183c:    2608        .&      MOVS     r6,#8
        0x0110183e:    2708        .'      MOVS     r7,#8
        0x01101840:    5f86        ._      LDRSH    r6,[r0,r6]
        0x01101842:    5fcf        ._      LDRSH    r7,[r1,r7]
        0x01101844:    437e        ~C      MULS     r6,r7,r6
        0x01101846:    18b2        ..      ADDS     r2,r6,r2
        0x01101848:    260a        .&      MOVS     r6,#0xa
        0x0110184a:    270a        .'      MOVS     r7,#0xa
        0x0110184c:    5f86        ._      LDRSH    r6,[r0,r6]
        0x0110184e:    5fcf        ._      LDRSH    r7,[r1,r7]
        0x01101850:    437e        ~C      MULS     r6,r7,r6
        0x01101852:    18b2        ..      ADDS     r2,r6,r2
        0x01101854:    260c        .&      MOVS     r6,#0xc
        0x01101856:    270c        .'      MOVS     r7,#0xc
        0x01101858:    5f86        ._      LDRSH    r6,[r0,r6]
        0x0110185a:    5fcf        ._      LDRSH    r7,[r1,r7]
        0x0110185c:    437e        ~C      MULS     r6,r7,r6
        0x0110185e:    18b2        ..      ADDS     r2,r6,r2
        0x01101860:    260e        .&      MOVS     r6,#0xe
        0x01101862:    270e        .'      MOVS     r7,#0xe
        0x01101864:    5f86        ._      LDRSH    r6,[r0,r6]
        0x01101866:    5fcf        ._      LDRSH    r7,[r1,r7]
        0x01101868:    3010        .0      ADDS     r0,r0,#0x10
        0x0110186a:    437e        ~C      MULS     r6,r7,r6
        0x0110186c:    18b2        ..      ADDS     r2,r6,r2
        0x0110186e:    3110        .1      ADDS     r1,r1,#0x10
        0x01101870:    2b08        .+      CMP      r3,#8
        0x01101872:    dbca        ..      BLT      0x110180a ; ASC_II_AF2 + 50
        0x01101874:    480f        .H      LDR      r0,[pc,#60] ; [0x11018b4] = 0x3fffffff
        0x01101876:    4282        .B      CMP      r2,r0
        0x01101878:    dc02        ..      BGT      0x1101880 ; ASC_II_AF2 + 168
        0x0110187a:    4240        @B      RSBS     r0,r0,#0
        0x0110187c:    4282        .B      CMP      r2,r0
        0x0110187e:    da00        ..      BGE      0x1101882 ; ASC_II_AF2 + 170
        0x01101880:    4602        .F      MOV      r2,r0
        0x01101882:    13d0        ..      ASRS     r0,r2,#15
        0x01101884:    0062        b.      LSLS     r2,r4,#1
        0x01101886:    9903        ..      LDR      r1,[sp,#0xc]
        0x01101888:    1c64        d.      ADDS     r4,r4,#1
        0x0110188a:    5288        .R      STRH     r0,[r1,r2]
        0x0110188c:    1d2d        -.      ADDS     r5,r5,#4
        0x0110188e:    9801        ..      LDR      r0,[sp,#4]
        0x01101890:    4284        .B      CMP      r4,r0
        0x01101892:    dbb1        ..      BLT      0x11017f8 ; ASC_II_AF2 + 32
        0x01101894:    4905        .I      LDR      r1,[pc,#20] ; [0x11018ac] = 0x20006e84
        0x01101896:    9800        ..      LDR      r0,[sp,#0]
        0x01101898:    3980        .9      SUBS     r1,r1,#0x80
        0x0110189a:    1841        A.      ADDS     r1,r0,r1
        0x0110189c:    4803        .H      LDR      r0,[pc,#12] ; [0x11018ac] = 0x20006e84
        0x0110189e:    2280        ."      MOVS     r2,#0x80
        0x011018a0:    3880        .8      SUBS     r0,r0,#0x80
        0x011018a2:    f7ffff83    ....    BL       ASC_II_AF1 ; 0x11017ac
        0x011018a6:    b005        ..      ADD      sp,sp,#0x14
        0x011018a8:    bdf0        ..      POP      {r4-r7,pc}
    $d
        0x011018aa:    0000        ..      DCW    0
        0x011018ac:    20006e84    .n.     DCD    536899204
        0x011018b0:    01106180    .a..    DCD    17850752
        0x011018b4:    3fffffff    ...?    DCD    1073741823
    $t
    i.ASC_II_Encoder
    ASC_II_Encoder
        0x011018b8:    b5f7        ..      PUSH     {r0-r2,r4-r7,lr}
        0x011018ba:    b096        ..      SUB      sp,sp,#0x58
        0x011018bc:    460c        .F      MOV      r4,r1
        0x011018be:    4605        .F      MOV      r5,r0
        0x011018c0:    4669        iF      MOV      r1,sp
        0x011018c2:    9014        ..      STR      r0,[sp,#0x50]
        0x011018c4:    f7ffff88    ....    BL       ASC_II_AF2 ; 0x11017d8
        0x011018c8:    2028        (       MOVS     r0,#0x28
        0x011018ca:    9018        ..      STR      r0,[sp,#0x60]
        0x011018cc:    2250        P"      MOVS     r2,#0x50
        0x011018ce:    4669        iF      MOV      r1,sp
        0x011018d0:    4628        (F      MOV      r0,r5
        0x011018d2:    f7ffff6b    ..k.    BL       ASC_II_AF1 ; 0x11017ac
        0x011018d6:    4831        1H      LDR      r0,[pc,#196] ; [0x110199c] = 0x2000236c
        0x011018d8:    6841        Ah      LDR      r1,[r0,#4]
        0x011018da:    6802        .h      LDR      r2,[r0,#0]
        0x011018dc:    008b        ..      LSLS     r3,r1,#2
        0x011018de:    3048        H0      ADDS     r0,r0,#0x48
        0x011018e0:    58c6        .X      LDR      r6,[r0,r3]
        0x011018e2:    2301        .#      MOVS     r3,#1
        0x011018e4:    469e        .F      MOV      lr,r3
        0x011018e6:    9b14        ..      LDR      r3,[sp,#0x50]
        0x011018e8:    2000        .       MOVS     r0,#0
        0x011018ea:    5e18        .^      LDRSH    r0,[r3,r0]
        0x011018ec:    1c9b        ..      ADDS     r3,r3,#2
        0x011018ee:    1a80        ..      SUBS     r0,r0,r2
        0x011018f0:    9314        ..      STR      r3,[sp,#0x50]
        0x011018f2:    0fc3        ..      LSRS     r3,r0,#31
        0x011018f4:    00db        ..      LSLS     r3,r3,#3
        0x011018f6:    469c        .F      MOV      r12,r3
        0x011018f8:    d000        ..      BEQ      0x11018fc ; ASC_II_Encoder + 68
        0x011018fa:    4240        @B      RSBS     r0,r0,#0
        0x011018fc:    2500        .%      MOVS     r5,#0
        0x011018fe:    10f3        ..      ASRS     r3,r6,#3
        0x01101900:    42b0        .B      CMP      r0,r6
        0x01101902:    db02        ..      BLT      0x110190a ; ASC_II_Encoder + 82
        0x01101904:    2504        .%      MOVS     r5,#4
        0x01101906:    1b80        ..      SUBS     r0,r0,r6
        0x01101908:    199b        ..      ADDS     r3,r3,r6
        0x0110190a:    1076        v.      ASRS     r6,r6,#1
        0x0110190c:    42b0        .B      CMP      r0,r6
        0x0110190e:    db03        ..      BLT      0x1101918 ; ASC_II_Encoder + 96
        0x01101910:    2702        .'      MOVS     r7,#2
        0x01101912:    433d        =C      ORRS     r5,r5,r7
        0x01101914:    1b80        ..      SUBS     r0,r0,r6
        0x01101916:    199b        ..      ADDS     r3,r3,r6
        0x01101918:    1076        v.      ASRS     r6,r6,#1
        0x0110191a:    42b0        .B      CMP      r0,r6
        0x0110191c:    db02        ..      BLT      0x1101924 ; ASC_II_Encoder + 108
        0x0110191e:    2001        .       MOVS     r0,#1
        0x01101920:    4305        .C      ORRS     r5,r5,r0
        0x01101922:    199b        ..      ADDS     r3,r3,r6
        0x01101924:    4660        `F      MOV      r0,r12
        0x01101926:    2800        .(      CMP      r0,#0
        0x01101928:    d001        ..      BEQ      0x110192e ; ASC_II_Encoder + 118
        0x0110192a:    1ad2        ..      SUBS     r2,r2,r3
        0x0110192c:    e000        ..      B        0x1101930 ; ASC_II_Encoder + 120
        0x0110192e:    18d2        ..      ADDS     r2,r2,r3
        0x01101930:    481b        .H      LDR      r0,[pc,#108] ; [0x11019a0] = 0x7fff
        0x01101932:    4282        .B      CMP      r2,r0
        0x01101934:    dc02        ..      BGT      0x110193c ; ASC_II_Encoder + 132
        0x01101936:    43c0        .C      MVNS     r0,r0
        0x01101938:    4282        .B      CMP      r2,r0
        0x0110193a:    da00        ..      BGE      0x110193e ; ASC_II_Encoder + 134
        0x0110193c:    4602        .F      MOV      r2,r0
        0x0110193e:    4660        `F      MOV      r0,r12
        0x01101940:    4305        .C      ORRS     r5,r5,r0
        0x01101942:    4816        .H      LDR      r0,[pc,#88] ; [0x110199c] = 0x2000236c
        0x01101944:    00ab        ..      LSLS     r3,r5,#2
        0x01101946:    3008        .0      ADDS     r0,r0,#8
        0x01101948:    58c0        .X      LDR      r0,[r0,r3]
        0x0110194a:    1841        A.      ADDS     r1,r0,r1
        0x0110194c:    d501        ..      BPL      0x1101952 ; ASC_II_Encoder + 154
        0x0110194e:    2100        .!      MOVS     r1,#0
        0x01101950:    e002        ..      B        0x1101958 ; ASC_II_Encoder + 160
        0x01101952:    2958        X)      CMP      r1,#0x58
        0x01101954:    dd00        ..      BLE      0x1101958 ; ASC_II_Encoder + 160
        0x01101956:    2158        X!      MOVS     r1,#0x58
        0x01101958:    4810        .H      LDR      r0,[pc,#64] ; [0x110199c] = 0x2000236c
        0x0110195a:    008b        ..      LSLS     r3,r1,#2
        0x0110195c:    3048        H0      ADDS     r0,r0,#0x48
        0x0110195e:    58c6        .X      LDR      r6,[r0,r3]
        0x01101960:    4670        pF      MOV      r0,lr
        0x01101962:    2800        .(      CMP      r0,#0
        0x01101964:    d002        ..      BEQ      0x110196c ; ASC_II_Encoder + 180
        0x01101966:    2000        .       MOVS     r0,#0
        0x01101968:    9515        ..      STR      r5,[sp,#0x54]
        0x0110196a:    e005        ..      B        0x1101978 ; ASC_II_Encoder + 192
        0x0110196c:    9b15        ..      LDR      r3,[sp,#0x54]
        0x0110196e:    0128        (.      LSLS     r0,r5,#4
        0x01101970:    4318        .C      ORRS     r0,r0,r3
        0x01101972:    7020         p      STRB     r0,[r4,#0]
        0x01101974:    2001        .       MOVS     r0,#1
        0x01101976:    1c64        d.      ADDS     r4,r4,#1
        0x01101978:    4686        .F      MOV      lr,r0
        0x0110197a:    9818        ..      LDR      r0,[sp,#0x60]
        0x0110197c:    1e40        @.      SUBS     r0,r0,#1
        0x0110197e:    b200        ..      SXTH     r0,r0
        0x01101980:    9018        ..      STR      r0,[sp,#0x60]
        0x01101982:    2800        .(      CMP      r0,#0
        0x01101984:    dcaf        ..      BGT      0x11018e6 ; ASC_II_Encoder + 46
        0x01101986:    4670        pF      MOV      r0,lr
        0x01101988:    2800        .(      CMP      r0,#0
        0x0110198a:    d101        ..      BNE      0x1101990 ; ASC_II_Encoder + 216
        0x0110198c:    9815        ..      LDR      r0,[sp,#0x54]
        0x0110198e:    7020         p      STRB     r0,[r4,#0]
        0x01101990:    4802        .H      LDR      r0,[pc,#8] ; [0x110199c] = 0x2000236c
        0x01101992:    6002        .`      STR      r2,[r0,#0]
        0x01101994:    6041        A`      STR      r1,[r0,#4]
        0x01101996:    200a        .       MOVS     r0,#0xa
        0x01101998:    b019        ..      ADD      sp,sp,#0x64
        0x0110199a:    bdf0        ..      POP      {r4-r7,pc}
    $d
        0x0110199c:    2000236c    l#.     DCD    536879980
        0x011019a0:    00007fff    ....    DCD    32767
    $t
    i.ASC_II_Encoder_Init
    ASC_II_Encoder_Init
        0x011019a4:    2814        .(      CMP      r0,#0x14
        0x011019a6:    d001        ..      BEQ      0x11019ac ; ASC_II_Encoder_Init + 8
        0x011019a8:    2000        .       MOVS     r0,#0
        0x011019aa:    4770        pG      BX       lr
        0x011019ac:    4806        .H      LDR      r0,[pc,#24] ; [0x11019c8] = 0x2000236c
        0x011019ae:    2100        .!      MOVS     r1,#0
        0x011019b0:    6001        .`      STR      r1,[r0,#0]
        0x011019b2:    6041        A`      STR      r1,[r0,#4]
        0x011019b4:    4a05        .J      LDR      r2,[pc,#20] ; [0x11019cc] = 0x20006e04
        0x011019b6:    4608        .F      MOV      r0,r1
        0x011019b8:    0043        C.      LSLS     r3,r0,#1
        0x011019ba:    1c40        @.      ADDS     r0,r0,#1
        0x011019bc:    52d1        .R      STRH     r1,[r2,r3]
        0x011019be:    2890        .(      CMP      r0,#0x90
        0x011019c0:    dbfa        ..      BLT      0x11019b8 ; ASC_II_Encoder_Init + 20
        0x011019c2:    2050        P       MOVS     r0,#0x50
        0x011019c4:    4770        pG      BX       lr
    $d
        0x011019c6:    0000        ..      DCW    0
        0x011019c8:    2000236c    l#.     DCD    536879980
        0x011019cc:    20006e04    .n.     DCD    536899076
    $t
    i.__ARM_common_ctz
    __ARM_common_ctz
        0x011019d0:    2120         !      MOVS     r1,#0x20
        0x011019d2:    0402        ..      LSLS     r2,r0,#16
        0x011019d4:    2a00        .*      CMP      r2,#0
        0x011019d6:    d001        ..      BEQ      0x11019dc ; __ARM_common_ctz + 12
        0x011019d8:    3910        .9      SUBS     r1,r1,#0x10
        0x011019da:    4610        .F      MOV      r0,r2
        0x011019dc:    0202        ..      LSLS     r2,r0,#8
        0x011019de:    2a00        .*      CMP      r2,#0
        0x011019e0:    d001        ..      BEQ      0x11019e6 ; __ARM_common_ctz + 22
        0x011019e2:    3908        .9      SUBS     r1,r1,#8
        0x011019e4:    4610        .F      MOV      r0,r2
        0x011019e6:    0102        ..      LSLS     r2,r0,#4
        0x011019e8:    2a00        .*      CMP      r2,#0
        0x011019ea:    d001        ..      BEQ      0x11019f0 ; __ARM_common_ctz + 32
        0x011019ec:    1f09        ..      SUBS     r1,r1,#4
        0x011019ee:    4610        .F      MOV      r0,r2
        0x011019f0:    0082        ..      LSLS     r2,r0,#2
        0x011019f2:    2a00        .*      CMP      r2,#0
        0x011019f4:    d001        ..      BEQ      0x11019fa ; __ARM_common_ctz + 42
        0x011019f6:    1e89        ..      SUBS     r1,r1,#2
        0x011019f8:    4610        .F      MOV      r0,r2
        0x011019fa:    0042        B.      LSLS     r2,r0,#1
        0x011019fc:    2a00        .*      CMP      r2,#0
        0x011019fe:    d001        ..      BEQ      0x1101a04 ; __ARM_common_ctz + 52
        0x01101a00:    1e49        I.      SUBS     r1,r1,#1
        0x01101a02:    4610        .F      MOV      r0,r2
        0x01101a04:    0fc0        ..      LSRS     r0,r0,#31
        0x01101a06:    1a08        ..      SUBS     r0,r1,r0
        0x01101a08:    4770        pG      BX       lr
    i.__ARM_common_switch8
    __ARM_common_switch8
        0x01101a0a:    b430        0.      PUSH     {r4,r5}
        0x01101a0c:    4674        tF      MOV      r4,lr
        0x01101a0e:    1e64        d.      SUBS     r4,r4,#1
        0x01101a10:    7825        %x      LDRB     r5,[r4,#0]
        0x01101a12:    1c64        d.      ADDS     r4,r4,#1
        0x01101a14:    42ab        .B      CMP      r3,r5
        0x01101a16:    d200        ..      BCS      0x1101a1a ; __ARM_common_switch8 + 16
        0x01101a18:    461d        .F      MOV      r5,r3
        0x01101a1a:    5d63        c]      LDRB     r3,[r4,r5]
        0x01101a1c:    005b        [.      LSLS     r3,r3,#1
        0x01101a1e:    18e3        ..      ADDS     r3,r4,r3
        0x01101a20:    bc30        0.      POP      {r4,r5}
        0x01101a22:    4718        .G      BX       r3
    i.__scatterload_copy
    __scatterload_copy
        0x01101a24:    e002        ..      B        0x1101a2c ; __scatterload_copy + 8
        0x01101a26:    c808        ..      LDM      r0!,{r3}
        0x01101a28:    1f12        ..      SUBS     r2,r2,#4
        0x01101a2a:    c108        ..      STM      r1!,{r3}
        0x01101a2c:    2a00        .*      CMP      r2,#0
        0x01101a2e:    d1fa        ..      BNE      0x1101a26 ; __scatterload_copy + 2
        0x01101a30:    4770        pG      BX       lr
    i.__scatterload_null
    __scatterload_null
        0x01101a32:    4770        pG      BX       lr
    i.__scatterload_zeroinit
    __scatterload_zeroinit
        0x01101a34:    2000        .       MOVS     r0,#0
        0x01101a36:    e001        ..      B        0x1101a3c ; __scatterload_zeroinit + 8
        0x01101a38:    c101        ..      STM      r1!,{r0}
        0x01101a3a:    1f12        ..      SUBS     r2,r2,#4
        0x01101a3c:    2a00        .*      CMP      r2,#0
        0x01101a3e:    d1fb        ..      BNE      0x1101a38 ; __scatterload_zeroinit + 4
        0x01101a40:    4770        pG      BX       lr
        0x01101a42:    0000        ..      MOVS     r0,r0
    i._ms_to_cycle
    _ms_to_cycle
        0x01101a44:    b510        ..      PUSH     {r4,lr}
        0x01101a46:    6800        .h      LDR      r0,[r0,#0]
        0x01101a48:    460c        .F      MOV      r4,r1
        0x01101a4a:    68c2        .h      LDR      r2,[r0,#0xc]
        0x01101a4c:    6850        Ph      LDR      r0,[r2,#4]
        0x01101a4e:    2800        .(      CMP      r0,#0
        0x01101a50:    d00c        ..      BEQ      0x1101a6c ; _ms_to_cycle + 40
        0x01101a52:    207d        }       MOVS     r0,#0x7d
        0x01101a54:    0200        ..      LSLS     r0,r0,#8
        0x01101a56:    7c12        .|      LDRB     r2,[r2,#0x10]
        0x01101a58:    2101        .!      MOVS     r1,#1
        0x01101a5a:    4091        .@      LSLS     r1,r1,r2
        0x01101a5c:    f7fffc5c    ..\.    BL       $Ven$TT$L$$__aeabi_uidivmod ; 0x1101318
        0x01101a60:    217d        }!      MOVS     r1,#0x7d
        0x01101a62:    00c9        ..      LSLS     r1,r1,#3
        0x01101a64:    f7fffc58    ..X.    BL       $Ven$TT$L$$__aeabi_uidivmod ; 0x1101318
        0x01101a68:    4360        `C      MULS     r0,r4,r0
        0x01101a6a:    bd10        ..      POP      {r4,pc}
        0x01101a6c:    4800        .H      LDR      r0,[pc,#0] ; [0x1101a70] = 0x1e84800
        0x01101a6e:    e7f2        ..      B        0x1101a56 ; _ms_to_cycle + 18
    $d
        0x01101a70:    01e84800    .H..    DCD    32000000
    $t
    i._sys_device_do_config_level
    _sys_device_do_config_level
        0x01101a74:    b570        p.      PUSH     {r4-r6,lr}
        0x01101a76:    4907        .I      LDR      r1,[pc,#28] ; [0x1101a94] = 0x200022ec
        0x01101a78:    0080        ..      LSLS     r0,r0,#2
        0x01101a7a:    580c        .X      LDR      r4,[r1,r0]
        0x01101a7c:    1845        E.      ADDS     r5,r0,r1
        0x01101a7e:    e004        ..      B        0x1101a8a ; _sys_device_do_config_level + 22
        0x01101a80:    6820         h      LDR      r0,[r4,#0]
        0x01101a82:    6841        Ah      LDR      r1,[r0,#4]
        0x01101a84:    4620         F      MOV      r0,r4
        0x01101a86:    4788        .G      BLX      r1
        0x01101a88:    340c        .4      ADDS     r4,r4,#0xc
        0x01101a8a:    6868        hh      LDR      r0,[r5,#4]
        0x01101a8c:    42a0        .B      CMP      r0,r4
        0x01101a8e:    d8f7        ..      BHI      0x1101a80 ; _sys_device_do_config_level + 12
        0x01101a90:    bd70        p.      POP      {r4-r6,pc}
    $d
        0x01101a92:    0000        ..      DCW    0
        0x01101a94:    200022ec    .".     DCD    536879852
    $t
    i._system_key_event_cb
    _system_key_event_cb
        0x01101a98:    b570        p.      PUSH     {r4-r6,lr}
        0x01101a9a:    4604        .F      MOV      r4,r0
        0x01101a9c:    4d0e        .M      LDR      r5,[pc,#56] ; [0x1101ad8] = 0x20e
        0x01101a9e:    0080        ..      LSLS     r0,r0,#2
        0x01101aa0:    d50a        ..      BPL      0x1101ab8 ; _system_key_event_cb + 32
        0x01101aa2:    2000        .       MOVS     r0,#0
        0x01101aa4:    f001f894    ....    BL       btn_led_indication ; 0x1102bd0
        0x01101aa8:    b2a0        ..      UXTH     r0,r4
        0x01101aaa:    f000f83d    ..=.    BL       acts_get_ble_keycode ; 0x1101b28
        0x01101aae:    42a8        .B      CMP      r0,r5
        0x01101ab0:    d10e        ..      BNE      0x1101ad0 ; _system_key_event_cb + 56
        0x01101ab2:    f003fcc7    ....    BL       start_audio_capture ; 0x1105444
        0x01101ab6:    e00b        ..      B        0x1101ad0 ; _system_key_event_cb + 56
        0x01101ab8:    00e0        ..      LSLS     r0,r4,#3
        0x01101aba:    d509        ..      BPL      0x1101ad0 ; _system_key_event_cb + 56
        0x01101abc:    2001        .       MOVS     r0,#1
        0x01101abe:    f001f887    ....    BL       btn_led_indication ; 0x1102bd0
        0x01101ac2:    b2a0        ..      UXTH     r0,r4
        0x01101ac4:    f000f830    ..0.    BL       acts_get_ble_keycode ; 0x1101b28
        0x01101ac8:    42a8        .B      CMP      r0,r5
        0x01101aca:    d101        ..      BNE      0x1101ad0 ; _system_key_event_cb + 56
        0x01101acc:    f003fd34    ..4.    BL       stop_audio_capture ; 0x1105538
        0x01101ad0:    4620         F      MOV      r0,r4
        0x01101ad2:    f003fa31    ..1.    BL       send_ir_keycode ; 0x1104f38
        0x01101ad6:    bd70        p.      POP      {r4-r6,pc}
    $d
        0x01101ad8:    0000020e    ....    DCD    526
    $t
    i.acts_audio_in_disable
    acts_audio_in_disable
        0x01101adc:    b510        ..      PUSH     {r4,lr}
        0x01101ade:    4604        .F      MOV      r4,r0
        0x01101ae0:    f7fffc68    ..h.    BL       $Ven$TT$L$$audio_in_disable ; 0x11013b4
        0x01101ae4:    2010        .       MOVS     r0,#0x10
        0x01101ae6:    f7fffc6b    ..k.    BL       $Ven$TT$L$$acts_reset_peripheral ; 0x11013c0
        0x01101aea:    4620         F      MOV      r0,r4
        0x01101aec:    f7fffc6e    ..n.    BL       $Ven$TT$L$$device_busy_clear ; 0x11013cc
        0x01101af0:    bd10        ..      POP      {r4,pc}
    i.acts_audio_in_enable
    acts_audio_in_enable
        0x01101af2:    b510        ..      PUSH     {r4,lr}
        0x01101af4:    4604        .F      MOV      r4,r0
        0x01101af6:    f7fffc6f    ..o.    BL       $Ven$TT$L$$audio_in_enable ; 0x11013d8
        0x01101afa:    4620         F      MOV      r0,r4
        0x01101afc:    f7fffc72    ..r.    BL       $Ven$TT$L$$device_busy_set ; 0x11013e4
        0x01101b00:    bd10        ..      POP      {r4,pc}
    i.acts_audio_out_disable
    acts_audio_out_disable
        0x01101b02:    b510        ..      PUSH     {r4,lr}
        0x01101b04:    4604        .F      MOV      r4,r0
        0x01101b06:    f000fbf3    ....    BL       audio_out_disable ; 0x11022f0
        0x01101b0a:    2010        .       MOVS     r0,#0x10
        0x01101b0c:    f7fffc58    ..X.    BL       $Ven$TT$L$$acts_reset_peripheral ; 0x11013c0
        0x01101b10:    4620         F      MOV      r0,r4
        0x01101b12:    f7fffc5b    ..[.    BL       $Ven$TT$L$$device_busy_clear ; 0x11013cc
        0x01101b16:    bd10        ..      POP      {r4,pc}
    i.acts_audio_out_enable
    acts_audio_out_enable
        0x01101b18:    b510        ..      PUSH     {r4,lr}
        0x01101b1a:    4604        .F      MOV      r4,r0
        0x01101b1c:    f000fc06    ....    BL       audio_out_enable ; 0x110232c
        0x01101b20:    4620         F      MOV      r0,r4
        0x01101b22:    f7fffc5f    .._.    BL       $Ven$TT$L$$device_busy_set ; 0x11013e4
        0x01101b26:    bd10        ..      POP      {r4,pc}
    i.acts_get_ble_keycode
    acts_get_ble_keycode
        0x01101b28:    4906        .I      LDR      r1,[pc,#24] ; [0x1101b44] = 0x1105f34
        0x01101b2a:    2200        ."      MOVS     r2,#0
        0x01101b2c:    880b        ..      LDRH     r3,[r1,#0]
        0x01101b2e:    4283        .B      CMP      r3,r0
        0x01101b30:    d101        ..      BNE      0x1101b36 ; acts_get_ble_keycode + 14
        0x01101b32:    8848        H.      LDRH     r0,[r1,#2]
        0x01101b34:    4770        pG      BX       lr
        0x01101b36:    1d89        ..      ADDS     r1,r1,#6
        0x01101b38:    1c52        R.      ADDS     r2,r2,#1
        0x01101b3a:    2a0b        .*      CMP      r2,#0xb
        0x01101b3c:    d3f6        ..      BCC      0x1101b2c ; acts_get_ble_keycode + 4
        0x01101b3e:    20ff        .       MOVS     r0,#0xff
        0x01101b40:    4770        pG      BX       lr
    $d
        0x01101b42:    0000        ..      DCW    0
        0x01101b44:    01105f34    4_..    DCD    17850164
    $t
    i.acts_get_ir_keycode
    acts_get_ir_keycode
        0x01101b48:    4906        .I      LDR      r1,[pc,#24] ; [0x1101b64] = 0x1105f34
        0x01101b4a:    2200        ."      MOVS     r2,#0
        0x01101b4c:    880b        ..      LDRH     r3,[r1,#0]
        0x01101b4e:    4283        .B      CMP      r3,r0
        0x01101b50:    d101        ..      BNE      0x1101b56 ; acts_get_ir_keycode + 14
        0x01101b52:    8888        ..      LDRH     r0,[r1,#4]
        0x01101b54:    4770        pG      BX       lr
        0x01101b56:    1d89        ..      ADDS     r1,r1,#6
        0x01101b58:    1c52        R.      ADDS     r2,r2,#1
        0x01101b5a:    2a0b        .*      CMP      r2,#0xb
        0x01101b5c:    d3f6        ..      BCC      0x1101b4c ; acts_get_ir_keycode + 4
        0x01101b5e:    20ff        .       MOVS     r0,#0xff
        0x01101b60:    4770        pG      BX       lr
    $d
        0x01101b62:    0000        ..      DCW    0
        0x01101b64:    01105f34    4_..    DCD    17850164
    $t
    i.acts_nvram_config_init
    acts_nvram_config_init
        0x01101b68:    b510        ..      PUSH     {r4,lr}
        0x01101b6a:    f7fffc41    ..A.    BL       $Ven$TT$L$$nvram_config_init ; 0x11013f0
        0x01101b6e:    bd10        ..      POP      {r4,pc}
    i.acts_xspi_nor_device_ctrl
    acts_xspi_nor_device_ctrl
        0x01101b70:    2901        .)      CMP      r1,#1
        0x01101b72:    d100        ..      BNE      0x1101b76 ; acts_xspi_nor_device_ctrl + 6
        0x01101b74:    6810        .h      LDR      r0,[r2,#0]
        0x01101b76:    2000        .       MOVS     r0,#0
        0x01101b78:    4770        pG      BX       lr
        0x01101b7a:    0000        ..      MOVS     r0,r0
    i.adc_batt_read
    adc_batt_read
        0x01101b7c:    4901        .I      LDR      r1,[pc,#4] ; [0x1101b84] = 0x20001ac0
        0x01101b7e:    7809        .x      LDRB     r1,[r1,#0]
        0x01101b80:    7001        .p      STRB     r1,[r0,#0]
        0x01101b82:    4770        pG      BX       lr
    $d
        0x01101b84:    20001ac0    ...     DCD    536877760
    $t
    i.adc_batt_val_read
    adc_batt_val_read
        0x01101b88:    4801        .H      LDR      r0,[pc,#4] ; [0x1101b90] = 0x20001ac0
        0x01101b8a:    8840        @.      LDRH     r0,[r0,#2]
        0x01101b8c:    4770        pG      BX       lr
    $d
        0x01101b8e:    0000        ..      DCW    0
        0x01101b90:    20001ac0    ...     DCD    536877760
    $t
    i.adckey_acts_disable_new
    adckey_acts_disable_new
        0x01101b94:    b570        p.      PUSH     {r4-r6,lr}
        0x01101b96:    6885        .h      LDR      r5,[r0,#8]
        0x01101b98:    4604        .F      MOV      r4,r0
        0x01101b9a:    6b68        hk      LDR      r0,[r5,#0x34]
        0x01101b9c:    6841        Ah      LDR      r1,[r0,#4]
        0x01101b9e:    6849        Ih      LDR      r1,[r1,#4]
        0x01101ba0:    4788        .G      BLX      r1
        0x01101ba2:    2000        .       MOVS     r0,#0
        0x01101ba4:    4a07        .J      LDR      r2,[pc,#28] ; [0x1101bc4] = 0x20006aa4
        0x01101ba6:    4601        .F      MOV      r1,r0
        0x01101ba8:    65e8        .e      STR      r0,[r5,#0x5c]
        0x01101baa:    00cb        ..      LSLS     r3,r1,#3
        0x01101bac:    58d3        .X      LDR      r3,[r2,r3]
        0x01101bae:    42a3        .B      CMP      r3,r4
        0x01101bb0:    d103        ..      BNE      0x1101bba ; adckey_acts_disable_new + 38
        0x01101bb2:    00c9        ..      LSLS     r1,r1,#3
        0x01101bb4:    1889        ..      ADDS     r1,r1,r2
        0x01101bb6:    7188        .q      STRB     r0,[r1,#6]
        0x01101bb8:    bd70        p.      POP      {r4-r6,pc}
        0x01101bba:    1c49        I.      ADDS     r1,r1,#1
        0x01101bbc:    2902        .)      CMP      r1,#2
        0x01101bbe:    dbf4        ..      BLT      0x1101baa ; adckey_acts_disable_new + 22
        0x01101bc0:    bd70        p.      POP      {r4-r6,pc}
    $d
        0x01101bc2:    0000        ..      DCW    0
        0x01101bc4:    20006aa4    .j.     DCD    536898212
    $t
    i.adckey_acts_enable_new
    adckey_acts_enable_new
        0x01101bc8:    b570        p.      PUSH     {r4-r6,lr}
        0x01101bca:    6801        .h      LDR      r1,[r0,#0]
        0x01101bcc:    68c9        .h      LDR      r1,[r1,#0xc]
        0x01101bce:    888c        ..      LDRH     r4,[r1,#4]
        0x01101bd0:    2c02        .,      CMP      r4,#2
        0x01101bd2:    d315        ..      BCC      0x1101c00 ; adckey_acts_enable_new + 56
        0x01101bd4:    2200        ."      MOVS     r2,#0
        0x01101bd6:    4b0e        .K      LDR      r3,[pc,#56] ; [0x1101c10] = 0x20006aa4
        0x01101bd8:    4611        .F      MOV      r1,r2
        0x01101bda:    00cd        ..      LSLS     r5,r1,#3
        0x01101bdc:    18ed        ..      ADDS     r5,r5,r3
        0x01101bde:    79ad        .y      LDRB     r5,[r5,#6]
        0x01101be0:    2d00        .-      CMP      r5,#0
        0x01101be2:    d00e        ..      BEQ      0x1101c02 ; adckey_acts_enable_new + 58
        0x01101be4:    1c49        I.      ADDS     r1,r1,#1
        0x01101be6:    2902        .)      CMP      r1,#2
        0x01101be8:    dbf7        ..      BLT      0x1101bda ; adckey_acts_enable_new + 18
        0x01101bea:    2a00        .*      CMP      r2,#0
        0x01101bec:    d008        ..      BEQ      0x1101c00 ; adckey_acts_enable_new + 56
        0x01101bee:    4c09        .L      LDR      r4,[pc,#36] ; [0x1101c14] = 0x200022a4
        0x01101bf0:    4907        .I      LDR      r1,[pc,#28] ; [0x1101c10] = 0x20006aa4
        0x01101bf2:    6860        `h      LDR      r0,[r4,#4]
        0x01101bf4:    6842        Bh      LDR      r2,[r0,#4]
        0x01101bf6:    68d2        .h      LDR      r2,[r2,#0xc]
        0x01101bf8:    4790        .G      BLX      r2
        0x01101bfa:    6860        `h      LDR      r0,[r4,#4]
        0x01101bfc:    f000f996    ....    BL       adckey_timer_start ; 0x1101f2c
        0x01101c00:    bd70        p.      POP      {r4-r6,pc}
        0x01101c02:    00c9        ..      LSLS     r1,r1,#3
        0x01101c04:    18ca        ..      ADDS     r2,r1,r3
        0x01101c06:    6010        .`      STR      r0,[r2,#0]
        0x01101c08:    8094        ..      STRH     r4,[r2,#4]
        0x01101c0a:    2001        .       MOVS     r0,#1
        0x01101c0c:    7190        .q      STRB     r0,[r2,#6]
        0x01101c0e:    e7ec        ..      B        0x1101bea ; adckey_acts_enable_new + 34
    $d
        0x01101c10:    20006aa4    .j.     DCD    536898212
        0x01101c14:    200022a4    .".     DCD    536879780
    $t
    i.adckey_acts_get_keycode_new
    adckey_acts_get_keycode_new
        0x01101c18:    b5f8        ..      PUSH     {r3-r7,lr}
        0x01101c1a:    4617        .F      MOV      r7,r2
        0x01101c1c:    4606        .F      MOV      r6,r0
        0x01101c1e:    68c5        .h      LDR      r5,[r0,#0xc]
        0x01101c20:    f7ffffb2    ....    BL       adc_batt_val_read ; 0x1101b88
        0x01101c24:    9000        ..      STR      r0,[sp,#0]
        0x01101c26:    8972        r.      LDRH     r2,[r6,#0xa]
        0x01101c28:    4629        )F      MOV      r1,r5
        0x01101c2a:    f003ff8d    ....    BL       update_adckey_map ; 0x1105b48
        0x01101c2e:    2400        .$      MOVS     r4,#0
        0x01101c30:    8976        v.      LDRH     r6,[r6,#0xa]
        0x01101c32:    e018        ..      B        0x1101c66 ; adckey_acts_get_keycode_new + 78
        0x01101c34:    9800        ..      LDR      r0,[sp,#0]
        0x01101c36:    f7fff9c8    ....    BL       __aeabi_ui2f ; 0x1100fca
        0x01101c3a:    490d        .I      LDR      r1,[pc,#52] ; [0x1101c70] = 0x45610000
        0x01101c3c:    f7fff987    ....    BL       __aeabi_fdiv ; 0x1100f4e
        0x01101c40:    490c        .I      LDR      r1,[pc,#48] ; [0x1101c74] = 0x42700000
        0x01101c42:    f7fff947    ..G.    BL       __aeabi_fmul ; 0x1100ed4
        0x01101c46:    f7fff9c7    ....    BL       __aeabi_f2uiz ; 0x1100fd8
        0x01101c4a:    b281        ..      UXTH     r1,r0
        0x01101c4c:    2006        .       MOVS     r0,#6
        0x01101c4e:    4360        `C      MULS     r0,r4,r0
        0x01101c50:    1940        @.      ADDS     r0,r0,r5
        0x01101c52:    8840        @.      LDRH     r0,[r0,#2]
        0x01101c54:    1808        ..      ADDS     r0,r1,r0
        0x01101c56:    42b8        .B      CMP      r0,r7
        0x01101c58:    dd04        ..      BLE      0x1101c64 ; adckey_acts_get_keycode_new + 76
        0x01101c5a:    2006        .       MOVS     r0,#6
        0x01101c5c:    4344        DC      MULS     r4,r0,r4
        0x01101c5e:    1960        `.      ADDS     r0,r4,r5
        0x01101c60:    8880        ..      LDRH     r0,[r0,#4]
        0x01101c62:    bdf8        ..      POP      {r3-r7,pc}
        0x01101c64:    1c64        d.      ADDS     r4,r4,#1
        0x01101c66:    42a6        .B      CMP      r6,r4
        0x01101c68:    dce4        ..      BGT      0x1101c34 ; adckey_acts_get_keycode_new + 28
        0x01101c6a:    2000        .       MOVS     r0,#0
        0x01101c6c:    bdf8        ..      POP      {r3-r7,pc}
    $d
        0x01101c6e:    0000        ..      DCW    0
        0x01101c70:    45610000    ..aE    DCD    1163984896
        0x01101c74:    42700000    ..pB    DCD    1114636288
    $t
    i.adckey_acts_init_new
    adckey_acts_init_new
        0x01101c78:    b5f8        ..      PUSH     {r3-r7,lr}
        0x01101c7a:    6801        .h      LDR      r1,[r0,#0]
        0x01101c7c:    6884        .h      LDR      r4,[r0,#8]
        0x01101c7e:    68cd        .h      LDR      r5,[r1,#0xc]
        0x01101c80:    6828        (h      LDR      r0,[r5,#0]
        0x01101c82:    f001f927    ..'.    BL       device_get_binding ; 0x1102ed4
        0x01101c86:    6360        `c      STR      r0,[r4,#0x34]
        0x01101c88:    2800        .(      CMP      r0,#0
        0x01101c8a:    d013        ..      BEQ      0x1101cb4 ; adckey_acts_init_new + 60
        0x01101c8c:    2000        .       MOVS     r0,#0
        0x01101c8e:    6420         d      STR      r0,[r4,#0x40]
        0x01101c90:    4620         F      MOV      r0,r4
        0x01101c92:    3050        P0      ADDS     r0,r0,#0x50
        0x01101c94:    6460        `d      STR      r0,[r4,#0x44]
        0x01101c96:    2004        .       MOVS     r0,#4
        0x01101c98:    64a0        .d      STR      r0,[r4,#0x48]
        0x01101c9a:    4620         F      MOV      r0,r4
        0x01101c9c:    7929        )y      LDRB     r1,[r5,#4]
        0x01101c9e:    3040        @0      ADDS     r0,r0,#0x40
        0x01101ca0:    7301        .s      STRB     r1,[r0,#0xc]
        0x01101ca2:    63a0        .c      STR      r0,[r4,#0x38]
        0x01101ca4:    2601        .&      MOVS     r6,#1
        0x01101ca6:    3420         4      ADDS     r4,r4,#0x20
        0x01101ca8:    7726        &w      STRB     r6,[r4,#0x1c]
        0x01101caa:    4c1a        .L      LDR      r4,[pc,#104] ; [0x1101d14] = 0x200022a4
        0x01101cac:    78a0        .x      LDRB     r0,[r4,#2]
        0x01101cae:    2800        .(      CMP      r0,#0
        0x01101cb0:    d003        ..      BEQ      0x1101cba ; adckey_acts_init_new + 66
        0x01101cb2:    e015        ..      B        0x1101ce0 ; adckey_acts_init_new + 104
        0x01101cb4:    2012        .       MOVS     r0,#0x12
        0x01101cb6:    43c0        .C      MVNS     r0,r0
        0x01101cb8:    bdf8        ..      POP      {r3-r7,pc}
        0x01101cba:    2700        .'      MOVS     r7,#0
        0x01101cbc:    4816        .H      LDR      r0,[pc,#88] ; [0x1101d18] = 0x40008020
        0x01101cbe:    70a6        .p      STRB     r6,[r4,#2]
        0x01101cc0:    43ff        .C      MVNS     r7,r7
        0x01101cc2:    6007        .`      STR      r7,[r0,#0]
        0x01101cc4:    4914        .I      LDR      r1,[pc,#80] ; [0x1101d18] = 0x40008020
        0x01101cc6:    200c        .       MOVS     r0,#0xc
        0x01101cc8:    3134        41      ADDS     r1,r1,#0x34
        0x01101cca:    6008        .`      STR      r0,[r1,#0]
        0x01101ccc:    a013        ..      ADR      r0,{pc}+0x50 ; 0x1101d1c
        0x01101cce:    f001f901    ....    BL       device_get_binding ; 0x1102ed4
        0x01101cd2:    6060        ``      STR      r0,[r4,#4]
        0x01101cd4:    2800        .(      CMP      r0,#0
        0x01101cd6:    d017        ..      BEQ      0x1101d08 ; adckey_acts_init_new + 144
        0x01101cd8:    6842        Bh      LDR      r2,[r0,#4]
        0x01101cda:    4912        .I      LDR      r1,[pc,#72] ; [0x1101d24] = 0x1101d65
        0x01101cdc:    6892        .h      LDR      r2,[r2,#8]
        0x01101cde:    4790        .G      BLX      r2
        0x01101ce0:    480d        .H      LDR      r0,[pc,#52] ; [0x1101d18] = 0x40008020
        0x01101ce2:    3810        .8      SUBS     r0,r0,#0x10
        0x01101ce4:    6802        .h      LDR      r2,[r0,#0]
        0x01101ce6:    792b        +y      LDRB     r3,[r5,#4]
        0x01101ce8:    4631        1F      MOV      r1,r6
        0x01101cea:    4099        .@      LSLS     r1,r1,r3
        0x01101cec:    4311        .C      ORRS     r1,r1,r2
        0x01101cee:    6001        .`      STR      r1,[r0,#0]
        0x01101cf0:    6802        .h      LDR      r2,[r0,#0]
        0x01101cf2:    7929        )y      LDRB     r1,[r5,#4]
        0x01101cf4:    3118        .1      ADDS     r1,r1,#0x18
        0x01101cf6:    408e        .@      LSLS     r6,r6,r1
        0x01101cf8:    4316        .C      ORRS     r6,r6,r2
        0x01101cfa:    6006        .`      STR      r6,[r0,#0]
        0x01101cfc:    6928        (i      LDR      r0,[r5,#0x10]
        0x01101cfe:    2800        .(      CMP      r0,#0
        0x01101d00:    d000        ..      BEQ      0x1101d04 ; adckey_acts_init_new + 140
        0x01101d02:    4780        .G      BLX      r0
        0x01101d04:    2000        .       MOVS     r0,#0
        0x01101d06:    bdf8        ..      POP      {r3-r7,pc}
        0x01101d08:    a104        ..      ADR      r1,{pc}+0x14 ; 0x1101d1c
        0x01101d0a:    a007        ..      ADR      r0,{pc}+0x1e ; 0x1101d28
        0x01101d0c:    f7fff9cc    ....    BL       $Ven$TT$L$$printk ; 0x11010a8
        0x01101d10:    4638        8F      MOV      r0,r7
        0x01101d12:    bdf8        ..      POP      {r3-r7,pc}
    $d
        0x01101d14:    200022a4    .".     DCD    536879780
        0x01101d18:    40008020     ..@    DCD    1073774624
        0x01101d1c:    454d4954    TIME    DCD    1162692948
        0x01101d20:    00315f52    R_1.    DCD    3235666
        0x01101d24:    01101d65    e...    DCD    17833317
        0x01101d28:    6e6e6143    Cann    DCD    1852727619
        0x01101d2c:    6620746f    ot f    DCD    1713402991
        0x01101d30:    20646e69    ind     DCD    543452777
        0x01101d34:    0a217325    %s!.    DCD    169964325
        0x01101d38:    00000000    ....    DCD    0
    $t
    i.adckey_acts_irq_config
    adckey_acts_irq_config
        0x01101d3c:    b510        ..      PUSH     {r4,lr}
        0x01101d3e:    4807        .H      LDR      r0,[pc,#28] ; [0x1101d5c] = 0x20005a30
        0x01101d40:    2100        .!      MOVS     r1,#0
        0x01101d42:    6601        .f      STR      r1,[r0,#0x60]
        0x01101d44:    4906        .I      LDR      r1,[pc,#24] ; [0x1101d60] = 0x1101eb5
        0x01101d46:    6641        Af      STR      r1,[r0,#0x64]
        0x01101d48:    2200        ."      MOVS     r2,#0
        0x01101d4a:    4611        .F      MOV      r1,r2
        0x01101d4c:    201c        .       MOVS     r0,#0x1c
        0x01101d4e:    f7fff9db    ....    BL       $Ven$TT$L$$_irq_priority_set ; 0x1101108
        0x01101d52:    201c        .       MOVS     r0,#0x1c
        0x01101d54:    f7fffa14    ....    BL       $Ven$TT$L$$_arch_irq_enable ; 0x1101180
        0x01101d58:    bd10        ..      POP      {r4,pc}
    $d
        0x01101d5a:    0000        ..      DCW    0
        0x01101d5c:    20005a30    0Z.     DCD    536894000
        0x01101d60:    01101eb5    ....    DCD    17833653
    $t
    i.adckey_acts_poll_new
    adckey_acts_poll_new
        0x01101d64:    b5f0        ..      PUSH     {r4-r7,lr}
        0x01101d66:    6841        Ah      LDR      r1,[r0,#4]
        0x01101d68:    b085        ..      SUB      sp,sp,#0x14
        0x01101d6a:    6909        .i      LDR      r1,[r1,#0x10]
        0x01101d6c:    4788        .G      BLX      r1
        0x01101d6e:    2600        .&      MOVS     r6,#0
        0x01101d70:    9003        ..      STR      r0,[sp,#0xc]
        0x01101d72:    9903        ..      LDR      r1,[sp,#0xc]
        0x01101d74:    00f0        ..      LSLS     r0,r6,#3
        0x01101d76:    1841        A.      ADDS     r1,r0,r1
        0x01101d78:    7989        .y      LDRB     r1,[r1,#6]
        0x01101d7a:    2900        .)      CMP      r1,#0
        0x01101d7c:    d060        `.      BEQ      0x1101e40 ; adckey_acts_poll_new + 220
        0x01101d7e:    9903        ..      LDR      r1,[sp,#0xc]
        0x01101d80:    5808        .X      LDR      r0,[r1,r0]
        0x01101d82:    6801        .h      LDR      r1,[r0,#0]
        0x01101d84:    68c9        .h      LDR      r1,[r1,#0xc]
        0x01101d86:    9101        ..      STR      r1,[sp,#4]
        0x01101d88:    6884        .h      LDR      r4,[r0,#8]
        0x01101d8a:    6b60        `k      LDR      r0,[r4,#0x34]
        0x01101d8c:    6841        Ah      LDR      r1,[r0,#4]
        0x01101d8e:    6809        .h      LDR      r1,[r1,#0]
        0x01101d90:    4788        .G      BLX      r1
        0x01101d92:    6b60        `k      LDR      r0,[r4,#0x34]
        0x01101d94:    4621        !F      MOV      r1,r4
        0x01101d96:    6842        Bh      LDR      r2,[r0,#4]
        0x01101d98:    3138        81      ADDS     r1,r1,#0x38
        0x01101d9a:    6892        .h      LDR      r2,[r2,#8]
        0x01101d9c:    4790        .G      BLX      r2
        0x01101d9e:    6c60        `l      LDR      r0,[r4,#0x44]
        0x01101da0:    7841        Ax      LDRB     r1,[r0,#1]
        0x01101da2:    7802        .x      LDRB     r2,[r0,#0]
        0x01101da4:    0208        ..      LSLS     r0,r1,#8
        0x01101da6:    4310        .C      ORRS     r0,r0,r2
        0x01101da8:    9002        ..      STR      r0,[sp,#8]
        0x01101daa:    6b60        `k      LDR      r0,[r4,#0x34]
        0x01101dac:    6841        Ah      LDR      r1,[r0,#4]
        0x01101dae:    6849        Ih      LDR      r1,[r1,#4]
        0x01101db0:    4788        .G      BLX      r1
        0x01101db2:    4621        !F      MOV      r1,r4
        0x01101db4:    9a02        ..      LDR      r2,[sp,#8]
        0x01101db6:    9801        ..      LDR      r0,[sp,#4]
        0x01101db8:    f7ffff2e    ....    BL       adckey_acts_get_keycode_new ; 0x1101c18
        0x01101dbc:    0005        ..      MOVS     r5,r0
        0x01101dbe:    d003        ..      BEQ      0x1101dc8 ; adckey_acts_poll_new + 100
        0x01101dc0:    4923        #I      LDR      r1,[pc,#140] ; [0x1101e50] = 0x200022a4
        0x01101dc2:    2000        .       MOVS     r0,#0
        0x01101dc4:    7048        Hp      STRB     r0,[r1,#1]
        0x01101dc6:    e003        ..      B        0x1101dd0 ; adckey_acts_poll_new + 108
        0x01101dc8:    205a        Z       MOVS     r0,#0x5a
        0x01101dca:    5b00        .[      LDRH     r0,[r0,r4]
        0x01101dcc:    2800        .(      CMP      r0,#0
        0x01101dce:    d025        %.      BEQ      0x1101e1c ; adckey_acts_poll_new + 184
        0x01101dd0:    4627        'F      MOV      r7,r4
        0x01101dd2:    3740        @7      ADDS     r7,r7,#0x40
        0x01101dd4:    8b38        8.      LDRH     r0,[r7,#0x18]
        0x01101dd6:    42a8        .B      CMP      r0,r5
        0x01101dd8:    d137        7.      BNE      0x1101e4a ; adckey_acts_poll_new + 230
        0x01101dda:    6d60        `m      LDR      r0,[r4,#0x54]
        0x01101ddc:    1c40        @.      ADDS     r0,r0,#1
        0x01101dde:    6560        `e      STR      r0,[r4,#0x54]
        0x01101de0:    9901        ..      LDR      r1,[sp,#4]
        0x01101de2:    8909        ..      LDRH     r1,[r1,#8]
        0x01101de4:    4288        .B      CMP      r0,r1
        0x01101de6:    d12b        +.      BNE      0x1101e40 ; adckey_acts_poll_new + 220
        0x01101de8:    8b7b        {.      LDRH     r3,[r7,#0x1a]
        0x01101dea:    2b00        .+      CMP      r3,#0
        0x01101dec:    d008        ..      BEQ      0x1101e00 ; adckey_acts_poll_new + 156
        0x01101dee:    42ab        .B      CMP      r3,r5
        0x01101df0:    d006        ..      BEQ      0x1101e00 ; adckey_acts_poll_new + 156
        0x01101df2:    2000        .       MOVS     r0,#0
        0x01101df4:    9000        ..      STR      r0,[sp,#0]
        0x01101df6:    4621        !F      MOV      r1,r4
        0x01101df8:    9a02        ..      LDR      r2,[sp,#8]
        0x01101dfa:    9801        ..      LDR      r0,[sp,#4]
        0x01101dfc:    f000f82d    ..-.    BL       adckey_acts_report_key_new ; 0x1101e5a
        0x01101e00:    2d00        .-      CMP      r5,#0
        0x01101e02:    d007        ..      BEQ      0x1101e14 ; adckey_acts_poll_new + 176
        0x01101e04:    2001        .       MOVS     r0,#1
        0x01101e06:    9000        ..      STR      r0,[sp,#0]
        0x01101e08:    462b        +F      MOV      r3,r5
        0x01101e0a:    4621        !F      MOV      r1,r4
        0x01101e0c:    9a02        ..      LDR      r2,[sp,#8]
        0x01101e0e:    9801        ..      LDR      r0,[sp,#4]
        0x01101e10:    f000f823    ..#.    BL       adckey_acts_report_key_new ; 0x1101e5a
        0x01101e14:    837d        }.      STRH     r5,[r7,#0x1a]
        0x01101e16:    2000        .       MOVS     r0,#0
        0x01101e18:    6560        `e      STR      r0,[r4,#0x54]
        0x01101e1a:    e011        ..      B        0x1101e40 ; adckey_acts_poll_new + 220
        0x01101e1c:    490c        .I      LDR      r1,[pc,#48] ; [0x1101e50] = 0x200022a4
        0x01101e1e:    7848        Hx      LDRB     r0,[r1,#1]
        0x01101e20:    1c40        @.      ADDS     r0,r0,#1
        0x01101e22:    b2c0        ..      UXTB     r0,r0
        0x01101e24:    7048        Hp      STRB     r0,[r1,#1]
        0x01101e26:    2808        .(      CMP      r0,#8
        0x01101e28:    d30a        ..      BCC      0x1101e40 ; adckey_acts_poll_new + 220
        0x01101e2a:    2000        .       MOVS     r0,#0
        0x01101e2c:    7048        Hp      STRB     r0,[r1,#1]
        0x01101e2e:    4604        .F      MOV      r4,r0
        0x01101e30:    9803        ..      LDR      r0,[sp,#0xc]
        0x01101e32:    00e1        ..      LSLS     r1,r4,#3
        0x01101e34:    5840        @X      LDR      r0,[r0,r1]
        0x01101e36:    f7fffac9    ....    BL       $Ven$TT$L$$device_busy_clear ; 0x11013cc
        0x01101e3a:    1c64        d.      ADDS     r4,r4,#1
        0x01101e3c:    2c02        .,      CMP      r4,#2
        0x01101e3e:    dbf7        ..      BLT      0x1101e30 ; adckey_acts_poll_new + 204
        0x01101e40:    1c76        v.      ADDS     r6,r6,#1
        0x01101e42:    2e02        ..      CMP      r6,#2
        0x01101e44:    db95        ..      BLT      0x1101d72 ; adckey_acts_poll_new + 14
        0x01101e46:    b005        ..      ADD      sp,sp,#0x14
        0x01101e48:    bdf0        ..      POP      {r4-r7,pc}
        0x01101e4a:    833d        =.      STRH     r5,[r7,#0x18]
        0x01101e4c:    2001        .       MOVS     r0,#1
        0x01101e4e:    e7e3        ..      B        0x1101e18 ; adckey_acts_poll_new + 180
    $d
        0x01101e50:    200022a4    .".     DCD    536879780
    $t
    i.adckey_acts_register_notify_new
    adckey_acts_register_notify_new
        0x01101e54:    6880        .h      LDR      r0,[r0,#8]
        0x01101e56:    65c1        .e      STR      r1,[r0,#0x5c]
        0x01101e58:    4770        pG      BX       lr
    i.adckey_acts_report_key_new
    adckey_acts_report_key_new
        0x01101e5a:    b51c        ..      PUSH     {r2-r4,lr}
        0x01101e5c:    6dca        .m      LDR      r2,[r1,#0x5c]
        0x01101e5e:    9804        ..      LDR      r0,[sp,#0x10]
        0x01101e60:    2a00        .*      CMP      r2,#0
        0x01101e62:    d008        ..      BEQ      0x1101e76 ; adckey_acts_report_key_new + 28
        0x01101e64:    2201        ."      MOVS     r2,#1
        0x01101e66:    466c        lF      MOV      r4,sp
        0x01101e68:    8022        ".      STRH     r2,[r4,#0]
        0x01101e6a:    8063        c.      STRH     r3,[r4,#2]
        0x01101e6c:    9001        ..      STR      r0,[sp,#4]
        0x01101e6e:    6dca        .m      LDR      r2,[r1,#0x5c]
        0x01101e70:    4669        iF      MOV      r1,sp
        0x01101e72:    2000        .       MOVS     r0,#0
        0x01101e74:    4790        .G      BLX      r2
        0x01101e76:    bd1c        ..      POP      {r2-r4,pc}
    i.adckey_acts_resume_device_from_suspend
    adckey_acts_resume_device_from_suspend
        0x01101e78:    b510        ..      PUSH     {r4,lr}
        0x01101e7a:    4905        .I      LDR      r1,[pc,#20] ; [0x1101e90] = 0x200022a4
        0x01101e7c:    4604        .F      MOV      r4,r0
        0x01101e7e:    6848        Hh      LDR      r0,[r1,#4]
        0x01101e80:    f000f854    ..T.    BL       adckey_timer_start ; 0x1101f2c
        0x01101e84:    4620         F      MOV      r0,r4
        0x01101e86:    f7fffaad    ....    BL       $Ven$TT$L$$device_busy_set ; 0x11013e4
        0x01101e8a:    2000        .       MOVS     r0,#0
        0x01101e8c:    bd10        ..      POP      {r4,pc}
    $d
        0x01101e8e:    0000        ..      DCW    0
        0x01101e90:    200022a4    .".     DCD    536879780
    $t
    i.adckey_acts_suspend_device
    adckey_acts_suspend_device
        0x01101e94:    b510        ..      PUSH     {r4,lr}
        0x01101e96:    4804        .H      LDR      r0,[pc,#16] ; [0x1101ea8] = 0x200022a4
        0x01101e98:    6840        @h      LDR      r0,[r0,#4]
        0x01101e9a:    f000f855    ..U.    BL       adckey_timer_stop ; 0x1101f48
        0x01101e9e:    201c        .       MOVS     r0,#0x1c
        0x01101ea0:    f7fff96e    ..n.    BL       $Ven$TT$L$$_arch_irq_enable ; 0x1101180
        0x01101ea4:    2000        .       MOVS     r0,#0
        0x01101ea6:    bd10        ..      POP      {r4,pc}
    $d
        0x01101ea8:    200022a4    .".     DCD    536879780
    $t
    i.adckey_acts_unregister_notify_new
    adckey_acts_unregister_notify_new
        0x01101eac:    6880        .h      LDR      r0,[r0,#8]
        0x01101eae:    2100        .!      MOVS     r1,#0
        0x01101eb0:    65c1        .e      STR      r1,[r0,#0x5c]
        0x01101eb2:    4770        pG      BX       lr
    i.adckey_acts_wakeup_isr
    adckey_acts_wakeup_isr
        0x01101eb4:    b510        ..      PUSH     {r4,lr}
        0x01101eb6:    201c        .       MOVS     r0,#0x1c
        0x01101eb8:    f7fffaa0    ....    BL       $Ven$TT$L$$_arch_irq_disable ; 0x11013fc
        0x01101ebc:    4905        .I      LDR      r1,[pc,#20] ; [0x1101ed4] = 0x40008020
        0x01101ebe:    6808        .h      LDR      r0,[r1,#0]
        0x01101ec0:    22fc        ."      MOVS     r2,#0xfc
        0x01101ec2:    4310        .C      ORRS     r0,r0,r2
        0x01101ec4:    6008        .`      STR      r0,[r1,#0]
        0x01101ec6:    4903        .I      LDR      r1,[pc,#12] ; [0x1101ed4] = 0x40008020
        0x01101ec8:    3134        41      ADDS     r1,r1,#0x34
        0x01101eca:    6808        .h      LDR      r0,[r1,#0]
        0x01101ecc:    2208        ."      MOVS     r2,#8
        0x01101ece:    4310        .C      ORRS     r0,r0,r2
        0x01101ed0:    6008        .`      STR      r0,[r1,#0]
        0x01101ed2:    bd10        ..      POP      {r4,pc}
    $d
        0x01101ed4:    40008020     ..@    DCD    1073774624
    $t
    i.adckey_device_ctrl
    adckey_device_ctrl
        0x01101ed8:    b510        ..      PUSH     {r4,lr}
        0x01101eda:    2901        .)      CMP      r1,#1
        0x01101edc:    d104        ..      BNE      0x1101ee8 ; adckey_device_ctrl + 16
        0x01101ede:    6811        .h      LDR      r1,[r2,#0]
        0x01101ee0:    2903        .)      CMP      r1,#3
        0x01101ee2:    d003        ..      BEQ      0x1101eec ; adckey_device_ctrl + 20
        0x01101ee4:    2901        .)      CMP      r1,#1
        0x01101ee6:    d004        ..      BEQ      0x1101ef2 ; adckey_device_ctrl + 26
        0x01101ee8:    2000        .       MOVS     r0,#0
        0x01101eea:    bd10        ..      POP      {r4,pc}
        0x01101eec:    f7ffffd2    ....    BL       adckey_acts_suspend_device ; 0x1101e94
        0x01101ef0:    bd10        ..      POP      {r4,pc}
        0x01101ef2:    f7ffffc1    ....    BL       adckey_acts_resume_device_from_suspend ; 0x1101e78
        0x01101ef6:    bd10        ..      POP      {r4,pc}
    i.adckey_device_open
    adckey_device_open
        0x01101ef8:    b570        p.      PUSH     {r4-r6,lr}
        0x01101efa:    460e        .F      MOV      r6,r1
        0x01101efc:    4605        .F      MOV      r5,r0
        0x01101efe:    f001f897    ....    BL       get_adckey_handle ; 0x1103030
        0x01101f02:    4604        .F      MOV      r4,r0
        0x01101f04:    4630        0F      MOV      r0,r6
        0x01101f06:    f000ffe5    ....    BL       device_get_binding ; 0x1102ed4
        0x01101f0a:    6060        ``      STR      r0,[r4,#4]
        0x01101f0c:    2800        .(      CMP      r0,#0
        0x01101f0e:    d00c        ..      BEQ      0x1101f2a ; adckey_device_open + 50
        0x01101f10:    6026        &`      STR      r6,[r4,#0]
        0x01101f12:    6841        Ah      LDR      r1,[r0,#4]
        0x01101f14:    6809        .h      LDR      r1,[r1,#0]
        0x01101f16:    4788        .G      BLX      r1
        0x01101f18:    6860        `h      LDR      r0,[r4,#4]
        0x01101f1a:    4629        )F      MOV      r1,r5
        0x01101f1c:    6842        Bh      LDR      r2,[r0,#4]
        0x01101f1e:    6892        .h      LDR      r2,[r2,#8]
        0x01101f20:    4790        .G      BLX      r2
        0x01101f22:    2001        .       MOVS     r0,#1
        0x01101f24:    60a5        .`      STR      r5,[r4,#8]
        0x01101f26:    7320         s      STRB     r0,[r4,#0xc]
        0x01101f28:    4620         F      MOV      r0,r4
        0x01101f2a:    bd70        p.      POP      {r4-r6,pc}
    i.adckey_timer_start
    adckey_timer_start
        0x01101f2c:    4a05        .J      LDR      r2,[pc,#20] ; [0x1101f44] = 0x200022a4
        0x01101f2e:    7811        .x      LDRB     r1,[r2,#0]
        0x01101f30:    2900        .)      CMP      r1,#0
        0x01101f32:    d105        ..      BNE      0x1101f40 ; adckey_timer_start + 20
        0x01101f34:    2101        .!      MOVS     r1,#1
        0x01101f36:    7011        .p      STRB     r1,[r2,#0]
        0x01101f38:    6843        Ch      LDR      r3,[r0,#4]
        0x01101f3a:    221e        ."      MOVS     r2,#0x1e
        0x01101f3c:    681b        .h      LDR      r3,[r3,#0]
        0x01101f3e:    4718        .G      BX       r3
        0x01101f40:    4770        pG      BX       lr
    $d
        0x01101f42:    0000        ..      DCW    0
        0x01101f44:    200022a4    .".     DCD    536879780
    $t
    i.adckey_timer_stop
    adckey_timer_stop
        0x01101f48:    4904        .I      LDR      r1,[pc,#16] ; [0x1101f5c] = 0x200022a4
        0x01101f4a:    780a        .x      LDRB     r2,[r1,#0]
        0x01101f4c:    2a00        .*      CMP      r2,#0
        0x01101f4e:    d004        ..      BEQ      0x1101f5a ; adckey_timer_stop + 18
        0x01101f50:    2200        ."      MOVS     r2,#0
        0x01101f52:    700a        .p      STRB     r2,[r1,#0]
        0x01101f54:    6841        Ah      LDR      r1,[r0,#4]
        0x01101f56:    6849        Ih      LDR      r1,[r1,#4]
        0x01101f58:    4708        .G      BX       r1
        0x01101f5a:    4770        pG      BX       lr
    $d
        0x01101f5c:    200022a4    .".     DCD    536879780
    $t
    i.addr_match_bt_keys
    addr_match_bt_keys
        0x01101f60:    b5f8        ..      PUSH     {r3-r7,lr}
        0x01101f62:    4604        .F      MOV      r4,r0
        0x01101f64:    7800        .x      LDRB     r0,[r0,#0]
        0x01101f66:    2500        .%      MOVS     r5,#0
        0x01101f68:    460e        .F      MOV      r6,r1
        0x01101f6a:    2801        .(      CMP      r0,#1
        0x01101f6c:    d110        ..      BNE      0x1101f90 ; addr_match_bt_keys + 48
        0x01101f6e:    79a0        .y      LDRB     r0,[r4,#6]
        0x01101f70:    0980        ..      LSRS     r0,r0,#6
        0x01101f72:    2801        .(      CMP      r0,#1
        0x01101f74:    d000        ..      BEQ      0x1101f78 ; addr_match_bt_keys + 24
        0x01101f76:    2000        .       MOVS     r0,#0
        0x01101f78:    2800        .(      CMP      r0,#0
        0x01101f7a:    d009        ..      BEQ      0x1101f90 ; addr_match_bt_keys + 48
        0x01101f7c:    4637        7F      MOV      r7,r6
        0x01101f7e:    3740        @7      ADDS     r7,r7,#0x40
        0x01101f80:    1c60        `.      ADDS     r0,r4,#1
        0x01101f82:    2206        ."      MOVS     r2,#6
        0x01101f84:    4639        9F      MOV      r1,r7
        0x01101f86:    f7fffa3f    ..?.    BL       $Ven$TT$L$$memcmp ; 0x1101408
        0x01101f8a:    2800        .(      CMP      r0,#0
        0x01101f8c:    d009        ..      BEQ      0x1101fa2 ; addr_match_bt_keys + 66
        0x01101f8e:    e009        ..      B        0x1101fa4 ; addr_match_bt_keys + 68
        0x01101f90:    4608        .F      MOV      r0,r1
        0x01101f92:    4621        !F      MOV      r1,r4
        0x01101f94:    2207        ."      MOVS     r2,#7
        0x01101f96:    f7fffa37    ..7.    BL       $Ven$TT$L$$memcmp ; 0x1101408
        0x01101f9a:    2800        .(      CMP      r0,#0
        0x01101f9c:    d10f        ..      BNE      0x1101fbe ; addr_match_bt_keys + 94
        0x01101f9e:    2501        .%      MOVS     r5,#1
        0x01101fa0:    e00d        ..      B        0x1101fbe ; addr_match_bt_keys + 94
        0x01101fa2:    2501        .%      MOVS     r5,#1
        0x01101fa4:    4630        0F      MOV      r0,r6
        0x01101fa6:    1c61        a.      ADDS     r1,r4,#1
        0x01101fa8:    3030        00      ADDS     r0,r0,#0x30
        0x01101faa:    f7fffa33    ..3.    BL       $Ven$TT$L$$bt_rpa_irk_matches ; 0x1101414
        0x01101fae:    2800        .(      CMP      r0,#0
        0x01101fb0:    d005        ..      BEQ      0x1101fbe ; addr_match_bt_keys + 94
        0x01101fb2:    4638        8F      MOV      r0,r7
        0x01101fb4:    1c61        a.      ADDS     r1,r4,#1
        0x01101fb6:    2206        ."      MOVS     r2,#6
        0x01101fb8:    f7feff68    ..h.    BL       __aeabi_memcpy ; 0x1100e8c
        0x01101fbc:    e7ef        ..      B        0x1101f9e ; addr_match_bt_keys + 62
        0x01101fbe:    4628        (F      MOV      r0,r5
        0x01101fc0:    bdf8        ..      POP      {r3-r7,pc}
        0x01101fc2:    0000        ..      MOVS     r0,r0
    i.app_main
    app_main
        0x01101fc4:    b57f        ..      PUSH     {r0-r6,lr}
        0x01101fc6:    2000        .       MOVS     r0,#0
        0x01101fc8:    9001        ..      STR      r0,[sp,#4]
        0x01101fca:    9002        ..      STR      r0,[sp,#8]
        0x01101fcc:    4604        .F      MOV      r4,r0
        0x01101fce:    9003        ..      STR      r0,[sp,#0xc]
        0x01101fd0:    f7fefd74    ..t.    BL       system_app_init ; 0x1100abc
        0x01101fd4:    f7fffa24    ..$.    BL       $Ven$TT$L$$app_get_wake_lock ; 0x1101420
        0x01101fd8:    4836        6H      LDR      r0,[pc,#216] ; [0x11020b4] = 0x1100b3d
        0x01101fda:    f7fffa27    ..'.    BL       $Ven$TT$L$$bt_enable ; 0x110142c
        0x01101fde:    0005        ..      MOVS     r5,r0
        0x01101fe0:    d00a        ..      BEQ      0x1101ff8 ; app_main + 52
        0x01101fe2:    f7fff9bd    ....    BL       $Ven$TT$L$$app_release_wake_lock ; 0x1101360
        0x01101fe6:    a034        4.      ADR      r0,{pc}+0xd2 ; 0x11020b8
        0x01101fe8:    9000        ..      STR      r0,[sp,#0]
        0x01101fea:    462b        +F      MOV      r3,r5
        0x01101fec:    a232        2.      ADR      r2,{pc}+0xcc ; 0x11020b8
        0x01101fee:    a133        3.      ADR      r1,{pc}+0xce ; 0x11020bc
        0x01101ff0:    a034        4.      ADR      r0,{pc}+0xd4 ; 0x11020c4
        0x01101ff2:    f7fff859    ..Y.    BL       $Ven$TT$L$$printk ; 0x11010a8
        0x01101ff6:    bd7f        ..      POP      {r0-r6,pc}
        0x01101ff8:    f7fefeda    ....    BL       system_app_storage_init ; 0x1100db0
        0x01101ffc:    f002fbf6    ....    BL       reset_stroage ; 0x11047ec
        0x01102000:    2002        .       MOVS     r0,#2
        0x01102002:    f002fe39    ..9.    BL       rmc_timer_start ; 0x1104c78
        0x01102006:    2500        .%      MOVS     r5,#0
        0x01102008:    43ed        .C      MVNS     r5,r5
        0x0110200a:    4629        )F      MOV      r1,r5
        0x0110200c:    a801        ..      ADD      r0,sp,#4
        0x0110200e:    f002fbbf    ....    BL       receive_msg ; 0x1104790
        0x01102012:    2800        .(      CMP      r0,#0
        0x01102014:    d0f9        ..      BEQ      0x110200a ; app_main + 70
        0x01102016:    4668        hF      MOV      r0,sp
        0x01102018:    7940        @y      LDRB     r0,[r0,#5]
        0x0110201a:    0003        ..      MOVS     r3,r0
        0x0110201c:    f7fffcf5    ....    BL       __ARM_common_switch8 ; 0x1101a0a
    $d
        0x01102020:    34053807    .8.4    DCD    872757255
        0x01102024:    2d211a10    ..!-    DCD    757144080
        0x01102028:    0038        8.      DCW    56
    $t
        0x0110202a:    2002        .       MOVS     r0,#2
        0x0110202c:    f002fe24    ..$.    BL       rmc_timer_start ; 0x1104c78
        0x01102030:    482f        /H      LDR      r0,[pc,#188] ; [0x11020f0] = 0x20001a40
        0x01102032:    7800        .x      LDRB     r0,[r0,#0]
        0x01102034:    2800        .(      CMP      r0,#0
        0x01102036:    d033        3.      BEQ      0x11020a0 ; app_main + 220
        0x01102038:    9802        ..      LDR      r0,[sp,#8]
        0x0110203a:    f003fc9d    ....    BL       system_input_event_handle ; 0x1105978
        0x0110203e:    e02f        /.      B        0x11020a0 ; app_main + 220
        0x01102040:    a31d        ..      ADR      r3,{pc}+0x78 ; 0x11020b8
        0x01102042:    a21d        ..      ADR      r2,{pc}+0x76 ; 0x11020b8
        0x01102044:    a11d        ..      ADR      r1,{pc}+0x78 ; 0x11020bc
        0x01102046:    a02b        +.      ADR      r0,{pc}+0xae ; 0x11020f4
        0x01102048:    f7fff82e    ....    BL       $Ven$TT$L$$printk ; 0x11010a8
        0x0110204c:    9802        ..      LDR      r0,[sp,#8]
        0x0110204e:    f003fc89    ....    BL       system_ble_event_handle ; 0x1105964
        0x01102052:    e025        %.      B        0x11020a0 ; app_main + 220
        0x01102054:    2002        .       MOVS     r0,#2
        0x01102056:    f002fe0f    ....    BL       rmc_timer_start ; 0x1104c78
        0x0110205a:    9802        ..      LDR      r0,[sp,#8]
        0x0110205c:    f003fc4e    ..N.    BL       system_audio_event_handle ; 0x11058fc
        0x01102060:    e01e        ..      B        0x11020a0 ; app_main + 220
        0x01102062:    a015        ..      ADR      r0,{pc}+0x56 ; 0x11020b8
        0x01102064:    9000        ..      STR      r0,[sp,#0]
        0x01102066:    a214        ..      ADR      r2,{pc}+0x52 ; 0x11020b8
        0x01102068:    a114        ..      ADR      r1,{pc}+0x54 ; 0x11020bc
        0x0110206a:    a028        (.      ADR      r0,{pc}+0xa2 ; 0x110210c
        0x0110206c:    9b02        ..      LDR      r3,[sp,#8]
        0x0110206e:    f7fff81b    ....    BL       $Ven$TT$L$$printk ; 0x11010a8
        0x01102072:    9802        ..      LDR      r0,[sp,#8]
        0x01102074:    f003fbe4    ....    BL       system_app_timer_event_handle ; 0x1105840
        0x01102078:    e012        ..      B        0x11020a0 ; app_main + 220
        0x0110207a:    2002        .       MOVS     r0,#2
        0x0110207c:    f002fdfc    ....    BL       rmc_timer_start ; 0x1104c78
        0x01102080:    9802        ..      LDR      r0,[sp,#8]
        0x01102082:    f001ff2d    ..-.    BL       ota_event_handle ; 0x1103ee0
        0x01102086:    e00b        ..      B        0x11020a0 ; app_main + 220
        0x01102088:    200c        .       MOVS     r0,#0xc
        0x0110208a:    f002fda7    ....    BL       rmc_sm_execute ; 0x1104bdc
        0x0110208e:    e007        ..      B        0x11020a0 ; app_main + 220
        0x01102090:    a109        ..      ADR      r1,{pc}+0x28 ; 0x11020b8
        0x01102092:    4603        .F      MOV      r3,r0
        0x01102094:    9100        ..      STR      r1,[sp,#0]
        0x01102096:    a208        ..      ADR      r2,{pc}+0x22 ; 0x11020b8
        0x01102098:    a108        ..      ADR      r1,{pc}+0x24 ; 0x11020bc
        0x0110209a:    a023        #.      ADR      r0,{pc}+0x8e ; 0x1102128
        0x0110209c:    f7fff804    ....    BL       $Ven$TT$L$$printk ; 0x11010a8
        0x011020a0:    9803        ..      LDR      r0,[sp,#0xc]
        0x011020a2:    2800        .(      CMP      r0,#0
        0x011020a4:    d0b1        ..      BEQ      0x110200a ; app_main + 70
        0x011020a6:    4603        .F      MOV      r3,r0
        0x011020a8:    2200        ."      MOVS     r2,#0
        0x011020aa:    4621        !F      MOV      r1,r4
        0x011020ac:    a801        ..      ADD      r0,sp,#4
        0x011020ae:    4798        .G      BLX      r3
        0x011020b0:    e7ab        ..      B        0x110200a ; app_main + 70
    $d
        0x011020b2:    0000        ..      DCW    0
        0x011020b4:    01100b3d    =...    DCD    17828669
        0x011020b8:    00000000    ....    DCD    0
        0x011020bc:    6e69616d    main    DCD    1852399981
        0x011020c0:    00000000    ....    DCD    0
        0x011020c4:    5d73255b    [%s]    DCD    1567827291
        0x011020c8:    42732520     %sB    DCD    1114842400
        0x011020cc:    7465756c    luet    DCD    1952806252
        0x011020d0:    68746f6f    ooth    DCD    1752461167
        0x011020d4:    696e6920     ini    DCD    1768843552
        0x011020d8:    61662074    t fa    DCD    1634082932
        0x011020dc:    64656c69    iled    DCD    1684368489
        0x011020e0:    72652820     (er    DCD    1919232032
        0x011020e4:    64252072    r %d    DCD    1680154738
        0x011020e8:    0a732529    )%s.    DCD    175318313
        0x011020ec:    00000000    ....    DCD    0
        0x011020f0:    20001a40    @..     DCD    536877632
        0x011020f4:    5d73255b    [%s]    DCD    1567827291
        0x011020f8:    4d732520     %sM    DCD    1299391776
        0x011020fc:    425f4753    SG_B    DCD    1113540435
        0x01102100:    535f454c    LE_S    DCD    1398752588
        0x01102104:    45544154    TATE    DCD    1163149652
        0x01102108:    000a7325    %s..    DCD    684837
        0x0110210c:    5d73255b    [%s]    DCD    1567827291
        0x01102110:    4d732520     %sM    DCD    1299391776
        0x01102114:    415f4753    SG_A    DCD    1096763219
        0x01102118:    545f5050    PP_T    DCD    1415532624
        0x0110211c:    52454d49    IMER    DCD    1380273481
        0x01102120:    25642520     %d%    DCD    627320096
        0x01102124:    00000a73    s...    DCD    2675
        0x01102128:    5d73255b    [%s]    DCD    1567827291
        0x0110212c:    65732520     %se    DCD    1702044960
        0x01102130:    726f7272    rror    DCD    1919906418
        0x01102134:    73656d20     mes    DCD    1936026912
        0x01102138:    65676173    sage    DCD    1701273971
        0x0110213c:    70797420     typ    DCD    1887007776
        0x01102140:    736d2065    e ms    DCD    1936531557
        0x01102144:    79742e67    g.ty    DCD    2037657191
        0x01102148:    25206570    pe %    DCD    622880112
        0x0110214c:    0a732564    d%s.    DCD    175318372
        0x01102150:    00000000    ....    DCD    0
    $t
    i.at_addr_le_to_str2
    at_addr_le_to_str2
        0x01102154:    b570        p.      PUSH     {r4-r6,lr}
        0x01102156:    4614        .F      MOV      r4,r2
        0x01102158:    460d        .F      MOV      r5,r1
        0x0110215a:    b086        ..      SUB      sp,sp,#0x18
        0x0110215c:    7846        Fx      LDRB     r6,[r0,#1]
        0x0110215e:    7883        .x      LDRB     r3,[r0,#2]
        0x01102160:    78c2        .x      LDRB     r2,[r0,#3]
        0x01102162:    7901        .y      LDRB     r1,[r0,#4]
        0x01102164:    9101        ..      STR      r1,[sp,#4]
        0x01102166:    a902        ..      ADD      r1,sp,#8
        0x01102168:    c14c        L.      STM      r1!,{r2,r3,r6}
        0x0110216a:    7941        Ay      LDRB     r1,[r0,#5]
        0x0110216c:    9100        ..      STR      r1,[sp,#0]
        0x0110216e:    7983        .y      LDRB     r3,[r0,#6]
        0x01102170:    a203        ..      ADR      r2,{pc}+0x10 ; 0x1102180
        0x01102172:    4621        !F      MOV      r1,r4
        0x01102174:    4628        (F      MOV      r0,r5
        0x01102176:    f7fff95f    .._.    BL       $Ven$TT$L$$snprintk ; 0x1101438
        0x0110217a:    b006        ..      ADD      sp,sp,#0x18
        0x0110217c:    bd70        p.      POP      {r4-r6,pc}
    $d
        0x0110217e:    0000        ..      DCW    0
        0x01102180:    58323025    %02X    DCD    1479684133
        0x01102184:    3230253a    :%02    DCD    842016058
        0x01102188:    30253a58    X:%0    DCD    807746136
        0x0110218c:    253a5832    2X:%    DCD    624580658
        0x01102190:    3a583230    02X:    DCD    978858544
        0x01102194:    58323025    %02X    DCD    1479684133
        0x01102198:    3230253a    :%02    DCD    842016058
        0x0110219c:    00000058    X...    DCD    88
    $t
    i.atomic_set_bit
    atomic_set_bit
        0x011021a0:    06cb        ..      LSLS     r3,r1,#27
        0x011021a2:    460a        .F      MOV      r2,r1
        0x011021a4:    0edb        ..      LSRS     r3,r3,#27
        0x011021a6:    2101        .!      MOVS     r1,#1
        0x011021a8:    4099        .@      LSLS     r1,r1,r3
        0x011021aa:    0952        R.      LSRS     r2,r2,#5
        0x011021ac:    b510        ..      PUSH     {r4,lr}
        0x011021ae:    0092        ..      LSLS     r2,r2,#2
        0x011021b0:    1810        ..      ADDS     r0,r2,r0
        0x011021b2:    f7fff947    ..G.    BL       $Ven$TT$L$$atomic_or ; 0x1101444
        0x011021b6:    bd10        ..      POP      {r4,pc}
    i.att_cfm_sent_new
    att_cfm_sent_new
        0x011021b8:    b510        ..      PUSH     {r4,lr}
        0x011021ba:    f7fff949    ..I.    BL       $Ven$TT$L$$att_get ; 0x1101450
        0x011021be:    2800        .(      CMP      r0,#0
        0x011021c0:    d002        ..      BEQ      0x11021c8 ; att_cfm_sent_new + 16
        0x011021c2:    30d4        .0      ADDS     r0,r0,#0xd4
        0x011021c4:    f7fff94a    ..J.    BL       $Ven$TT$L$$k_sem_give ; 0x110145c
        0x011021c8:    bd10        ..      POP      {r4,pc}
        0x011021ca:    0000        ..      MOVS     r0,r0
    i.att_req_sent_new
    att_req_sent_new
        0x011021cc:    b510        ..      PUSH     {r4,lr}
        0x011021ce:    f7fff93f    ..?.    BL       $Ven$TT$L$$att_get ; 0x1101450
        0x011021d2:    0004        ..      MOVS     r4,r0
        0x011021d4:    d00d        ..      BEQ      0x11021f2 ; att_req_sent_new + 38
        0x011021d6:    4620         F      MOV      r0,r4
        0x011021d8:    30d4        .0      ADDS     r0,r0,#0xd4
        0x011021da:    f7fff93f    ..?.    BL       $Ven$TT$L$$k_sem_give ; 0x110145c
        0x011021de:    20a0        .       MOVS     r0,#0xa0
        0x011021e0:    5900        .Y      LDR      r0,[r0,r4]
        0x011021e2:    2800        .(      CMP      r0,#0
        0x011021e4:    d005        ..      BEQ      0x11021f2 ; att_req_sent_new + 38
        0x011021e6:    4621        !F      MOV      r1,r4
        0x011021e8:    31ac        .1      ADDS     r1,r1,#0xac
        0x011021ea:    4a02        .J      LDR      r2,[pc,#8] ; [0x11021f4] = 0x7530
        0x011021ec:    4802        .H      LDR      r0,[pc,#8] ; [0x11021f8] = 0x200009cc
        0x011021ee:    f7fff93b    ..;.    BL       $Ven$TT$L$$k_delayed_work_submit_to_queue ; 0x1101468
        0x011021f2:    bd10        ..      POP      {r4,pc}
    $d
        0x011021f4:    00007530    0u..    DCD    30000
        0x011021f8:    200009cc    ...     DCD    536873420
    $t
    i.att_rsp_sent_new
    att_rsp_sent_new
        0x011021fc:    b510        ..      PUSH     {r4,lr}
        0x011021fe:    f7fff927    ..'.    BL       $Ven$TT$L$$att_get ; 0x1101450
        0x01102202:    2800        .(      CMP      r0,#0
        0x01102204:    d002        ..      BEQ      0x110220c ; att_rsp_sent_new + 16
        0x01102206:    30d4        .0      ADDS     r0,r0,#0xd4
        0x01102208:    f7fff928    ..(.    BL       $Ven$TT$L$$k_sem_give ; 0x110145c
        0x0110220c:    bd10        ..      POP      {r4,pc}
        0x0110220e:    0000        ..      MOVS     r0,r0
    i.audio_encode
    audio_encode
        0x01102210:    b5f8        ..      PUSH     {r3-r7,lr}
        0x01102212:    460e        .F      MOV      r6,r1
        0x01102214:    4913        .I      LDR      r1,[pc,#76] ; [0x1102264] = 0x20001af0
        0x01102216:    2202        ."      MOVS     r2,#2
        0x01102218:    5e8a        .^      LDRSH    r2,[r1,r2]
        0x0110221a:    6887        .h      LDR      r7,[r0,#8]
        0x0110221c:    2500        .%      MOVS     r5,#0
        0x0110221e:    8980        ..      LDRH     r0,[r0,#0xc]
        0x01102220:    0051        Q.      LSLS     r1,r2,#1
        0x01102222:    f7fff8c1    ....    BL       $Ven$TT$L$$__aeabi_idivmod ; 0x11013a8
        0x01102226:    b2c0        ..      UXTB     r0,r0
        0x01102228:    2400        .$      MOVS     r4,#0
        0x0110222a:    9000        ..      STR      r0,[sp,#0]
        0x0110222c:    e012        ..      B        0x1102254 ; audio_encode + 68
        0x0110222e:    2202        ."      MOVS     r2,#2
        0x01102230:    4b0c        .K      LDR      r3,[pc,#48] ; [0x1102264] = 0x20001af0
        0x01102232:    480c        .H      LDR      r0,[pc,#48] ; [0x1102264] = 0x20001af0
        0x01102234:    3b1c        .;      SUBS     r3,r3,#0x1c
        0x01102236:    5e82        .^      LDRSH    r2,[r0,r2]
        0x01102238:    695b        [i      LDR      r3,[r3,#0x14]
        0x0110223a:    4631        1F      MOV      r1,r6
        0x0110223c:    4638        8F      MOV      r0,r7
        0x0110223e:    4798        .G      BLX      r3
        0x01102240:    b285        ..      UXTH     r5,r0
        0x01102242:    4808        .H      LDR      r0,[pc,#32] ; [0x1102264] = 0x20001af0
        0x01102244:    2102        .!      MOVS     r1,#2
        0x01102246:    5e41        A^      LDRSH    r1,[r0,r1]
        0x01102248:    0048        H.      LSLS     r0,r1,#1
        0x0110224a:    19c7        ..      ADDS     r7,r0,r7
        0x0110224c:    0068        h.      LSLS     r0,r5,#1
        0x0110224e:    1986        ..      ADDS     r6,r0,r6
        0x01102250:    1c64        d.      ADDS     r4,r4,#1
        0x01102252:    b2e4        ..      UXTB     r4,r4
        0x01102254:    9800        ..      LDR      r0,[sp,#0]
        0x01102256:    4284        .B      CMP      r4,r0
        0x01102258:    d3e9        ..      BCC      0x110222e ; audio_encode + 30
        0x0110225a:    4345        EC      MULS     r5,r0,r5
        0x0110225c:    0468        h.      LSLS     r0,r5,#17
        0x0110225e:    0c00        ..      LSRS     r0,r0,#16
        0x01102260:    bdf8        ..      POP      {r3-r7,pc}
    $d
        0x01102262:    0000        ..      DCW    0
        0x01102264:    20001af0    ...     DCD    536877808
    $t
    i.audio_need_drop_buffer
    audio_need_drop_buffer
        0x01102268:    4903        .I      LDR      r1,[pc,#12] ; [0x1102278] = 0x20001af0
        0x0110226a:    7988        .y      LDRB     r0,[r1,#6]
        0x0110226c:    2800        .(      CMP      r0,#0
        0x0110226e:    d002        ..      BEQ      0x1102276 ; audio_need_drop_buffer + 14
        0x01102270:    1e40        @.      SUBS     r0,r0,#1
        0x01102272:    7188        .q      STRB     r0,[r1,#6]
        0x01102274:    2001        .       MOVS     r0,#1
        0x01102276:    4770        pG      BX       lr
    $d
        0x01102278:    20001af0    ...     DCD    536877808
    $t
    i.audio_out_device_open
    audio_out_device_open
        0x0110227c:    b570        p.      PUSH     {r4-r6,lr}
        0x0110227e:    4604        .F      MOV      r4,r0
        0x01102280:    a00c        ..      ADR      r0,{pc}+0x34 ; 0x11022b4
        0x01102282:    f000fe27    ..'.    BL       device_get_binding ; 0x1102ed4
        0x01102286:    2800        .(      CMP      r0,#0
        0x01102288:    d012        ..      BEQ      0x11022b0 ; audio_out_device_open + 52
        0x0110228a:    4d0e        .M      LDR      r5,[pc,#56] ; [0x11022c4] = 0x200021b8
        0x0110228c:    490c        .I      LDR      r1,[pc,#48] ; [0x11022c0] = 0x20006394
        0x0110228e:    6029        )`      STR      r1,[r5,#0]
        0x01102290:    608c        .`      STR      r4,[r1,#8]
        0x01102292:    460c        .F      MOV      r4,r1
        0x01102294:    6008        .`      STR      r0,[r1,#0]
        0x01102296:    342c        ,4      ADDS     r4,r4,#0x2c
        0x01102298:    4620         F      MOV      r0,r4
        0x0110229a:    2101        .!      MOVS     r1,#1
        0x0110229c:    4e0a        .N      LDR      r6,[pc,#40] ; [0x11022c8] = 0x11045b9
        0x0110229e:    3008        .0      ADDS     r0,r0,#8
        0x011022a0:    43c9        .C      MVNS     r1,r1
        0x011022a2:    f7fff8e7    ....    BL       $Ven$TT$L$$atomic_and ; 0x1101474
        0x011022a6:    a009        ..      ADR      r0,{pc}+0x26 ; 0x11022cc
        0x011022a8:    6066        f`      STR      r6,[r4,#4]
        0x011022aa:    f7fefefd    ....    BL       $Ven$TT$L$$printk ; 0x11010a8
        0x011022ae:    6828        (h      LDR      r0,[r5,#0]
        0x011022b0:    bd70        p.      POP      {r4-r6,pc}
    $d
        0x011022b2:    0000        ..      DCW    0
        0x011022b4:    49445541    AUDI    DCD    1229215041
        0x011022b8:    54554f4f    OOUT    DCD    1414877007
        0x011022bc:    00000000    ....    DCD    0
        0x011022c0:    20006394    .c.     DCD    536896404
        0x011022c4:    200021b8    .!.     DCD    536879544
        0x011022c8:    011045b9    .E..    DCD    17843641
        0x011022cc:    69647561    audi    DCD    1768191329
        0x011022d0:    756f5f6f    o_ou    DCD    1970233199
        0x011022d4:    65645f74    t_de    DCD    1701076852
        0x011022d8:    65636976    vice    DCD    1701013878
        0x011022dc:    65706f5f    _ope    DCD    1701867359
        0x011022e0:    7573206e    n su    DCD    1970479214
        0x011022e4:    73656363    cces    DCD    1936024419
        0x011022e8:    6c756673    sful    DCD    1819633267
        0x011022ec:    0000000a    ....    DCD    10
    $t
    i.audio_out_disable
    audio_out_disable
        0x011022f0:    b510        ..      PUSH     {r4,lr}
        0x011022f2:    4603        .F      MOV      r3,r0
        0x011022f4:    2000        .       MOVS     r0,#0
        0x011022f6:    f001f813    ....    BL       i2stx_if_op ; 0x1103320
        0x011022fa:    4618        .F      MOV      r0,r3
        0x011022fc:    f003f93a    ..:.    BL       stop_i2s_tx_dma ; 0x1105574
        0x01102300:    bd10        ..      POP      {r4,pc}
        0x01102302:    0000        ..      MOVS     r0,r0
    i.audio_out_dma_isr
    audio_out_dma_isr
        0x01102304:    2000        .       MOVS     r0,#0
        0x01102306:    2a01        .*      CMP      r2,#1
        0x01102308:    d002        ..      BEQ      0x1102310 ; audio_out_dma_isr + 12
        0x0110230a:    2a00        .*      CMP      r2,#0
        0x0110230c:    d002        ..      BEQ      0x1102314 ; audio_out_dma_isr + 16
        0x0110230e:    e003        ..      B        0x1102318 ; audio_out_dma_isr + 20
        0x01102310:    2004        .       MOVS     r0,#4
        0x01102312:    e003        ..      B        0x110231c ; audio_out_dma_isr + 24
        0x01102314:    2108        .!      MOVS     r1,#8
        0x01102316:    4308        .C      ORRS     r0,r0,r1
        0x01102318:    2800        .(      CMP      r0,#0
        0x0110231a:    d004        ..      BEQ      0x1102326 ; audio_out_dma_isr + 34
        0x0110231c:    4902        .I      LDR      r1,[pc,#8] ; [0x1102328] = 0x200022e0
        0x0110231e:    6809        .h      LDR      r1,[r1,#0]
        0x01102320:    2900        .)      CMP      r1,#0
        0x01102322:    d000        ..      BEQ      0x1102326 ; audio_out_dma_isr + 34
        0x01102324:    4708        .G      BX       r1
        0x01102326:    4770        pG      BX       lr
    $d
        0x01102328:    200022e0    .".     DCD    536879840
    $t
    i.audio_out_enable
    audio_out_enable
        0x0110232c:    b51c        ..      PUSH     {r2-r4,lr}
        0x0110232e:    227d        }"      MOVS     r2,#0x7d
        0x01102330:    4604        .F      MOV      r4,r0
        0x01102332:    0192        ..      LSLS     r2,r2,#6
        0x01102334:    f001fc20    .. .    BL       mfp_cfg_i2stx ; 0x1103b78
        0x01102338:    2300        .#      MOVS     r3,#0
        0x0110233a:    4619        .F      MOV      r1,r3
        0x0110233c:    4618        .F      MOV      r0,r3
        0x0110233e:    f000ffb9    ....    BL       i2stx0_clk_cfg ; 0x11032b4
        0x01102342:    2100        .!      MOVS     r1,#0
        0x01102344:    9100        ..      STR      r1,[sp,#0]
        0x01102346:    460b        .F      MOV      r3,r1
        0x01102348:    2202        ."      MOVS     r2,#2
        0x0110234a:    4608        .F      MOV      r0,r1
        0x0110234c:    9101        ..      STR      r1,[sp,#4]
        0x0110234e:    f000ffcf    ....    BL       i2stx0_if_init ; 0x11032f0
        0x01102352:    4806        .H      LDR      r0,[pc,#24] ; [0x110236c] = 0x40015008
        0x01102354:    2113        .!      MOVS     r1,#0x13
        0x01102356:    6001        .`      STR      r1,[r0,#0]
        0x01102358:    4620         F      MOV      r0,r4
        0x0110235a:    f003f8b5    ....    BL       start_i2s_tx_dma ; 0x11054c8
        0x0110235e:    2001        .       MOVS     r0,#1
        0x01102360:    f000ffde    ....    BL       i2stx_if_op ; 0x1103320
        0x01102364:    a002        ..      ADR      r0,{pc}+0xc ; 0x1102370
        0x01102366:    f7fefe9f    ....    BL       $Ven$TT$L$$printk ; 0x11010a8
        0x0110236a:    bd1c        ..      POP      {r2-r4,pc}
    $d
        0x0110236c:    40015008    .P.@    DCD    1073827848
        0x01102370:    69647561    audi    DCD    1768191329
        0x01102374:    756f5f6f    o_ou    DCD    1970233199
        0x01102378:    6e655f74    t_en    DCD    1852137332
        0x0110237c:    656c6261    able    DCD    1701601889
        0x01102380:    00000a20     ...    DCD    2592
    $t
    i.audio_out_init
    audio_out_init
        0x01102384:    b510        ..      PUSH     {r4,lr}
        0x01102386:    6884        .h      LDR      r4,[r0,#8]
        0x01102388:    a005        ..      ADR      r0,{pc}+0x18 ; 0x11023a0
        0x0110238a:    f000fda3    ....    BL       device_get_binding ; 0x1102ed4
        0x0110238e:    6020         `      STR      r0,[r4,#0]
        0x01102390:    2800        .(      CMP      r0,#0
        0x01102392:    d001        ..      BEQ      0x1102398 ; audio_out_init + 20
        0x01102394:    2000        .       MOVS     r0,#0
        0x01102396:    bd10        ..      POP      {r4,pc}
        0x01102398:    2012        .       MOVS     r0,#0x12
        0x0110239a:    43c0        .C      MVNS     r0,r0
        0x0110239c:    bd10        ..      POP      {r4,pc}
    $d
        0x0110239e:    0000        ..      DCW    0
        0x011023a0:    5f414d44    DMA_    DCD    1598115140
        0x011023a4:    00000030    0...    DCD    48
    $t
    i.audio_out_pcmbuf_config
    audio_out_pcmbuf_config
        0x011023a8:    b5ff        ..      PUSH     {r0-r7,lr}
        0x011023aa:    b091        ..      SUB      sp,sp,#0x44
        0x011023ac:    460c        .F      MOV      r4,r1
        0x011023ae:    4607        .F      MOV      r7,r0
        0x011023b0:    4616        .F      MOV      r6,r2
        0x011023b2:    211c        .!      MOVS     r1,#0x1c
        0x011023b4:    a801        ..      ADD      r0,sp,#4
        0x011023b6:    f7fefd82    ....    BL       __aeabi_memclr ; 0x1100ebe
        0x011023ba:    2120         !      MOVS     r1,#0x20
        0x011023bc:    a808        ..      ADD      r0,sp,#0x20
        0x011023be:    f7fefd7e    ..~.    BL       __aeabi_memclr ; 0x1100ebe
        0x011023c2:    6838        8h      LDR      r0,[r7,#0]
        0x011023c4:    68b9        .h      LDR      r1,[r7,#8]
        0x011023c6:    68c5        .h      LDR      r5,[r0,#0xc]
        0x011023c8:    7aa0        .z      LDRB     r0,[r4,#0xa]
        0x011023ca:    2800        .(      CMP      r0,#0
        0x011023cc:    d102        ..      BNE      0x11023d4 ; audio_out_pcmbuf_config + 44
        0x011023ce:    7ae0        .z      LDRB     r0,[r4,#0xb]
        0x011023d0:    2800        .(      CMP      r0,#0
        0x011023d2:    d049        I.      BEQ      0x1102468 ; audio_out_pcmbuf_config + 192
        0x011023d4:    6820         h      LDR      r0,[r4,#0]
        0x011023d6:    2800        .(      CMP      r0,#0
        0x011023d8:    d005        ..      BEQ      0x11023e6 ; audio_out_pcmbuf_config + 62
        0x011023da:    4a26        &J      LDR      r2,[pc,#152] ; [0x1102474] = 0x200022e0
        0x011023dc:    6010        .`      STR      r0,[r2,#0]
        0x011023de:    4826        &H      LDR      r0,[pc,#152] ; [0x1102478] = 0x1102305
        0x011023e0:    9006        ..      STR      r0,[sp,#0x18]
        0x011023e2:    2000        .       MOVS     r0,#0
        0x011023e4:    9007        ..      STR      r0,[sp,#0x1c]
        0x011023e6:    7aa0        .z      LDRB     r0,[r4,#0xa]
        0x011023e8:    2800        .(      CMP      r0,#0
        0x011023ea:    d004        ..      BEQ      0x11023f6 ; audio_out_pcmbuf_config + 78
        0x011023ec:    2201        ."      MOVS     r2,#1
        0x011023ee:    9801        ..      LDR      r0,[sp,#4]
        0x011023f0:    0292        ..      LSLS     r2,r2,#10
        0x011023f2:    4310        .C      ORRS     r0,r0,r2
        0x011023f4:    9001        ..      STR      r0,[sp,#4]
        0x011023f6:    7ae0        .z      LDRB     r0,[r4,#0xb]
        0x011023f8:    2800        .(      CMP      r0,#0
        0x011023fa:    d004        ..      BEQ      0x1102406 ; audio_out_pcmbuf_config + 94
        0x011023fc:    2201        ."      MOVS     r2,#1
        0x011023fe:    9801        ..      LDR      r0,[sp,#4]
        0x01102400:    0252        R.      LSLS     r2,r2,#9
        0x01102402:    4310        .C      ORRS     r0,r0,r2
        0x01102404:    9001        ..      STR      r0,[sp,#4]
        0x01102406:    2002        .       MOVS     r0,#2
        0x01102408:    466a        jF      MOV      r2,sp
        0x0110240a:    8110        ..      STRH     r0,[r2,#8]
        0x0110240c:    8150        P.      STRH     r0,[r2,#0xa]
        0x0110240e:    2001        .       MOVS     r0,#1
        0x01102410:    9004        ..      STR      r0,[sp,#0x10]
        0x01102412:    a808        ..      ADD      r0,sp,#0x20
        0x01102414:    9005        ..      STR      r0,[sp,#0x14]
        0x01102416:    9801        ..      LDR      r0,[sp,#4]
        0x01102418:    782a        *x      LDRB     r2,[r5,#0]
        0x0110241a:    0980        ..      LSRS     r0,r0,#6
        0x0110241c:    0692        ..      LSLS     r2,r2,#26
        0x0110241e:    0180        ..      LSLS     r0,r0,#6
        0x01102420:    0e92        ..      LSRS     r2,r2,#26
        0x01102422:    4310        .C      ORRS     r0,r0,r2
        0x01102424:    22ff        ."      MOVS     r2,#0xff
        0x01102426:    32c1        .2      ADDS     r2,r2,#0xc1
        0x01102428:    4390        .C      BICS     r0,r0,r2
        0x0110242a:    3040        @0      ADDS     r0,r0,#0x40
        0x0110242c:    9001        ..      STR      r0,[sp,#4]
        0x0110242e:    4813        .H      LDR      r0,[pc,#76] ; [0x110247c] = 0x40015010
        0x01102430:    900a        ..      STR      r0,[sp,#0x28]
        0x01102432:    9608        ..      STR      r6,[sp,#0x20]
        0x01102434:    9814        ..      LDR      r0,[sp,#0x50]
        0x01102436:    466a        jF      MOV      r2,sp
        0x01102438:    900d        ..      STR      r0,[sp,#0x34]
        0x0110243a:    8f90        ..      LDRH     r0,[r2,#0x3c]
        0x0110243c:    22c0        ."      MOVS     r2,#0xc0
        0x0110243e:    4310        .C      ORRS     r0,r0,r2
        0x01102440:    466a        jF      MOV      r2,sp
        0x01102442:    8790        ..      STRH     r0,[r2,#0x3c]
        0x01102444:    6808        .h      LDR      r0,[r1,#0]
        0x01102446:    2101        .!      MOVS     r1,#1
        0x01102448:    6843        Ch      LDR      r3,[r0,#4]
        0x0110244a:    5669        iV      LDRSB    r1,[r5,r1]
        0x0110244c:    691b        .i      LDR      r3,[r3,#0x10]
        0x0110244e:    aa01        ..      ADD      r2,sp,#4
        0x01102450:    4798        .G      BLX      r3
        0x01102452:    2800        .(      CMP      r0,#0
        0x01102454:    d00a        ..      BEQ      0x110246c ; audio_out_pcmbuf_config + 196
        0x01102456:    a00a        ..      ADR      r0,{pc}+0x2a ; 0x1102480
        0x01102458:    9000        ..      STR      r0,[sp,#0]
        0x0110245a:    2301        .#      MOVS     r3,#1
        0x0110245c:    56eb        .V      LDRSB    r3,[r5,r3]
        0x0110245e:    a208        ..      ADR      r2,{pc}+0x22 ; 0x1102480
        0x01102460:    a108        ..      ADR      r1,{pc}+0x24 ; 0x1102484
        0x01102462:    a00a        ..      ADR      r0,{pc}+0x2a ; 0x110248c
        0x01102464:    f7fefe20    .. .    BL       $Ven$TT$L$$printk ; 0x11010a8
        0x01102468:    b015        ..      ADD      sp,sp,#0x54
        0x0110246a:    bdf0        ..      POP      {r4-r7,pc}
        0x0110246c:    a00f        ..      ADR      r0,{pc}+0x40 ; 0x11024ac
        0x0110246e:    f7fefe1b    ....    BL       $Ven$TT$L$$printk ; 0x11010a8
        0x01102472:    e7f9        ..      B        0x1102468 ; audio_out_pcmbuf_config + 192
    $d
        0x01102474:    200022e0    .".     DCD    536879840
        0x01102478:    01102305    .#..    DCD    17834757
        0x0110247c:    40015010    .P.@    DCD    1073827856
        0x01102480:    00000000    ....    DCD    0
        0x01102484:    69647561    audi    DCD    1768191329
        0x01102488:    0000006f    o...    DCD    111
        0x0110248c:    5d73255b    [%s]    DCD    1567827291
        0x01102490:    64732520     %sd    DCD    1685267744
        0x01102494:    6425616d    ma%d    DCD    1680171373
        0x01102498:    6e6f6320     con    DCD    1852793632
        0x0110249c:    20676966    fig     DCD    543648102
        0x011024a0:    6f727265    erro    DCD    1869771365
        0x011024a4:    0a732572    r%s.    DCD    175318386
        0x011024a8:    00000000    ....    DCD    0
        0x011024ac:    69647561    audi    DCD    1768191329
        0x011024b0:    756f5f6f    o_ou    DCD    1970233199
        0x011024b4:    63705f74    t_pc    DCD    1668308852
        0x011024b8:    6675626d    mbuf    DCD    1718968941
        0x011024bc:    6e6f635f    _con    DCD    1852793695
        0x011024c0:    20676966    fig     DCD    543648102
        0x011024c4:    0000000a    ....    DCD    10
    $t
    i.audio_out_pcmbuf_transfer_config
    audio_out_pcmbuf_transfer_config
        0x011024c8:    b51f        ..      PUSH     {r0-r4,lr}
        0x011024ca:    2300        .#      MOVS     r3,#0
        0x011024cc:    9301        ..      STR      r3,[sp,#4]
        0x011024ce:    9302        ..      STR      r3,[sp,#8]
        0x011024d0:    9303        ..      STR      r3,[sp,#0xc]
        0x011024d2:    6803        .h      LDR      r3,[r0,#0]
        0x011024d4:    6880        .h      LDR      r0,[r0,#8]
        0x011024d6:    68dc        .h      LDR      r4,[r3,#0xc]
        0x011024d8:    9102        ..      STR      r1,[sp,#8]
        0x011024da:    490b        .I      LDR      r1,[pc,#44] ; [0x1102508] = 0x40015010
        0x011024dc:    9201        ..      STR      r2,[sp,#4]
        0x011024de:    9103        ..      STR      r1,[sp,#0xc]
        0x011024e0:    6800        .h      LDR      r0,[r0,#0]
        0x011024e2:    2101        .!      MOVS     r1,#1
        0x011024e4:    6843        Ch      LDR      r3,[r0,#4]
        0x011024e6:    5661        aV      LDRSB    r1,[r4,r1]
        0x011024e8:    685b        [h      LDR      r3,[r3,#4]
        0x011024ea:    aa01        ..      ADD      r2,sp,#4
        0x011024ec:    4798        .G      BLX      r3
        0x011024ee:    2800        .(      CMP      r0,#0
        0x011024f0:    d008        ..      BEQ      0x1102504 ; audio_out_pcmbuf_transfer_config + 60
        0x011024f2:    a006        ..      ADR      r0,{pc}+0x1a ; 0x110250c
        0x011024f4:    9000        ..      STR      r0,[sp,#0]
        0x011024f6:    2301        .#      MOVS     r3,#1
        0x011024f8:    56e3        .V      LDRSB    r3,[r4,r3]
        0x011024fa:    a204        ..      ADR      r2,{pc}+0x12 ; 0x110250c
        0x011024fc:    a104        ..      ADR      r1,{pc}+0x14 ; 0x1102510
        0x011024fe:    a006        ..      ADR      r0,{pc}+0x1a ; 0x1102518
        0x01102500:    f7fefdd2    ....    BL       $Ven$TT$L$$printk ; 0x11010a8
        0x01102504:    bd1f        ..      POP      {r0-r4,pc}
    $d
        0x01102506:    0000        ..      DCW    0
        0x01102508:    40015010    .P.@    DCD    1073827856
        0x0110250c:    00000000    ....    DCD    0
        0x01102510:    69647561    audi    DCD    1768191329
        0x01102514:    0000006f    o...    DCD    111
        0x01102518:    5d73255b    [%s]    DCD    1567827291
        0x0110251c:    64732520     %sd    DCD    1685267744
        0x01102520:    6425616d    ma%d    DCD    1680171373
        0x01102524:    61727420     tra    DCD    1634890784
        0x01102528:    6566736e    nsfe    DCD    1701213038
        0x0110252c:    6f635f72    r_co    DCD    1868783474
        0x01102530:    6769666e    nfig    DCD    1734960750
        0x01102534:    72726520     err    DCD    1920099616
        0x01102538:    7325726f    or%s    DCD    1931833967
        0x0110253c:    0000000a    ....    DCD    10
    $t
    i.audio_out_start_playback
    audio_out_start_playback
        0x01102540:    b570        p.      PUSH     {r4-r6,lr}
        0x01102542:    b086        ..      SUB      sp,sp,#0x18
        0x01102544:    2500        .%      MOVS     r5,#0
        0x01102546:    4604        .F      MOV      r4,r0
        0x01102548:    9503        ..      STR      r5,[sp,#0xc]
        0x0110254a:    7a00        .z      LDRB     r0,[r0,#8]
        0x0110254c:    4669        iF      MOV      r1,sp
        0x0110254e:    7308        .s      STRB     r0,[r1,#0xc]
        0x01102550:    2002        .       MOVS     r0,#2
        0x01102552:    7408        .t      STRB     r0,[r1,#0x10]
        0x01102554:    7348        Hs      STRB     r0,[r1,#0xd]
        0x01102556:    200a        .       MOVS     r0,#0xa
        0x01102558:    7448        Ht      STRB     r0,[r1,#0x11]
        0x0110255a:    480c        .H      LDR      r0,[pc,#48] ; [0x110258c] = 0x11026d1
        0x0110255c:    2601        .&      MOVS     r6,#1
        0x0110255e:    9000        ..      STR      r0,[sp,#0]
        0x01102560:    728e        .r      STRB     r6,[r1,#0xa]
        0x01102562:    72ce        .r      STRB     r6,[r1,#0xb]
        0x01102564:    69e0        .i      LDR      r0,[r4,#0x1c]
        0x01102566:    69a2        .i      LDR      r2,[r4,#0x18]
        0x01102568:    0fc1        ..      LSRS     r1,r0,#31
        0x0110256a:    1808        ..      ADDS     r0,r1,r0
        0x0110256c:    1043        C.      ASRS     r3,r0,#1
        0x0110256e:    4669        iF      MOV      r1,sp
        0x01102570:    6820         h      LDR      r0,[r4,#0]
        0x01102572:    f7ffff19    ....    BL       audio_out_pcmbuf_config ; 0x11023a8
        0x01102576:    aa03        ..      ADD      r2,sp,#0xc
        0x01102578:    a904        ..      ADD      r1,sp,#0x10
        0x0110257a:    6820         h      LDR      r0,[r4,#0]
        0x0110257c:    f7fffed6    ....    BL       audio_out_enable ; 0x110232c
        0x01102580:    6125        %a      STR      r5,[r4,#0x10]
        0x01102582:    7526        &u      STRB     r6,[r4,#0x14]
        0x01102584:    60e5        .`      STR      r5,[r4,#0xc]
        0x01102586:    2000        .       MOVS     r0,#0
        0x01102588:    b006        ..      ADD      sp,sp,#0x18
        0x0110258a:    bd70        p.      POP      {r4-r6,pc}
    $d
        0x0110258c:    011026d1    .&..    DCD    17835729
    $t
    i.audio_out_stop_playback
    audio_out_stop_playback
        0x01102590:    b570        p.      PUSH     {r4-r6,lr}
        0x01102592:    2500        .%      MOVS     r5,#0
        0x01102594:    4604        .F      MOV      r4,r0
        0x01102596:    7505        .u      STRB     r5,[r0,#0x14]
        0x01102598:    6800        .h      LDR      r0,[r0,#0]
        0x0110259a:    f7fffea9    ....    BL       audio_out_disable ; 0x11022f0
        0x0110259e:    2010        .       MOVS     r0,#0x10
        0x011025a0:    f7feff0e    ....    BL       $Ven$TT$L$$acts_reset_peripheral ; 0x11013c0
        0x011025a4:    2c00        .,      CMP      r4,#0
        0x011025a6:    d00e        ..      BEQ      0x11025c6 ; audio_out_stop_playback + 54
        0x011025a8:    6a60        `j      LDR      r0,[r4,#0x24]
        0x011025aa:    2800        .(      CMP      r0,#0
        0x011025ac:    d00b        ..      BEQ      0x11025c6 ; audio_out_stop_playback + 54
        0x011025ae:    2100        .!      MOVS     r1,#0
        0x011025b0:    6a60        `j      LDR      r0,[r4,#0x24]
        0x011025b2:    f7feff65    ..e.    BL       $Ven$TT$L$$net_buf_get ; 0x1101480
        0x011025b6:    2800        .(      CMP      r0,#0
        0x011025b8:    d005        ..      BEQ      0x11025c6 ; audio_out_stop_playback + 54
        0x011025ba:    f7feff67    ..g.    BL       $Ven$TT$L$$net_buf_unref ; 0x110148c
        0x011025be:    a004        ..      ADR      r0,{pc}+0x12 ; 0x11025d0
        0x011025c0:    f7fefd72    ..r.    BL       $Ven$TT$L$$printk ; 0x11010a8
        0x011025c4:    e7f3        ..      B        0x11025ae ; audio_out_stop_playback + 30
        0x011025c6:    60e5        .`      STR      r5,[r4,#0xc]
        0x011025c8:    2000        .       MOVS     r0,#0
        0x011025ca:    6125        %a      STR      r5,[r4,#0x10]
        0x011025cc:    bd70        p.      POP      {r4-r6,pc}
    $d
        0x011025ce:    0000        ..      DCW    0
        0x011025d0:    65657266    free    DCD    1701147238
        0x011025d4:    65766f20     ove    DCD    1702260512
        0x011025d8:    6f6c6672    rflo    DCD    1869375090
        0x011025dc:    75622077    w bu    DCD    1969365111
        0x011025e0:    72656666    ffer    DCD    1919247974
        0x011025e4:    0000000a    ....    DCD    10
    $t
    i.audio_pcm_buf_cbk
    audio_pcm_buf_cbk
        0x011025e8:    b5fe        ..      PUSH     {r1-r7,lr}
        0x011025ea:    4e25        %N      LDR      r6,[pc,#148] ; [0x1102680] = 0x200021b4
        0x011025ec:    6831        1h      LDR      r1,[r6,#0]
        0x011025ee:    2900        .)      CMP      r1,#0
        0x011025f0:    d019        ..      BEQ      0x1102626 ; audio_pcm_buf_cbk + 62
        0x011025f2:    7d0a        .}      LDRB     r2,[r1,#0x14]
        0x011025f4:    2a00        .*      CMP      r2,#0
        0x011025f6:    d016        ..      BEQ      0x1102626 ; audio_pcm_buf_cbk + 62
        0x011025f8:    0702        ..      LSLS     r2,r0,#28
        0x011025fa:    0f92        ..      LSRS     r2,r2,#30
        0x011025fc:    d013        ..      BEQ      0x1102626 ; audio_pcm_buf_cbk + 62
        0x011025fe:    0740        @.      LSLS     r0,r0,#29
        0x01102600:    2500        .%      MOVS     r5,#0
        0x01102602:    2800        .(      CMP      r0,#0
        0x01102604:    da13        ..      BGE      0x110262e ; audio_pcm_buf_cbk + 70
        0x01102606:    6a08        .j      LDR      r0,[r1,#0x20]
        0x01102608:    2100        .!      MOVS     r1,#0
        0x0110260a:    f7feff45    ..E.    BL       $Ven$TT$L$$net_buf_alloc ; 0x1101498
        0x0110260e:    0004        ..      MOVS     r4,r0
        0x01102610:    d00a        ..      BEQ      0x1102628 ; audio_pcm_buf_cbk + 64
        0x01102612:    6830        0h      LDR      r0,[r6,#0]
        0x01102614:    89e2        ..      LDRH     r2,[r4,#0xe]
        0x01102616:    68a1        .h      LDR      r1,[r4,#8]
        0x01102618:    6800        .h      LDR      r0,[r0,#0]
        0x0110261a:    f7feff43    ..C.    BL       $Ven$TT$L$$audio_in_pcmbuf_transfer_config ; 0x11014a4
        0x0110261e:    6830        0h      LDR      r0,[r6,#0]
        0x01102620:    6981        .i      LDR      r1,[r0,#0x18]
        0x01102622:    6184        .a      STR      r4,[r0,#0x18]
        0x01102624:    61c1        .a      STR      r1,[r0,#0x1c]
        0x01102626:    bdfe        ..      POP      {r1-r7,pc}
        0x01102628:    6830        0h      LDR      r0,[r6,#0]
        0x0110262a:    61c5        .a      STR      r5,[r0,#0x1c]
        0x0110262c:    bdfe        ..      POP      {r1-r7,pc}
        0x0110262e:    69c8        .i      LDR      r0,[r1,#0x1c]
        0x01102630:    2800        .(      CMP      r0,#0
        0x01102632:    d01d        ..      BEQ      0x1102670 ; audio_pcm_buf_cbk + 136
        0x01102634:    89c1        ..      LDRH     r1,[r0,#0xe]
        0x01102636:    3008        .0      ADDS     r0,r0,#8
        0x01102638:    f7feff3a    ..:.    BL       $Ven$TT$L$$net_buf_simple_add ; 0x11014b0
        0x0110263c:    9500        ..      STR      r5,[sp,#0]
        0x0110263e:    9501        ..      STR      r5,[sp,#4]
        0x01102640:    2004        .       MOVS     r0,#4
        0x01102642:    4669        iF      MOV      r1,sp
        0x01102644:    9502        ..      STR      r5,[sp,#8]
        0x01102646:    7048        Hp      STRB     r0,[r1,#1]
        0x01102648:    6830        0h      LDR      r0,[r6,#0]
        0x0110264a:    2100        .!      MOVS     r1,#0
        0x0110264c:    69c0        .i      LDR      r0,[r0,#0x1c]
        0x0110264e:    9001        ..      STR      r0,[sp,#4]
        0x01102650:    4668        hF      MOV      r0,sp
        0x01102652:    f002fc9f    ....    BL       send_msg ; 0x1104f94
        0x01102656:    2800        .(      CMP      r0,#0
        0x01102658:    d1e8        ..      BNE      0x110262c ; audio_pcm_buf_cbk + 68
        0x0110265a:    a30a        ..      ADR      r3,{pc}+0x2a ; 0x1102684
        0x0110265c:    a209        ..      ADR      r2,{pc}+0x28 ; 0x1102684
        0x0110265e:    a10a        ..      ADR      r1,{pc}+0x2a ; 0x1102688
        0x01102660:    a00b        ..      ADR      r0,{pc}+0x30 ; 0x1102690
        0x01102662:    f7fefd21    ..!.    BL       $Ven$TT$L$$printk ; 0x11010a8
        0x01102666:    6830        0h      LDR      r0,[r6,#0]
        0x01102668:    69c0        .i      LDR      r0,[r0,#0x1c]
        0x0110266a:    f7feff0f    ....    BL       $Ven$TT$L$$net_buf_unref ; 0x110148c
        0x0110266e:    bdfe        ..      POP      {r1-r7,pc}
        0x01102670:    a304        ..      ADR      r3,{pc}+0x14 ; 0x1102684
        0x01102672:    a204        ..      ADR      r2,{pc}+0x12 ; 0x1102684
        0x01102674:    a104        ..      ADR      r1,{pc}+0x14 ; 0x1102688
        0x01102676:    a010        ..      ADR      r0,{pc}+0x42 ; 0x11026b8
        0x01102678:    f7fefd16    ....    BL       $Ven$TT$L$$printk ; 0x11010a8
        0x0110267c:    bdfe        ..      POP      {r1-r7,pc}
    $d
        0x0110267e:    0000        ..      DCW    0
        0x01102680:    200021b4    .!.     DCD    536879540
        0x01102684:    00000000    ....    DCD    0
        0x01102688:    69647561    audi    DCD    1768191329
        0x0110268c:    0000006f    o...    DCD    111
        0x01102690:    5d73255b    [%s]    DCD    1567827291
        0x01102694:    66732520     %sf    DCD    1718822176
        0x01102698:    20656572    ree     DCD    543516018
        0x0110269c:    20667562    buf     DCD    543585634
        0x011026a0:    6e656877    when    DCD    1852139639
        0x011026a4:    6e657320     sen    DCD    1852142368
        0x011026a8:    736d2064    d ms    DCD    1936531556
        0x011026ac:    61662067    g fa    DCD    1634082919
        0x011026b0:    64656c69    iled    DCD    1684368489
        0x011026b4:    000a7325    %s..    DCD    684837
        0x011026b8:    5d73255b    [%s]    DCD    1567827291
        0x011026bc:    64732520     %sd    DCD    1685267744
        0x011026c0:    20706f72    rop     DCD    544239474
        0x011026c4:    66667562    buff    DCD    1717990754
        0x011026c8:    73257265    er%s    DCD    1931833957
        0x011026cc:    0000000a    ....    DCD    10
    $t
    i.audio_pcm_buf_cbk
    audio_pcm_buf_cbk
        0x011026d0:    b570        p.      PUSH     {r4-r6,lr}
        0x011026d2:    491a        .I      LDR      r1,[pc,#104] ; [0x110273c] = 0x200021b8
        0x011026d4:    680c        .h      LDR      r4,[r1,#0]
        0x011026d6:    2c00        .,      CMP      r4,#0
        0x011026d8:    d015        ..      BEQ      0x1102706 ; audio_pcm_buf_cbk + 54
        0x011026da:    7d21        !}      LDRB     r1,[r4,#0x14]
        0x011026dc:    2900        .)      CMP      r1,#0
        0x011026de:    d012        ..      BEQ      0x1102706 ; audio_pcm_buf_cbk + 54
        0x011026e0:    0701        ..      LSLS     r1,r0,#28
        0x011026e2:    0f89        ..      LSRS     r1,r1,#30
        0x011026e4:    d00f        ..      BEQ      0x1102706 ; audio_pcm_buf_cbk + 54
        0x011026e6:    0740        @.      LSLS     r0,r0,#29
        0x011026e8:    d50e        ..      BPL      0x1102708 ; audio_pcm_buf_cbk + 56
        0x011026ea:    69e1        .i      LDR      r1,[r4,#0x1c]
        0x011026ec:    6920         i      LDR      r0,[r4,#0x10]
        0x011026ee:    0fca        ..      LSRS     r2,r1,#31
        0x011026f0:    1855        U.      ADDS     r5,r2,r1
        0x011026f2:    106a        j.      ASRS     r2,r5,#1
        0x011026f4:    1880        ..      ADDS     r0,r0,r2
        0x011026f6:    f7fefe57    ..W.    BL       $Ven$TT$L$$__aeabi_idivmod ; 0x11013a8
        0x011026fa:    69a0        .i      LDR      r0,[r4,#0x18]
        0x011026fc:    106a        j.      ASRS     r2,r5,#1
        0x011026fe:    1809        ..      ADDS     r1,r1,r0
        0x01102700:    6820         h      LDR      r0,[r4,#0]
        0x01102702:    f7fffee1    ....    BL       audio_out_pcmbuf_transfer_config ; 0x11024c8
        0x01102706:    bd70        p.      POP      {r4-r6,pc}
        0x01102708:    6921        !i      LDR      r1,[r4,#0x10]
        0x0110270a:    2000        .       MOVS     r0,#0
        0x0110270c:    2900        .)      CMP      r1,#0
        0x0110270e:    d00f        ..      BEQ      0x1102730 ; audio_pcm_buf_cbk + 96
        0x01102710:    6120         a      STR      r0,[r4,#0x10]
        0x01102712:    4c0c        .L      LDR      r4,[pc,#48] ; [0x1102744] = 0x200063c0
        0x01102714:    4d0a        .M      LDR      r5,[pc,#40] ; [0x1102740] = 0x200009cc
        0x01102716:    4620         F      MOV      r0,r4
        0x01102718:    3008        .0      ADDS     r0,r0,#8
        0x0110271a:    2101        .!      MOVS     r1,#1
        0x0110271c:    f7fefe92    ....    BL       $Ven$TT$L$$atomic_or ; 0x1101444
        0x01102720:    07c0        ..      LSLS     r0,r0,#31
        0x01102722:    0fc0        ..      LSRS     r0,r0,#31
        0x01102724:    d1ef        ..      BNE      0x1102706 ; audio_pcm_buf_cbk + 54
        0x01102726:    4621        !F      MOV      r1,r4
        0x01102728:    4628        (F      MOV      r0,r5
        0x0110272a:    f7fefec7    ....    BL       $Ven$TT$L$$k_queue_append ; 0x11014bc
        0x0110272e:    bd70        p.      POP      {r4-r6,pc}
        0x01102730:    69e0        .i      LDR      r0,[r4,#0x1c]
        0x01102732:    0fc1        ..      LSRS     r1,r0,#31
        0x01102734:    1808        ..      ADDS     r0,r1,r0
        0x01102736:    1040        @.      ASRS     r0,r0,#1
        0x01102738:    e7ea        ..      B        0x1102710 ; audio_pcm_buf_cbk + 64
    $d
        0x0110273a:    0000        ..      DCW    0
        0x0110273c:    200021b8    .!.     DCD    536879544
        0x01102740:    200009cc    ...     DCD    536873420
        0x01102744:    200063c0    .c.     DCD    536896448
    $t
    i.audio_send_start_flag
    audio_send_start_flag
        0x01102748:    b538        8.      PUSH     {r3-r5,lr}
        0x0110274a:    4c12        .L      LDR      r4,[pc,#72] ; [0x1102794] = 0x20001af0
        0x0110274c:    2500        .%      MOVS     r5,#0
        0x0110274e:    79e0        .y      LDRB     r0,[r4,#7]
        0x01102750:    2800        .(      CMP      r0,#0
        0x01102752:    d00e        ..      BEQ      0x1102772 ; audio_send_start_flag + 42
        0x01102754:    4621        !F      MOV      r1,r4
        0x01102756:    391c        .9      SUBS     r1,r1,#0x1c
        0x01102758:    6909        .i      LDR      r1,[r1,#0x10]
        0x0110275a:    5f60        `_      LDRSH    r0,[r4,r5]
        0x0110275c:    4788        .G      BLX      r1
        0x0110275e:    8060        `.      STRH     r0,[r4,#2]
        0x01102760:    71e5        .q      STRB     r5,[r4,#7]
        0x01102762:    a10d        ..      ADR      r1,{pc}+0x36 ; 0x1102798
        0x01102764:    4603        .F      MOV      r3,r0
        0x01102766:    9100        ..      STR      r1,[sp,#0]
        0x01102768:    a20b        ..      ADR      r2,{pc}+0x30 ; 0x1102798
        0x0110276a:    a10c        ..      ADR      r1,{pc}+0x32 ; 0x110279c
        0x0110276c:    a00d        ..      ADR      r0,{pc}+0x38 ; 0x11027a4
        0x0110276e:    f7fefc9b    ....    BL       $Ven$TT$L$$printk ; 0x11010a8
        0x01102772:    7920         y      LDRB     r0,[r4,#4]
        0x01102774:    2800        .(      CMP      r0,#0
        0x01102776:    d00b        ..      BEQ      0x1102790 ; audio_send_start_flag + 72
        0x01102778:    4811        .H      LDR      r0,[pc,#68] ; [0x11027c0] = 0x20e
        0x0110277a:    f000fd59    ..Y.    BL       hid_app_remote_report_event ; 0x1103230
        0x0110277e:    2800        .(      CMP      r0,#0
        0x01102780:    d106        ..      BNE      0x1102790 ; audio_send_start_flag + 72
        0x01102782:    7125        %q      STRB     r5,[r4,#4]
        0x01102784:    a304        ..      ADR      r3,{pc}+0x14 ; 0x1102798
        0x01102786:    a204        ..      ADR      r2,{pc}+0x12 ; 0x1102798
        0x01102788:    a104        ..      ADR      r1,{pc}+0x14 ; 0x110279c
        0x0110278a:    a00e        ..      ADR      r0,{pc}+0x3a ; 0x11027c4
        0x0110278c:    f7fefc8c    ....    BL       $Ven$TT$L$$printk ; 0x11010a8
        0x01102790:    bd38        8.      POP      {r3-r5,pc}
    $d
        0x01102792:    0000        ..      DCW    0
        0x01102794:    20001af0    ...     DCD    536877808
        0x01102798:    00000000    ....    DCD    0
        0x0110279c:    656e6567    gene    DCD    1701733735
        0x011027a0:    006c6172    ral.    DCD    7102834
        0x011027a4:    5d73255b    [%s]    DCD    1567827291
        0x011027a8:    73732520     %ss    DCD    1936925984
        0x011027ac:    6c706d61    ampl    DCD    1819307361
        0x011027b0:    656c5f65    e_le    DCD    1701601125
        0x011027b4:    203a206e    n :     DCD    540680302
        0x011027b8:    73256425    %d%s    DCD    1931830309
        0x011027bc:    0000000a    ....    DCD    10
        0x011027c0:    0000020e    ....    DCD    526
        0x011027c4:    5d73255b    [%s]    DCD    1567827291
        0x011027c8:    73732520     %ss    DCD    1936925984
        0x011027cc:    20646e65    end     DCD    543452773
        0x011027d0:    69647561    audi    DCD    1768191329
        0x011027d4:    74735f6f    o_st    DCD    1953718127
        0x011027d8:    20747261    art     DCD    544502369
        0x011027dc:    67616c66    flag    DCD    1734437990
        0x011027e0:    000a7325    %s..    DCD    684837
    $t
    i.audio_send_stop_flag
    audio_send_stop_flag
        0x011027e4:    b510        ..      PUSH     {r4,lr}
        0x011027e6:    4c08        .L      LDR      r4,[pc,#32] ; [0x1102808] = 0x20001af0
        0x011027e8:    7960        `y      LDRB     r0,[r4,#5]
        0x011027ea:    2800        .(      CMP      r0,#0
        0x011027ec:    d00b        ..      BEQ      0x1102806 ; audio_send_stop_flag + 34
        0x011027ee:    4807        .H      LDR      r0,[pc,#28] ; [0x110280c] = 0xcccc
        0x011027f0:    f000fd1e    ....    BL       hid_app_remote_report_event ; 0x1103230
        0x011027f4:    2800        .(      CMP      r0,#0
        0x011027f6:    d106        ..      BNE      0x1102806 ; audio_send_stop_flag + 34
        0x011027f8:    7160        `q      STRB     r0,[r4,#5]
        0x011027fa:    a305        ..      ADR      r3,{pc}+0x16 ; 0x1102810
        0x011027fc:    a204        ..      ADR      r2,{pc}+0x14 ; 0x1102810
        0x011027fe:    a105        ..      ADR      r1,{pc}+0x16 ; 0x1102814
        0x01102800:    a006        ..      ADR      r0,{pc}+0x1c ; 0x110281c
        0x01102802:    f7fefc51    ..Q.    BL       $Ven$TT$L$$printk ; 0x11010a8
        0x01102806:    bd10        ..      POP      {r4,pc}
    $d
        0x01102808:    20001af0    ...     DCD    536877808
        0x0110280c:    0000cccc    ....    DCD    52428
        0x01102810:    00000000    ....    DCD    0
        0x01102814:    656e6567    gene    DCD    1701733735
        0x01102818:    006c6172    ral.    DCD    7102834
        0x0110281c:    5d73255b    [%s]    DCD    1567827291
        0x01102820:    73732520     %ss    DCD    1936925984
        0x01102824:    20646e65    end     DCD    543452773
        0x01102828:    69647561    audi    DCD    1768191329
        0x0110282c:    74735f6f    o_st    DCD    1953718127
        0x01102830:    6620706f    op f    DCD    1713401967
        0x01102834:    2567616c    lag%    DCD    627532140
        0x01102838:    00000a73    s...    DCD    2675
    $t
    i.audioin_device_open
    audioin_device_open
        0x0110283c:    b510        ..      PUSH     {r4,lr}
        0x0110283e:    4604        .F      MOV      r4,r0
        0x01102840:    a009        ..      ADR      r0,{pc}+0x28 ; 0x1102868
        0x01102842:    f000fb47    ..G.    BL       device_get_binding ; 0x1102ed4
        0x01102846:    0001        ..      MOVS     r1,r0
        0x01102848:    d005        ..      BEQ      0x1102856 ; audioin_device_open + 26
        0x0110284a:    4a0a        .J      LDR      r2,[pc,#40] ; [0x1102874] = 0x200021b4
        0x0110284c:    4808        .H      LDR      r0,[pc,#32] ; [0x1102870] = 0x20006370
        0x0110284e:    6010        .`      STR      r0,[r2,#0]
        0x01102850:    6084        .`      STR      r4,[r0,#8]
        0x01102852:    6001        .`      STR      r1,[r0,#0]
        0x01102854:    bd10        ..      POP      {r4,pc}
        0x01102856:    a308        ..      ADR      r3,{pc}+0x22 ; 0x1102878
        0x01102858:    a207        ..      ADR      r2,{pc}+0x20 ; 0x1102878
        0x0110285a:    a108        ..      ADR      r1,{pc}+0x22 ; 0x110287c
        0x0110285c:    a009        ..      ADR      r0,{pc}+0x28 ; 0x1102884
        0x0110285e:    f7fefc23    ..#.    BL       $Ven$TT$L$$printk ; 0x11010a8
        0x01102862:    2000        .       MOVS     r0,#0
        0x01102864:    bd10        ..      POP      {r4,pc}
    $d
        0x01102866:    0000        ..      DCW    0
        0x01102868:    49445541    AUDI    DCD    1229215041
        0x0110286c:    004e494f    OIN.    DCD    5130575
        0x01102870:    20006370    pc.     DCD    536896368
        0x01102874:    200021b4    .!.     DCD    536879540
        0x01102878:    00000000    ....    DCD    0
        0x0110287c:    69647561    audi    DCD    1768191329
        0x01102880:    0000006f    o...    DCD    111
        0x01102884:    5d73255b    [%s]    DCD    1567827291
        0x01102888:    66732520     %sf    DCD    1718822176
        0x0110288c:    206c6961    ail     DCD    543975777
        0x01102890:    20746567    get     DCD    544499047
        0x01102894:    69647561    audi    DCD    1768191329
        0x01102898:    65645f6f    o_de    DCD    1701076847
        0x0110289c:    0a732576    v%s.    DCD    175318390
        0x011028a0:    00000000    ....    DCD    0
    $t
    i.audioin_start_record
    audioin_start_record
        0x011028a4:    b5f0        ..      PUSH     {r4-r7,lr}
        0x011028a6:    b085        ..      SUB      sp,sp,#0x14
        0x011028a8:    2600        .&      MOVS     r6,#0
        0x011028aa:    9603        ..      STR      r6,[sp,#0xc]
        0x011028ac:    4604        .F      MOV      r4,r0
        0x011028ae:    7a01        .z      LDRB     r1,[r0,#8]
        0x011028b0:    4668        hF      MOV      r0,sp
        0x011028b2:    7301        .s      STRB     r1,[r0,#0xc]
        0x011028b4:    2102        .!      MOVS     r1,#2
        0x011028b6:    7401        .t      STRB     r1,[r0,#0x10]
        0x011028b8:    7346        Fs      STRB     r6,[r0,#0xd]
        0x011028ba:    210d        .!      MOVS     r1,#0xd
        0x011028bc:    7441        At      STRB     r1,[r0,#0x11]
        0x011028be:    4814        .H      LDR      r0,[pc,#80] ; [0x1102910] = 0x11025e9
        0x011028c0:    9000        ..      STR      r0,[sp,#0]
        0x011028c2:    2701        .'      MOVS     r7,#1
        0x011028c4:    4668        hF      MOV      r0,sp
        0x011028c6:    7287        .r      STRB     r7,[r0,#0xa]
        0x011028c8:    72c7        .r      STRB     r7,[r0,#0xb]
        0x011028ca:    2100        .!      MOVS     r1,#0
        0x011028cc:    6a20         j      LDR      r0,[r4,#0x20]
        0x011028ce:    f7fefde3    ....    BL       $Ven$TT$L$$net_buf_alloc ; 0x1101498
        0x011028d2:    0005        ..      MOVS     r5,r0
        0x011028d4:    d013        ..      BEQ      0x11028fe ; audioin_start_record + 90
        0x011028d6:    89eb        ..      LDRH     r3,[r5,#0xe]
        0x011028d8:    68aa        .h      LDR      r2,[r5,#8]
        0x011028da:    4669        iF      MOV      r1,sp
        0x011028dc:    6820         h      LDR      r0,[r4,#0]
        0x011028de:    f7fefdf3    ....    BL       $Ven$TT$L$$audio_in_pcmbuf_config ; 0x11014c8
        0x011028e2:    61e6        .a      STR      r6,[r4,#0x1c]
        0x011028e4:    61a5        .a      STR      r5,[r4,#0x18]
        0x011028e6:    6820         h      LDR      r0,[r4,#0]
        0x011028e8:    a904        ..      ADD      r1,sp,#0x10
        0x011028ea:    6843        Ch      LDR      r3,[r0,#4]
        0x011028ec:    aa03        ..      ADD      r2,sp,#0xc
        0x011028ee:    681b        .h      LDR      r3,[r3,#0]
        0x011028f0:    4798        .G      BLX      r3
        0x011028f2:    6126        &a      STR      r6,[r4,#0x10]
        0x011028f4:    7527        'u      STRB     r7,[r4,#0x14]
        0x011028f6:    2000        .       MOVS     r0,#0
        0x011028f8:    60e6        .`      STR      r6,[r4,#0xc]
        0x011028fa:    b005        ..      ADD      sp,sp,#0x14
        0x011028fc:    bdf0        ..      POP      {r4-r7,pc}
        0x011028fe:    a305        ..      ADR      r3,{pc}+0x16 ; 0x1102914
        0x01102900:    a204        ..      ADR      r2,{pc}+0x14 ; 0x1102914
        0x01102902:    a105        ..      ADR      r1,{pc}+0x16 ; 0x1102918
        0x01102904:    a006        ..      ADR      r0,{pc}+0x1c ; 0x1102920
        0x01102906:    f7fefbcf    ....    BL       $Ven$TT$L$$printk ; 0x11010a8
        0x0110290a:    2000        .       MOVS     r0,#0
        0x0110290c:    43c0        .C      MVNS     r0,r0
        0x0110290e:    e7f4        ..      B        0x11028fa ; audioin_start_record + 86
    $d
        0x01102910:    011025e9    .%..    DCD    17835497
        0x01102914:    00000000    ....    DCD    0
        0x01102918:    69647561    audi    DCD    1768191329
        0x0110291c:    0000006f    o...    DCD    111
        0x01102920:    5d73255b    [%s]    DCD    1567827291
        0x01102924:    61732520     %sa    DCD    1634936096
        0x01102928:    636f6c6c    lloc    DCD    1668246636
        0x0110292c:    66756220     buf    DCD    1718968864
        0x01102930:    20726566    fer     DCD    544367974
        0x01102934:    6c696166    fail    DCD    1818845542
        0x01102938:    250a6465    ed.%    DCD    621438053
        0x0110293c:    00000a73    s...    DCD    2675
    $t
    i.audioin_stop_record
    audioin_stop_record
        0x01102940:    b570        p.      PUSH     {r4-r6,lr}
        0x01102942:    2500        .%      MOVS     r5,#0
        0x01102944:    4604        .F      MOV      r4,r0
        0x01102946:    7505        .u      STRB     r5,[r0,#0x14]
        0x01102948:    6800        .h      LDR      r0,[r0,#0]
        0x0110294a:    6841        Ah      LDR      r1,[r0,#4]
        0x0110294c:    6849        Ih      LDR      r1,[r1,#4]
        0x0110294e:    4788        .G      BLX      r1
        0x01102950:    2c00        .,      CMP      r4,#0
        0x01102952:    d00e        ..      BEQ      0x1102972 ; audioin_stop_record + 50
        0x01102954:    6a20         j      LDR      r0,[r4,#0x20]
        0x01102956:    2800        .(      CMP      r0,#0
        0x01102958:    d00b        ..      BEQ      0x1102972 ; audioin_stop_record + 50
        0x0110295a:    69a0        .i      LDR      r0,[r4,#0x18]
        0x0110295c:    2800        .(      CMP      r0,#0
        0x0110295e:    d002        ..      BEQ      0x1102966 ; audioin_stop_record + 38
        0x01102960:    f7fefd94    ....    BL       $Ven$TT$L$$net_buf_unref ; 0x110148c
        0x01102964:    61a5        .a      STR      r5,[r4,#0x18]
        0x01102966:    69e0        .i      LDR      r0,[r4,#0x1c]
        0x01102968:    2800        .(      CMP      r0,#0
        0x0110296a:    d002        ..      BEQ      0x1102972 ; audioin_stop_record + 50
        0x0110296c:    f7fefd8e    ....    BL       $Ven$TT$L$$net_buf_unref ; 0x110148c
        0x01102970:    61e5        .a      STR      r5,[r4,#0x1c]
        0x01102972:    60e5        .`      STR      r5,[r4,#0xc]
        0x01102974:    2000        .       MOVS     r0,#0
        0x01102976:    6125        %a      STR      r5,[r4,#0x10]
        0x01102978:    bd70        p.      POP      {r4-r6,pc}
        0x0110297a:    0000        ..      MOVS     r0,r0
    i.bas_notify
    bas_notify
        0x0110297c:    b508        ..      PUSH     {r3,lr}
        0x0110297e:    2064        d       MOVS     r0,#0x64
        0x01102980:    4669        iF      MOV      r1,sp
        0x01102982:    7008        .p      STRB     r0,[r1,#0]
        0x01102984:    4808        .H      LDR      r0,[pc,#32] ; [0x11029a8] = 0x20001d08
        0x01102986:    7801        .x      LDRB     r1,[r0,#0]
        0x01102988:    2900        .)      CMP      r1,#0
        0x0110298a:    d00b        ..      BEQ      0x11029a4 ; bas_notify + 40
        0x0110298c:    6841        Ah      LDR      r1,[r0,#4]
        0x0110298e:    2900        .)      CMP      r1,#0
        0x01102990:    d001        ..      BEQ      0x1102996 ; bas_notify + 26
        0x01102992:    4668        hF      MOV      r0,sp
        0x01102994:    4788        .G      BLX      r1
        0x01102996:    4904        .I      LDR      r1,[pc,#16] ; [0x11029a8] = 0x20001d08
        0x01102998:    2301        .#      MOVS     r3,#1
        0x0110299a:    466a        jF      MOV      r2,sp
        0x0110299c:    3130        01      ADDS     r1,r1,#0x30
        0x0110299e:    2000        .       MOVS     r0,#0
        0x011029a0:    f7fefd98    ....    BL       $Ven$TT$L$$bt_gatt_notify ; 0x11014d4
        0x011029a4:    bd08        ..      POP      {r3,pc}
    $d
        0x011029a6:    0000        ..      DCW    0
        0x011029a8:    20001d08    ...     DCD    536878344
    $t
    i.batt_manager_init
    batt_manager_init
        0x011029ac:    b510        ..      PUSH     {r4,lr}
        0x011029ae:    f003f8e1    ....    BL       update_battry_value ; 0x1105b74
        0x011029b2:    bd10        ..      POP      {r4,pc}
    i.blvl_ccc_cfg_changed
    blvl_ccc_cfg_changed
        0x011029b4:    2901        .)      CMP      r1,#1
        0x011029b6:    d003        ..      BEQ      0x11029c0 ; blvl_ccc_cfg_changed + 12
        0x011029b8:    2000        .       MOVS     r0,#0
        0x011029ba:    4902        .I      LDR      r1,[pc,#8] ; [0x11029c4] = 0x20001d08
        0x011029bc:    7008        .p      STRB     r0,[r1,#0]
        0x011029be:    4770        pG      BX       lr
        0x011029c0:    2001        .       MOVS     r0,#1
        0x011029c2:    e7fa        ..      B        0x11029ba ; blvl_ccc_cfg_changed + 6
    $d
        0x011029c4:    20001d08    ...     DCD    536878344
    $t
    i.bt_addr_le_to_str
    bt_addr_le_to_str
        0x011029c8:    b570        p.      PUSH     {r4-r6,lr}
        0x011029ca:    7803        .x      LDRB     r3,[r0,#0]
        0x011029cc:    b08a        ..      SUB      sp,sp,#0x28
        0x011029ce:    4615        .F      MOV      r5,r2
        0x011029d0:    460e        .F      MOV      r6,r1
        0x011029d2:    4604        .F      MOV      r4,r0
        0x011029d4:    2b00        .+      CMP      r3,#0
        0x011029d6:    d01d        ..      BEQ      0x1102a14 ; bt_addr_le_to_str + 76
        0x011029d8:    2b01        .+      CMP      r3,#1
        0x011029da:    d01d        ..      BEQ      0x1102a18 ; bt_addr_le_to_str + 80
        0x011029dc:    2b02        .+      CMP      r3,#2
        0x011029de:    d020         .      BEQ      0x1102a22 ; bt_addr_le_to_str + 90
        0x011029e0:    2b03        .+      CMP      r3,#3
        0x011029e2:    d020         .      BEQ      0x1102a26 ; bt_addr_le_to_str + 94
        0x011029e4:    a211        ..      ADR      r2,{pc}+0x48 ; 0x1102a2c
        0x011029e6:    210a        .!      MOVS     r1,#0xa
        0x011029e8:    a806        ..      ADD      r0,sp,#0x18
        0x011029ea:    f7fefd25    ..%.    BL       $Ven$TT$L$$snprintk ; 0x1101438
        0x011029ee:    7862        bx      LDRB     r2,[r4,#1]
        0x011029f0:    78a1        .x      LDRB     r1,[r4,#2]
        0x011029f2:    78e0        .x      LDRB     r0,[r4,#3]
        0x011029f4:    9002        ..      STR      r0,[sp,#8]
        0x011029f6:    ab06        ..      ADD      r3,sp,#0x18
        0x011029f8:    a803        ..      ADD      r0,sp,#0xc
        0x011029fa:    c00e        ..      STM      r0!,{r1-r3}
        0x011029fc:    7921        !y      LDRB     r1,[r4,#4]
        0x011029fe:    7960        `y      LDRB     r0,[r4,#5]
        0x01102a00:    9101        ..      STR      r1,[sp,#4]
        0x01102a02:    9000        ..      STR      r0,[sp,#0]
        0x01102a04:    79a3        .y      LDRB     r3,[r4,#6]
        0x01102a06:    a20b        ..      ADR      r2,{pc}+0x2e ; 0x1102a34
        0x01102a08:    4629        )F      MOV      r1,r5
        0x01102a0a:    4630        0F      MOV      r0,r6
        0x01102a0c:    f7fefd14    ....    BL       $Ven$TT$L$$snprintk ; 0x1101438
        0x01102a10:    b00a        ..      ADD      sp,sp,#0x28
        0x01102a12:    bd70        p.      POP      {r4-r6,pc}
        0x01102a14:    a110        ..      ADR      r1,{pc}+0x44 ; 0x1102a58
        0x01102a16:    e000        ..      B        0x1102a1a ; bt_addr_le_to_str + 82
        0x01102a18:    a111        ..      ADR      r1,{pc}+0x48 ; 0x1102a60
        0x01102a1a:    a806        ..      ADD      r0,sp,#0x18
        0x01102a1c:    f7fefd60    ..`.    BL       $Ven$TT$L$$strcpy ; 0x11014e0
        0x01102a20:    e7e5        ..      B        0x11029ee ; bt_addr_le_to_str + 38
        0x01102a22:    a111        ..      ADR      r1,{pc}+0x46 ; 0x1102a68
        0x01102a24:    e7f9        ..      B        0x1102a1a ; bt_addr_le_to_str + 82
        0x01102a26:    a113        ..      ADR      r1,{pc}+0x4e ; 0x1102a74
        0x01102a28:    e7f7        ..      B        0x1102a1a ; bt_addr_le_to_str + 82
    $d
        0x01102a2a:    0000        ..      DCW    0
        0x01102a2c:    30257830    0x%0    DCD    807761968
        0x01102a30:    00007832    2x..    DCD    30770
        0x01102a34:    58323025    %02X    DCD    1479684133
        0x01102a38:    3230253a    :%02    DCD    842016058
        0x01102a3c:    30253a58    X:%0    DCD    807746136
        0x01102a40:    253a5832    2X:%    DCD    624580658
        0x01102a44:    3a583230    02X:    DCD    978858544
        0x01102a48:    58323025    %02X    DCD    1479684133
        0x01102a4c:    3230253a    :%02    DCD    842016058
        0x01102a50:    25282058    X (%    DCD    623386712
        0x01102a54:    00002973    s)..    DCD    10611
        0x01102a58:    6c627570    publ    DCD    1818391920
        0x01102a5c:    00006369    ic..    DCD    25449
        0x01102a60:    646e6172    rand    DCD    1684955506
        0x01102a64:    00006d6f    om..    DCD    28015
        0x01102a68:    6c627570    publ    DCD    1818391920
        0x01102a6c:    69206369    ic i    DCD    1763730281
        0x01102a70:    00000064    d...    DCD    100
        0x01102a74:    646e6172    rand    DCD    1684955506
        0x01102a78:    69206d6f    om i    DCD    1763732847
        0x01102a7c:    00000064    d...    DCD    100
    $t
    i.bt_gatt_load_ccc
    bt_gatt_load_ccc
        0x01102a80:    b510        ..      PUSH     {r4,lr}
        0x01102a82:    2234        4"      MOVS     r2,#0x34
        0x01102a84:    4909        .I      LDR      r1,[pc,#36] ; [0x1102aac] = 0x200063cc
        0x01102a86:    a00a        ..      ADR      r0,{pc}+0x2a ; 0x1102ab0
        0x01102a88:    f7fefd30    ..0.    BL       $Ven$TT$L$$nvram_config_get ; 0x11014ec
        0x01102a8c:    2800        .(      CMP      r0,#0
        0x01102a8e:    db06        ..      BLT      0x1102a9e ; bt_gatt_load_ccc + 30
        0x01102a90:    4b06        .K      LDR      r3,[pc,#24] ; [0x1102aac] = 0x200063cc
        0x01102a92:    4a09        .J      LDR      r2,[pc,#36] ; [0x1102ab8] = 0x1102be1
        0x01102a94:    4909        .I      LDR      r1,[pc,#36] ; [0x1102abc] = 0xffff
        0x01102a96:    2001        .       MOVS     r0,#1
        0x01102a98:    f7fefd2e    ....    BL       $Ven$TT$L$$bt_gatt_foreach_attr ; 0x11014f8
        0x01102a9c:    bd10        ..      POP      {r4,pc}
        0x01102a9e:    a308        ..      ADR      r3,{pc}+0x22 ; 0x1102ac0
        0x01102aa0:    a207        ..      ADR      r2,{pc}+0x20 ; 0x1102ac0
        0x01102aa2:    a108        ..      ADR      r1,{pc}+0x22 ; 0x1102ac4
        0x01102aa4:    a009        ..      ADR      r0,{pc}+0x28 ; 0x1102acc
        0x01102aa6:    f7fefaff    ....    BL       $Ven$TT$L$$printk ; 0x11010a8
        0x01102aaa:    bd10        ..      POP      {r4,pc}
    $d
        0x01102aac:    200063cc    .c.     DCD    536896460
        0x01102ab0:    435f5442    BT_C    DCD    1130320962
        0x01102ab4:    00004343    CC..    DCD    17219
        0x01102ab8:    01102be1    .+..    DCD    17837025
        0x01102abc:    0000ffff    ....    DCD    65535
        0x01102ac0:    00000000    ....    DCD    0
        0x01102ac4:    685f7462    bt_h    DCD    1751086178
        0x01102ac8:    0074736f    ost.    DCD    7631727
        0x01102acc:    5d73255b    [%s]    DCD    1567827291
        0x01102ad0:    62732520     %sb    DCD    1651713312
        0x01102ad4:    61675f74    t_ga    DCD    1634164596
        0x01102ad8:    6c5f7474    tt_l    DCD    1818195060
        0x01102adc:    5f64616f    oad_    DCD    1600414063
        0x01102ae0:    20636363    ccc     DCD    543384419
        0x01102ae4:    6c696166    fail    DCD    1818845542
        0x01102ae8:    250a6465    ed.%    DCD    621438053
        0x01102aec:    00000a73    s...    DCD    2675
    $t
    i.bt_gatt_store_ccc
    bt_gatt_store_ccc
        0x01102af0:    b57c        |.      PUSH     {r2-r6,lr}
        0x01102af2:    460c        .F      MOV      r4,r1
        0x01102af4:    4605        .F      MOV      r5,r0
        0x01102af6:    4923        #I      LDR      r1,[pc,#140] ; [0x1102b84] = 0x200063cc
        0x01102af8:    2207        ."      MOVS     r2,#7
        0x01102afa:    f7fefc85    ....    BL       $Ven$TT$L$$memcmp ; 0x1101408
        0x01102afe:    2800        .(      CMP      r0,#0
        0x01102b00:    d008        ..      BEQ      0x1102b14 ; bt_gatt_store_ccc + 36
        0x01102b02:    2134        4!      MOVS     r1,#0x34
        0x01102b04:    481f        .H      LDR      r0,[pc,#124] ; [0x1102b84] = 0x200063cc
        0x01102b06:    f7fef9da    ....    BL       __aeabi_memclr ; 0x1100ebe
        0x01102b0a:    481e        .H      LDR      r0,[pc,#120] ; [0x1102b84] = 0x200063cc
        0x01102b0c:    4629        )F      MOV      r1,r5
        0x01102b0e:    2207        ."      MOVS     r2,#7
        0x01102b10:    f7fef9bc    ....    BL       __aeabi_memcpy ; 0x1100e8c
        0x01102b14:    4a1b        .J      LDR      r2,[pc,#108] ; [0x1102b84] = 0x200063cc
        0x01102b16:    8823        #.      LDRH     r3,[r4,#0]
        0x01102b18:    2000        .       MOVS     r0,#0
        0x01102b1a:    6b11        .k      LDR      r1,[r2,#0x30]
        0x01102b1c:    e005        ..      B        0x1102b2a ; bt_gatt_store_ccc + 58
        0x01102b1e:    0085        ..      LSLS     r5,r0,#2
        0x01102b20:    18ad        ..      ADDS     r5,r5,r2
        0x01102b22:    892d        -.      LDRH     r5,[r5,#8]
        0x01102b24:    429d        .B      CMP      r5,r3
        0x01102b26:    d00a        ..      BEQ      0x1102b3e ; bt_gatt_store_ccc + 78
        0x01102b28:    1c40        @.      ADDS     r0,r0,#1
        0x01102b2a:    4281        .B      CMP      r1,r0
        0x01102b2c:    d8f7        ..      BHI      0x1102b1e ; bt_gatt_store_ccc + 46
        0x01102b2e:    290a        .)      CMP      r1,#0xa
        0x01102b30:    d203        ..      BCS      0x1102b3a ; bt_gatt_store_ccc + 74
        0x01102b32:    4608        .F      MOV      r0,r1
        0x01102b34:    1c49        I.      ADDS     r1,r1,#1
        0x01102b36:    6311        .c      STR      r1,[r2,#0x30]
        0x01102b38:    e001        ..      B        0x1102b3e ; bt_gatt_store_ccc + 78
        0x01102b3a:    2000        .       MOVS     r0,#0
        0x01102b3c:    43c0        .C      MVNS     r0,r0
        0x01102b3e:    2800        .(      CMP      r0,#0
        0x01102b40:    db1e        ..      BLT      0x1102b80 ; bt_gatt_store_ccc + 144
        0x01102b42:    0080        ..      LSLS     r0,r0,#2
        0x01102b44:    1885        ..      ADDS     r5,r0,r2
        0x01102b46:    4628        (F      MOV      r0,r5
        0x01102b48:    3008        .0      ADDS     r0,r0,#8
        0x01102b4a:    2204        ."      MOVS     r2,#4
        0x01102b4c:    4621        !F      MOV      r1,r4
        0x01102b4e:    f7fefc5b    ..[.    BL       $Ven$TT$L$$memcmp ; 0x1101408
        0x01102b52:    2800        .(      CMP      r0,#0
        0x01102b54:    d014        ..      BEQ      0x1102b80 ; bt_gatt_store_ccc + 144
        0x01102b56:    8820         .      LDRH     r0,[r4,#0]
        0x01102b58:    8128        (.      STRH     r0,[r5,#8]
        0x01102b5a:    8860        `.      LDRH     r0,[r4,#2]
        0x01102b5c:    8168        h.      STRH     r0,[r5,#0xa]
        0x01102b5e:    2234        4"      MOVS     r2,#0x34
        0x01102b60:    4908        .I      LDR      r1,[pc,#32] ; [0x1102b84] = 0x200063cc
        0x01102b62:    a009        ..      ADR      r0,{pc}+0x26 ; 0x1102b88
        0x01102b64:    f7fefcce    ....    BL       $Ven$TT$L$$nvram_config_set ; 0x1101504
        0x01102b68:    2800        .(      CMP      r0,#0
        0x01102b6a:    db09        ..      BLT      0x1102b80 ; bt_gatt_store_ccc + 144
        0x01102b6c:    8860        `.      LDRH     r0,[r4,#2]
        0x01102b6e:    a108        ..      ADR      r1,{pc}+0x22 ; 0x1102b90
        0x01102b70:    9101        ..      STR      r1,[sp,#4]
        0x01102b72:    9000        ..      STR      r0,[sp,#0]
        0x01102b74:    8823        #.      LDRH     r3,[r4,#0]
        0x01102b76:    a206        ..      ADR      r2,{pc}+0x1a ; 0x1102b90
        0x01102b78:    a106        ..      ADR      r1,{pc}+0x1c ; 0x1102b94
        0x01102b7a:    a008        ..      ADR      r0,{pc}+0x22 ; 0x1102b9c
        0x01102b7c:    f7fefa94    ....    BL       $Ven$TT$L$$printk ; 0x11010a8
        0x01102b80:    bd7c        |.      POP      {r2-r6,pc}
    $d
        0x01102b82:    0000        ..      DCW    0
        0x01102b84:    200063cc    .c.     DCD    536896460
        0x01102b88:    435f5442    BT_C    DCD    1130320962
        0x01102b8c:    00004343    CC..    DCD    17219
        0x01102b90:    00000000    ....    DCD    0
        0x01102b94:    685f7462    bt_h    DCD    1751086178
        0x01102b98:    0074736f    ost.    DCD    7631727
        0x01102b9c:    5d73255b    [%s]    DCD    1567827291
        0x01102ba0:    53732520     %sS    DCD    1400055072
        0x01102ba4:    69726f74    tori    DCD    1769107316
        0x01102ba8:    4320676e    ng C    DCD    1126197102
        0x01102bac:    203a4343    CC:     DCD    540689219
        0x01102bb0:    646e6168    hand    DCD    1684955496
        0x01102bb4:    3020656c    le 0    DCD    807429484
        0x01102bb8:    34302578    x%04    DCD    875570552
        0x01102bbc:    61762078    x va    DCD    1635131512
        0x01102bc0:    2065756c    lue     DCD    543520108
        0x01102bc4:    30257830    0x%0    DCD    807761968
        0x01102bc8:    73257834    4x%s    DCD    1931835444
        0x01102bcc:    0000000a    ....    DCD    10
    $t
    i.btn_led_indication
    btn_led_indication
        0x01102bd0:    b510        ..      PUSH     {r4,lr}
        0x01102bd2:    4601        .F      MOV      r1,r0
        0x01102bd4:    2200        ."      MOVS     r2,#0
        0x01102bd6:    200a        .       MOVS     r0,#0xa
        0x01102bd8:    f000ff5e    ..^.    BL       led_set_state ; 0x1103a98
        0x01102bdc:    bd10        ..      POP      {r4,pc}
        0x01102bde:    0000        ..      MOVS     r0,r0
    i.ccc_load
    ccc_load
        0x01102be0:    b5fe        ..      PUSH     {r1-r7,lr}
        0x01102be2:    460d        .F      MOV      r5,r1
        0x01102be4:    4606        .F      MOV      r6,r0
        0x01102be6:    6880        .h      LDR      r0,[r0,#8]
        0x01102be8:    4917        .I      LDR      r1,[pc,#92] ; [0x1102c48] = 0x1c939
        0x01102bea:    4288        .B      CMP      r0,r1
        0x01102bec:    d129        ).      BNE      0x1102c42 ; ccc_load + 98
        0x01102bee:    6b28        (k      LDR      r0,[r5,#0x30]
        0x01102bf0:    2800        .(      CMP      r0,#0
        0x01102bf2:    d027        '.      BEQ      0x1102c44 ; ccc_load + 100
        0x01102bf4:    2400        .$      MOVS     r4,#0
        0x01102bf6:    e022        ".      B        0x1102c3e ; ccc_load + 94
        0x01102bf8:    00a1        ..      LSLS     r1,r4,#2
        0x01102bfa:    1949        I.      ADDS     r1,r1,r5
        0x01102bfc:    8909        ..      LDRH     r1,[r1,#8]
        0x01102bfe:    8a32        2.      LDRH     r2,[r6,#0x10]
        0x01102c00:    4291        .B      CMP      r1,r2
        0x01102c02:    d11b        ..      BNE      0x1102c3c ; ccc_load + 92
        0x01102c04:    68f7        .h      LDR      r7,[r6,#0xc]
        0x01102c06:    4629        )F      MOV      r1,r5
        0x01102c08:    6838        8h      LDR      r0,[r7,#0]
        0x01102c0a:    9000        ..      STR      r0,[sp,#0]
        0x01102c0c:    2207        ."      MOVS     r2,#7
        0x01102c0e:    1c40        @.      ADDS     r0,r0,#1
        0x01102c10:    f7fef93c    ..<.    BL       __aeabi_memcpy ; 0x1100e8c
        0x01102c14:    00a0        ..      LSLS     r0,r4,#2
        0x01102c16:    1944        D.      ADDS     r4,r0,r5
        0x01102c18:    9800        ..      LDR      r0,[sp,#0]
        0x01102c1a:    8961        a.      LDRH     r1,[r4,#0xa]
        0x01102c1c:    8101        ..      STRH     r1,[r0,#8]
        0x01102c1e:    8139        9.      STRH     r1,[r7,#8]
        0x01102c20:    68fa        .h      LDR      r2,[r7,#0xc]
        0x01102c22:    4630        0F      MOV      r0,r6
        0x01102c24:    4790        .G      BLX      r2
        0x01102c26:    8960        `.      LDRH     r0,[r4,#0xa]
        0x01102c28:    a108        ..      ADR      r1,{pc}+0x24 ; 0x1102c4c
        0x01102c2a:    9101        ..      STR      r1,[sp,#4]
        0x01102c2c:    9000        ..      STR      r0,[sp,#0]
        0x01102c2e:    8923        #.      LDRH     r3,[r4,#8]
        0x01102c30:    a206        ..      ADR      r2,{pc}+0x1c ; 0x1102c4c
        0x01102c32:    a107        ..      ADR      r1,{pc}+0x1e ; 0x1102c50
        0x01102c34:    a008        ..      ADR      r0,{pc}+0x24 ; 0x1102c58
        0x01102c36:    f7fefa37    ..7.    BL       $Ven$TT$L$$printk ; 0x11010a8
        0x01102c3a:    e002        ..      B        0x1102c42 ; ccc_load + 98
        0x01102c3c:    1c64        d.      ADDS     r4,r4,#1
        0x01102c3e:    42a0        .B      CMP      r0,r4
        0x01102c40:    d8da        ..      BHI      0x1102bf8 ; ccc_load + 24
        0x01102c42:    2001        .       MOVS     r0,#1
        0x01102c44:    bdfe        ..      POP      {r1-r7,pc}
    $d
        0x01102c46:    0000        ..      DCW    0
        0x01102c48:    0001c939    9...    DCD    117049
        0x01102c4c:    00000000    ....    DCD    0
        0x01102c50:    685f7462    bt_h    DCD    1751086178
        0x01102c54:    0074736f    ost.    DCD    7631727
        0x01102c58:    5d73255b    [%s]    DCD    1567827291
        0x01102c5c:    52732520     %sR    DCD    1383277856
        0x01102c60:    6f747365    esto    DCD    1869902693
        0x01102c64:    676e6972    ring    DCD    1735289202
        0x01102c68:    43434320     CCC    DCD    1128481568
        0x01102c6c:    6168203a    : ha    DCD    1634213946
        0x01102c70:    656c646e    ndle    DCD    1701602414
        0x01102c74:    25783020     0x%    DCD    628633632
        0x01102c78:    20783430    04x     DCD    544748592
        0x01102c7c:    756c6176    valu    DCD    1970037110
        0x01102c80:    78302065    e 0x    DCD    2016419941
        0x01102c84:    78343025    %04x    DCD    2016686117
        0x01102c88:    000a7325    %s..    DCD    684837
    $t
    i.check_rmc_timer
    check_rmc_timer
        0x01102c8c:    b50e        ..      PUSH     {r1-r3,lr}
        0x01102c8e:    2100        .!      MOVS     r1,#0
        0x01102c90:    9100        ..      STR      r1,[sp,#0]
        0x01102c92:    9101        ..      STR      r1,[sp,#4]
        0x01102c94:    9102        ..      STR      r1,[sp,#8]
        0x01102c96:    2105        .!      MOVS     r1,#5
        0x01102c98:    466a        jF      MOV      r2,sp
        0x01102c9a:    7051        Qp      STRB     r1,[r2,#1]
        0x01102c9c:    2128        (!      MOVS     r1,#0x28
        0x01102c9e:    5641        AV      LDRSB    r1,[r0,r1]
        0x01102ca0:    9101        ..      STR      r1,[sp,#4]
        0x01102ca2:    2164        d!      MOVS     r1,#0x64
        0x01102ca4:    4668        hF      MOV      r0,sp
        0x01102ca6:    f002f975    ..u.    BL       send_msg ; 0x1104f94
        0x01102caa:    bd0e        ..      POP      {r1-r3,pc}
    i.clear_on_state
    clear_on_state
        0x01102cac:    b510        ..      PUSH     {r4,lr}
        0x01102cae:    4604        .F      MOV      r4,r0
        0x01102cb0:    2900        .)      CMP      r1,#0
        0x01102cb2:    d00d        ..      BEQ      0x1102cd0 ; clear_on_state + 36
        0x01102cb4:    f000f986    ....    BL       find_blink_period ; 0x1102fc4
        0x01102cb8:    2800        .(      CMP      r0,#0
        0x01102cba:    db08        ..      BLT      0x1102cce ; clear_on_state + 34
        0x01102cbc:    0082        ..      LSLS     r2,r0,#2
        0x01102cbe:    2100        .!      MOVS     r1,#0
        0x01102cc0:    1912        ..      ADDS     r2,r2,r4
        0x01102cc2:    6451        Qd      STR      r1,[r2,#0x44]
        0x01102cc4:    2201        ."      MOVS     r2,#1
        0x01102cc6:    6c21        !l      LDR      r1,[r4,#0x40]
        0x01102cc8:    4082        .@      LSLS     r2,r2,r0
        0x01102cca:    4391        .C      BICS     r1,r1,r2
        0x01102ccc:    6421        !d      STR      r1,[r4,#0x40]
        0x01102cce:    bd10        ..      POP      {r4,pc}
        0x01102cd0:    6c20         l      LDR      r0,[r4,#0x40]
        0x01102cd2:    2110        .!      MOVS     r1,#0x10
        0x01102cd4:    4388        .C      BICS     r0,r0,r1
        0x01102cd6:    6420         d      STR      r0,[r4,#0x40]
        0x01102cd8:    bd10        ..      POP      {r4,pc}
        0x01102cda:    0000        ..      MOVS     r0,r0
    i.connected
    connected
        0x01102cdc:    b570        p.      PUSH     {r4-r6,lr}
        0x01102cde:    b08c        ..      SUB      sp,sp,#0x30
        0x01102ce0:    2400        .$      MOVS     r4,#0
        0x01102ce2:    460d        .F      MOV      r5,r1
        0x01102ce4:    4606        .F      MOV      r6,r0
        0x01102ce6:    9402        ..      STR      r4,[sp,#8]
        0x01102ce8:    9403        ..      STR      r4,[sp,#0xc]
        0x01102cea:    9404        ..      STR      r4,[sp,#0x10]
        0x01102cec:    f7fefc10    ....    BL       $Ven$TT$L$$bt_conn_get_dst ; 0x1101510
        0x01102cf0:    221b        ."      MOVS     r2,#0x1b
        0x01102cf2:    a905        ..      ADD      r1,sp,#0x14
        0x01102cf4:    f7fffe68    ..h.    BL       bt_addr_le_to_str ; 0x11029c8
        0x01102cf8:    2d00        .-      CMP      r5,#0
        0x01102cfa:    d00a        ..      BEQ      0x1102d12 ; connected + 54
        0x01102cfc:    a020         .      ADR      r0,{pc}+0x84 ; 0x1102d80
        0x01102cfe:    9001        ..      STR      r0,[sp,#4]
        0x01102d00:    ab05        ..      ADD      r3,sp,#0x14
        0x01102d02:    a21f        ..      ADR      r2,{pc}+0x7e ; 0x1102d80
        0x01102d04:    a11f        ..      ADR      r1,{pc}+0x80 ; 0x1102d84
        0x01102d06:    9500        ..      STR      r5,[sp,#0]
        0x01102d08:    a01f        ..      ADR      r0,{pc}+0x80 ; 0x1102d88
        0x01102d0a:    f7fef9cd    ....    BL       $Ven$TT$L$$printk ; 0x11010a8
        0x01102d0e:    b00c        ..      ADD      sp,sp,#0x30
        0x01102d10:    bd70        p.      POP      {r4-r6,pc}
        0x01102d12:    4d27        'M      LDR      r5,[pc,#156] ; [0x1102db0] = 0x20005ac0
        0x01102d14:    a01a        ..      ADR      r0,{pc}+0x6c ; 0x1102d80
        0x01102d16:    602e        .`      STR      r6,[r5,#0]
        0x01102d18:    9000        ..      STR      r0,[sp,#0]
        0x01102d1a:    ab05        ..      ADD      r3,sp,#0x14
        0x01102d1c:    a218        ..      ADR      r2,{pc}+0x64 ; 0x1102d80
        0x01102d1e:    a119        ..      ADR      r1,{pc}+0x66 ; 0x1102d84
        0x01102d20:    a024        $.      ADR      r0,{pc}+0x94 ; 0x1102db4
        0x01102d22:    f7fef9c1    ....    BL       $Ven$TT$L$$printk ; 0x11010a8
        0x01102d26:    2003        .       MOVS     r0,#3
        0x01102d28:    4669        iF      MOV      r1,sp
        0x01102d2a:    7248        Hr      STRB     r0,[r1,#9]
        0x01102d2c:    2001        .       MOVS     r0,#1
        0x01102d2e:    9003        ..      STR      r0,[sp,#0xc]
        0x01102d30:    2164        d!      MOVS     r1,#0x64
        0x01102d32:    a802        ..      ADD      r0,sp,#8
        0x01102d34:    f002f92e    ....    BL       send_msg ; 0x1104f94
        0x01102d38:    7b28        ({      LDRB     r0,[r5,#0xc]
        0x01102d3a:    2801        .(      CMP      r0,#1
        0x01102d3c:    d102        ..      BNE      0x1102d44 ; connected + 104
        0x01102d3e:    732c        ,s      STRB     r4,[r5,#0xc]
        0x01102d40:    f001fc0e    ....    BL       pair_led_indication ; 0x1104560
        0x01102d44:    4630        0F      MOV      r0,r6
        0x01102d46:    1d2d        -.      ADDS     r5,r5,#4
        0x01102d48:    f7fefbe2    ....    BL       $Ven$TT$L$$bt_conn_get_dst ; 0x1101510
        0x01102d4c:    4601        .F      MOV      r1,r0
        0x01102d4e:    2207        ."      MOVS     r2,#7
        0x01102d50:    4628        (F      MOV      r0,r5
        0x01102d52:    f7fef89b    ....    BL       __aeabi_memcpy ; 0x1100e8c
        0x01102d56:    4630        0F      MOV      r0,r6
        0x01102d58:    f7fefbda    ....    BL       $Ven$TT$L$$bt_conn_get_dst ; 0x1101510
        0x01102d5c:    221b        ."      MOVS     r2,#0x1b
        0x01102d5e:    a905        ..      ADD      r1,sp,#0x14
        0x01102d60:    f7fff9f8    ....    BL       at_addr_le_to_str2 ; 0x1102154
        0x01102d64:    a905        ..      ADD      r1,sp,#0x14
        0x01102d66:    a019        ..      ADR      r0,{pc}+0x66 ; 0x1102dcc
        0x01102d68:    f7fef99e    ....    BL       $Ven$TT$L$$printk ; 0x11010a8
        0x01102d6c:    a805        ..      ADD      r0,sp,#0x14
        0x01102d6e:    f7fefa7f    ....    BL       $Ven$TT$L$$strlen ; 0x1101270
        0x01102d72:    4602        .F      MOV      r2,r0
        0x01102d74:    a905        ..      ADD      r1,sp,#0x14
        0x01102d76:    a019        ..      ADR      r0,{pc}+0x66 ; 0x1102ddc
        0x01102d78:    f7fefbd0    ....    BL       $Ven$TT$L$$nvram_config_set_factory ; 0x110151c
        0x01102d7c:    e7c7        ..      B        0x1102d0e ; connected + 50
    $d
        0x01102d7e:    0000        ..      DCW    0
        0x01102d80:    00000000    ....    DCD    0
        0x01102d84:    00656c62    ble.    DCD    6646882
        0x01102d88:    5d73255b    [%s]    DCD    1567827291
        0x01102d8c:    46732520     %sF    DCD    1181951264
        0x01102d90:    656c6961    aile    DCD    1701603681
        0x01102d94:    6f742064    d to    DCD    1869881444
        0x01102d98:    6e6f6320     con    DCD    1852793632
        0x01102d9c:    7463656e    nect    DCD    1952671086
        0x01102da0:    206f7420     to     DCD    544175136
        0x01102da4:    28207325    %s (    DCD    673215269
        0x01102da8:    25297525    %u)%    DCD    623473957
        0x01102dac:    00000a73    s...    DCD    2675
        0x01102db0:    20005ac0    .Z.     DCD    536894144
        0x01102db4:    5d73255b    [%s]    DCD    1567827291
        0x01102db8:    43732520     %sC    DCD    1131619616
        0x01102dbc:    656e6e6f    onne    DCD    1701736047
        0x01102dc0:    64657463    cted    DCD    1684370531
        0x01102dc4:    25732520     %s%    DCD    628303136
        0x01102dc8:    00000a73    s...    DCD    2675
        0x01102dcc:    72646461    addr    DCD    1919181921
        0x01102dd0:    72747320     str    DCD    1920234272
        0x01102dd4:    0a73253d    =%s.    DCD    175318333
        0x01102dd8:    00000000    ....    DCD    0
        0x01102ddc:    545f5442    BT_T    DCD    1415533634
        0x01102de0:    415f5447    GT_A    DCD    1096766535
        0x01102de4:    00524444    DDR.    DCD    5391428
    $t
    i.convert_mono_to_stereo
    convert_mono_to_stereo
        0x01102de8:    b510        ..      PUSH     {r4,lr}
        0x01102dea:    2300        .#      MOVS     r3,#0
        0x01102dec:    0892        ..      LSRS     r2,r2,#2
        0x01102dee:    e006        ..      B        0x1102dfe ; convert_mono_to_stereo + 22
        0x01102df0:    8804        ..      LDRH     r4,[r0,#0]
        0x01102df2:    800c        ..      STRH     r4,[r1,#0]
        0x01102df4:    8804        ..      LDRH     r4,[r0,#0]
        0x01102df6:    804c        L.      STRH     r4,[r1,#2]
        0x01102df8:    1c80        ..      ADDS     r0,r0,#2
        0x01102dfa:    1d09        ..      ADDS     r1,r1,#4
        0x01102dfc:    1c5b        [.      ADDS     r3,r3,#1
        0x01102dfe:    429a        .B      CMP      r2,r3
        0x01102e00:    d8f6        ..      BHI      0x1102df0 ; convert_mono_to_stereo + 8
        0x01102e02:    bd10        ..      POP      {r4,pc}
    i.debug_uart_init
    debug_uart_init
        0x01102e04:    4812        .H      LDR      r0,[pc,#72] ; [0x1102e50] = 0x40002010
        0x01102e06:    6802        .h      LDR      r2,[r0,#0]
        0x01102e08:    2120         !      MOVS     r1,#0x20
        0x01102e0a:    438a        .C      BICS     r2,r2,r1
        0x01102e0c:    6002        .`      STR      r2,[r0,#0]
        0x01102e0e:    6802        .h      LDR      r2,[r0,#0]
        0x01102e10:    430a        .C      ORRS     r2,r2,r1
        0x01102e12:    6002        .`      STR      r2,[r0,#0]
        0x01102e14:    1d02        ..      ADDS     r2,r0,#4
        0x01102e16:    6810        .h      LDR      r0,[r2,#0]
        0x01102e18:    4308        .C      ORRS     r0,r0,r1
        0x01102e1a:    6010        .`      STR      r0,[r2,#0]
        0x01102e1c:    480d        .H      LDR      r0,[pc,#52] ; [0x1102e54] = 0x40016010
        0x01102e1e:    6801        .h      LDR      r1,[r0,#0]
        0x01102e20:    0909        ..      LSRS     r1,r1,#4
        0x01102e22:    0109        ..      LSLS     r1,r1,#4
        0x01102e24:    6001        .`      STR      r1,[r0,#0]
        0x01102e26:    6801        .h      LDR      r1,[r0,#0]
        0x01102e28:    2203        ."      MOVS     r2,#3
        0x01102e2a:    4311        .C      ORRS     r1,r1,r2
        0x01102e2c:    6001        .`      STR      r1,[r0,#0]
        0x01102e2e:    6801        .h      LDR      r1,[r0,#0]
        0x01102e30:    14c2        ..      ASRS     r2,r0,#19
        0x01102e32:    4311        .C      ORRS     r1,r1,r2
        0x01102e34:    6001        .`      STR      r1,[r0,#0]
        0x01102e36:    208b        .       MOVS     r0,#0x8b
        0x01102e38:    4907        .I      LDR      r1,[pc,#28] ; [0x1102e58] = 0x4000d010
        0x01102e3a:    0400        ..      LSLS     r0,r0,#16
        0x01102e3c:    6008        .`      STR      r0,[r1,#0]
        0x01102e3e:    2000        .       MOVS     r0,#0
        0x01102e40:    43c0        .C      MVNS     r0,r0
        0x01102e42:    1f09        ..      SUBS     r1,r1,#4
        0x01102e44:    6008        .`      STR      r0,[r1,#0]
        0x01102e46:    4904        .I      LDR      r1,[pc,#16] ; [0x1102e58] = 0x4000d010
        0x01102e48:    4804        .H      LDR      r0,[pc,#16] ; [0x1102e5c] = 0x40808003
        0x01102e4a:    3910        .9      SUBS     r1,r1,#0x10
        0x01102e4c:    6008        .`      STR      r0,[r1,#0]
        0x01102e4e:    4770        pG      BX       lr
    $d
        0x01102e50:    40002010    . .@    DCD    1073750032
        0x01102e54:    40016010    .`.@    DCD    1073831952
        0x01102e58:    4000d010    ...@    DCD    1073795088
        0x01102e5c:    40808003    ...@    DCD    1082163203
    $t
    i.debug_uart_put_char
    debug_uart_put_char
        0x01102e60:    4905        .I      LDR      r1,[pc,#20] ; [0x1102e78] = 0x4000d008
        0x01102e62:    6008        .`      STR      r0,[r1,#0]
        0x01102e64:    200a        .       MOVS     r0,#0xa
        0x01102e66:    6008        .`      STR      r0,[r1,#0]
        0x01102e68:    200d        .       MOVS     r0,#0xd
        0x01102e6a:    6008        .`      STR      r0,[r1,#0]
        0x01102e6c:    1d08        ..      ADDS     r0,r1,#4
        0x01102e6e:    6801        .h      LDR      r1,[r0,#0]
        0x01102e70:    0549        I.      LSLS     r1,r1,#21
        0x01102e72:    d5fc        ..      BPL      0x1102e6e ; debug_uart_put_char + 14
        0x01102e74:    4770        pG      BX       lr
    $d
        0x01102e76:    0000        ..      DCW    0
        0x01102e78:    4000d008    ...@    DCD    1073795080
    $t
    i.device_busy_clear_new
    device_busy_clear_new
        0x01102e7c:    4909        .I      LDR      r1,[pc,#36] ; [0x1102ea4] = 0x200016c8
        0x01102e7e:    b510        ..      PUSH     {r4,lr}
        0x01102e80:    1a40        @.      SUBS     r0,r0,r1
        0x01102e82:    4c07        .L      LDR      r4,[pc,#28] ; [0x1102ea0] = 0x200017dc
        0x01102e84:    210c        .!      MOVS     r1,#0xc
        0x01102e86:    f7fefa8f    ....    BL       $Ven$TT$L$$__aeabi_idivmod ; 0x11013a8
        0x01102e8a:    06c2        ..      LSLS     r2,r0,#27
        0x01102e8c:    0ed2        ..      LSRS     r2,r2,#27
        0x01102e8e:    2101        .!      MOVS     r1,#1
        0x01102e90:    4091        .@      LSLS     r1,r1,r2
        0x01102e92:    0940        @.      LSRS     r0,r0,#5
        0x01102e94:    0080        ..      LSLS     r0,r0,#2
        0x01102e96:    1900        ..      ADDS     r0,r0,r4
        0x01102e98:    43c9        .C      MVNS     r1,r1
        0x01102e9a:    f7fefaeb    ....    BL       $Ven$TT$L$$atomic_and ; 0x1101474
        0x01102e9e:    bd10        ..      POP      {r4,pc}
    $d
        0x01102ea0:    200017dc    ...     DCD    536877020
        0x01102ea4:    200016c8    ...     DCD    536876744
    $t
    i.device_busy_set_new
    device_busy_set_new
        0x01102ea8:    4909        .I      LDR      r1,[pc,#36] ; [0x1102ed0] = 0x200016c8
        0x01102eaa:    b510        ..      PUSH     {r4,lr}
        0x01102eac:    1a40        @.      SUBS     r0,r0,r1
        0x01102eae:    4c07        .L      LDR      r4,[pc,#28] ; [0x1102ecc] = 0x200017dc
        0x01102eb0:    210c        .!      MOVS     r1,#0xc
        0x01102eb2:    f7fefa79    ..y.    BL       $Ven$TT$L$$__aeabi_idivmod ; 0x11013a8
        0x01102eb6:    06c2        ..      LSLS     r2,r0,#27
        0x01102eb8:    0ed2        ..      LSRS     r2,r2,#27
        0x01102eba:    2101        .!      MOVS     r1,#1
        0x01102ebc:    4091        .@      LSLS     r1,r1,r2
        0x01102ebe:    0940        @.      LSRS     r0,r0,#5
        0x01102ec0:    0080        ..      LSLS     r0,r0,#2
        0x01102ec2:    1900        ..      ADDS     r0,r0,r4
        0x01102ec4:    f7fefabe    ....    BL       $Ven$TT$L$$atomic_or ; 0x1101444
        0x01102ec8:    bd10        ..      POP      {r4,pc}
    $d
        0x01102eca:    0000        ..      DCW    0
        0x01102ecc:    200017dc    ...     DCD    536877020
        0x01102ed0:    200016c8    ...     DCD    536876744
    $t
    i.device_get_binding
    device_get_binding
        0x01102ed4:    b570        p.      PUSH     {r4-r6,lr}
        0x01102ed6:    4606        .F      MOV      r6,r0
        0x01102ed8:    4c09        .L      LDR      r4,[pc,#36] ; [0x1102f00] = 0x200016c8
        0x01102eda:    4d0a        .M      LDR      r5,[pc,#40] ; [0x1102f04] = 0x200017dc
        0x01102edc:    e00a        ..      B        0x1102ef4 ; device_get_binding + 32
        0x01102ede:    6860        `h      LDR      r0,[r4,#4]
        0x01102ee0:    2800        .(      CMP      r0,#0
        0x01102ee2:    d006        ..      BEQ      0x1102ef2 ; device_get_binding + 30
        0x01102ee4:    6820         h      LDR      r0,[r4,#0]
        0x01102ee6:    6801        .h      LDR      r1,[r0,#0]
        0x01102ee8:    4630        0F      MOV      r0,r6
        0x01102eea:    f7fefa51    ..Q.    BL       $Ven$TT$L$$strcmp ; 0x1101390
        0x01102eee:    2800        .(      CMP      r0,#0
        0x01102ef0:    d004        ..      BEQ      0x1102efc ; device_get_binding + 40
        0x01102ef2:    340c        .4      ADDS     r4,r4,#0xc
        0x01102ef4:    42ac        .B      CMP      r4,r5
        0x01102ef6:    d1f2        ..      BNE      0x1102ede ; device_get_binding + 10
        0x01102ef8:    2000        .       MOVS     r0,#0
        0x01102efa:    bd70        p.      POP      {r4-r6,pc}
        0x01102efc:    4620         F      MOV      r0,r4
        0x01102efe:    bd70        p.      POP      {r4-r6,pc}
    $d
        0x01102f00:    200016c8    ...     DCD    536876744
        0x01102f04:    200017dc    ...     DCD    536877020
    $t
    i.disconnected
    disconnected
        0x01102f08:    b570        p.      PUSH     {r4-r6,lr}
        0x01102f0a:    b08c        ..      SUB      sp,sp,#0x30
        0x01102f0c:    2400        .$      MOVS     r4,#0
        0x01102f0e:    460e        .F      MOV      r6,r1
        0x01102f10:    9402        ..      STR      r4,[sp,#8]
        0x01102f12:    9403        ..      STR      r4,[sp,#0xc]
        0x01102f14:    9404        ..      STR      r4,[sp,#0x10]
        0x01102f16:    f7fefafb    ....    BL       $Ven$TT$L$$bt_conn_get_dst ; 0x1101510
        0x01102f1a:    221b        ."      MOVS     r2,#0x1b
        0x01102f1c:    a905        ..      ADD      r1,sp,#0x14
        0x01102f1e:    f7fffd53    ..S.    BL       bt_addr_le_to_str ; 0x11029c8
        0x01102f22:    4d15        .M      LDR      r5,[pc,#84] ; [0x1102f78] = 0x20005ac0
        0x01102f24:    a015        ..      ADR      r0,{pc}+0x58 ; 0x1102f7c
        0x01102f26:    602c        ,`      STR      r4,[r5,#0]
        0x01102f28:    9001        ..      STR      r0,[sp,#4]
        0x01102f2a:    ab05        ..      ADD      r3,sp,#0x14
        0x01102f2c:    a213        ..      ADR      r2,{pc}+0x50 ; 0x1102f7c
        0x01102f2e:    a114        ..      ADR      r1,{pc}+0x52 ; 0x1102f80
        0x01102f30:    9600        ..      STR      r6,[sp,#0]
        0x01102f32:    a014        ..      ADR      r0,{pc}+0x52 ; 0x1102f84
        0x01102f34:    f7fef8b8    ....    BL       $Ven$TT$L$$printk ; 0x11010a8
        0x01102f38:    f001feba    ....    BL       rx_stack_analyze ; 0x1104cb0
        0x01102f3c:    2e13        ..      CMP      r6,#0x13
        0x01102f3e:    d101        ..      BNE      0x1102f44 ; disconnected + 60
        0x01102f40:    2001        .       MOVS     r0,#1
        0x01102f42:    7368        hs      STRB     r0,[r5,#0xd]
        0x01102f44:    2003        .       MOVS     r0,#3
        0x01102f46:    4669        iF      MOV      r1,sp
        0x01102f48:    7248        Hr      STRB     r0,[r1,#9]
        0x01102f4a:    7b68        h{      LDRB     r0,[r5,#0xd]
        0x01102f4c:    2800        .(      CMP      r0,#0
        0x01102f4e:    d002        ..      BEQ      0x1102f56 ; disconnected + 78
        0x01102f50:    736c        ls      STRB     r4,[r5,#0xd]
        0x01102f52:    2004        .       MOVS     r0,#4
        0x01102f54:    e000        ..      B        0x1102f58 ; disconnected + 80
        0x01102f56:    2005        .       MOVS     r0,#5
        0x01102f58:    9003        ..      STR      r0,[sp,#0xc]
        0x01102f5a:    2164        d!      MOVS     r1,#0x64
        0x01102f5c:    a802        ..      ADD      r0,sp,#8
        0x01102f5e:    f002f819    ....    BL       send_msg ; 0x1104f94
        0x01102f62:    4813        .H      LDR      r0,[pc,#76] ; [0x1102fb0] = 0x20002308
        0x01102f64:    73ac        .s      STRB     r4,[r5,#0xe]
        0x01102f66:    7800        .x      LDRB     r0,[r0,#0]
        0x01102f68:    2800        .(      CMP      r0,#0
        0x01102f6a:    d003        ..      BEQ      0x1102f74 ; disconnected + 108
        0x01102f6c:    2005        .       MOVS     r0,#5
        0x01102f6e:    0280        ..      LSLS     r0,r0,#10
        0x01102f70:    f002fbda    ....    BL       sys_pm_reboot ; 0x1105728
        0x01102f74:    b00c        ..      ADD      sp,sp,#0x30
        0x01102f76:    bd70        p.      POP      {r4-r6,pc}
    $d
        0x01102f78:    20005ac0    .Z.     DCD    536894144
        0x01102f7c:    00000000    ....    DCD    0
        0x01102f80:    00656c62    ble.    DCD    6646882
        0x01102f84:    5d73255b    [%s]    DCD    1567827291
        0x01102f88:    44732520     %sD    DCD    1148396832
        0x01102f8c:    6f637369    isco    DCD    1868788585
        0x01102f90:    63656e6e    nnec    DCD    1667591790
        0x01102f94:    20646574    ted     DCD    543450484
        0x01102f98:    6d6f7266    from    DCD    1836020326
        0x01102f9c:    20732520     %s     DCD    544417056
        0x01102fa0:    61657228    (rea    DCD    1634038312
        0x01102fa4:    206e6f73    son     DCD    544108403
        0x01102fa8:    25297525    %u)%    DCD    623473957
        0x01102fac:    00000a73    s...    DCD    2675
        0x01102fb0:    20002308    .#.     DCD    536879880
    $t
    i.dummy_nor_erase
    dummy_nor_erase
        0x01102fb4:    2000        .       MOVS     r0,#0
        0x01102fb6:    4770        pG      BX       lr
    i.dummy_nor_read
    dummy_nor_read
        0x01102fb8:    2000        .       MOVS     r0,#0
        0x01102fba:    4770        pG      BX       lr
    i.dummy_nor_write
    dummy_nor_write
        0x01102fbc:    2000        .       MOVS     r0,#0
        0x01102fbe:    4770        pG      BX       lr
    i.dummy_nor_write_protection
    dummy_nor_write_protection
        0x01102fc0:    2000        .       MOVS     r0,#0
        0x01102fc2:    4770        pG      BX       lr
    i.find_blink_period
    find_blink_period
        0x01102fc4:    2200        ."      MOVS     r2,#0
        0x01102fc6:    0093        ..      LSLS     r3,r2,#2
        0x01102fc8:    181b        ..      ADDS     r3,r3,r0
        0x01102fca:    6c5b        [l      LDR      r3,[r3,#0x44]
        0x01102fcc:    428b        .B      CMP      r3,r1
        0x01102fce:    d101        ..      BNE      0x1102fd4 ; find_blink_period + 16
        0x01102fd0:    b250        P.      SXTB     r0,r2
        0x01102fd2:    4770        pG      BX       lr
        0x01102fd4:    1c52        R.      ADDS     r2,r2,#1
        0x01102fd6:    2a04        .*      CMP      r2,#4
        0x01102fd8:    dbf5        ..      BLT      0x1102fc6 ; find_blink_period + 2
        0x01102fda:    2000        .       MOVS     r0,#0
        0x01102fdc:    43c0        .C      MVNS     r0,r0
        0x01102fde:    4770        pG      BX       lr
    i.gatt_ccc_changed_new
    gatt_ccc_changed_new
        0x01102fe0:    b5f8        ..      PUSH     {r3-r7,lr}
        0x01102fe2:    460d        .F      MOV      r5,r1
        0x01102fe4:    2400        .$      MOVS     r4,#0
        0x01102fe6:    4606        .F      MOV      r6,r0
        0x01102fe8:    4622        "F      MOV      r2,r4
        0x01102fea:    6849        Ih      LDR      r1,[r1,#4]
        0x01102fec:    e007        ..      B        0x1102ffe ; gatt_ccc_changed_new + 30
        0x01102fee:    0110        ..      LSLS     r0,r2,#4
        0x01102ff0:    682b        +h      LDR      r3,[r5,#0]
        0x01102ff2:    3008        .0      ADDS     r0,r0,#8
        0x01102ff4:    5a18        .Z      LDRH     r0,[r3,r0]
        0x01102ff6:    42a0        .B      CMP      r0,r4
        0x01102ff8:    d900        ..      BLS      0x1102ffc ; gatt_ccc_changed_new + 28
        0x01102ffa:    4604        .F      MOV      r4,r0
        0x01102ffc:    1c52        R.      ADDS     r2,r2,#1
        0x01102ffe:    4291        .B      CMP      r1,r2
        0x01103000:    d8f5        ..      BHI      0x1102fee ; gatt_ccc_changed_new + 14
        0x01103002:    8928        (.      LDRH     r0,[r5,#8]
        0x01103004:    42a0        .B      CMP      r0,r4
        0x01103006:    d012        ..      BEQ      0x110302e ; gatt_ccc_changed_new + 78
        0x01103008:    812c        ,.      STRH     r4,[r5,#8]
        0x0110300a:    68ea        .h      LDR      r2,[r5,#0xc]
        0x0110300c:    4621        !F      MOV      r1,r4
        0x0110300e:    4630        0F      MOV      r0,r6
        0x01103010:    4790        .G      BLX      r2
        0x01103012:    6828        (h      LDR      r0,[r5,#0]
        0x01103014:    1c40        @.      ADDS     r0,r0,#1
        0x01103016:    f7fefa87    ....    BL       $Ven$TT$L$$bt_addr_le_is_bonded ; 0x1101528
        0x0110301a:    2800        .(      CMP      r0,#0
        0x0110301c:    d007        ..      BEQ      0x110302e ; gatt_ccc_changed_new + 78
        0x0110301e:    8a30        0.      LDRH     r0,[r6,#0x10]
        0x01103020:    4669        iF      MOV      r1,sp
        0x01103022:    8008        ..      STRH     r0,[r1,#0]
        0x01103024:    804c        L.      STRH     r4,[r1,#2]
        0x01103026:    6828        (h      LDR      r0,[r5,#0]
        0x01103028:    1c40        @.      ADDS     r0,r0,#1
        0x0110302a:    f7fffd61    ..a.    BL       bt_gatt_store_ccc ; 0x1102af0
        0x0110302e:    bdf8        ..      POP      {r3-r7,pc}
    i.get_adckey_handle
    get_adckey_handle
        0x01103030:    4907        .I      LDR      r1,[pc,#28] ; [0x1103050] = 0x20006350
        0x01103032:    2000        .       MOVS     r0,#0
        0x01103034:    0102        ..      LSLS     r2,r0,#4
        0x01103036:    1852        R.      ADDS     r2,r2,r1
        0x01103038:    7b12        .{      LDRB     r2,[r2,#0xc]
        0x0110303a:    2a00        .*      CMP      r2,#0
        0x0110303c:    d004        ..      BEQ      0x1103048 ; get_adckey_handle + 24
        0x0110303e:    1c40        @.      ADDS     r0,r0,#1
        0x01103040:    2802        .(      CMP      r0,#2
        0x01103042:    dbf7        ..      BLT      0x1103034 ; get_adckey_handle + 4
        0x01103044:    2000        .       MOVS     r0,#0
        0x01103046:    4770        pG      BX       lr
        0x01103048:    0100        ..      LSLS     r0,r0,#4
        0x0110304a:    1840        @.      ADDS     r0,r0,r1
        0x0110304c:    4770        pG      BX       lr
    $d
        0x0110304e:    0000        ..      DCW    0
        0x01103050:    20006350    Pc.     DCD    536896336
    $t
    i.gpio_acts_config_irq
    gpio_acts_config_irq
        0x01103054:    b510        ..      PUSH     {r4,lr}
        0x01103056:    6800        .h      LDR      r0,[r0,#0]
        0x01103058:    4907        .I      LDR      r1,[pc,#28] ; [0x1103078] = 0x200016d4
        0x0110305a:    68c4        .h      LDR      r4,[r0,#0xc]
        0x0110305c:    4807        .H      LDR      r0,[pc,#28] ; [0x110307c] = 0x200059b0
        0x0110305e:    2200        ."      MOVS     r2,#0
        0x01103060:    6701        .g      STR      r1,[r0,#0x70]
        0x01103062:    4907        .I      LDR      r1,[pc,#28] ; [0x1103080] = 0x10a1d
        0x01103064:    6741        Ag      STR      r1,[r0,#0x74]
        0x01103066:    2101        .!      MOVS     r1,#1
        0x01103068:    200e        .       MOVS     r0,#0xe
        0x0110306a:    f7fef84d    ..M.    BL       $Ven$TT$L$$_irq_priority_set ; 0x1101108
        0x0110306e:    6860        `h      LDR      r0,[r4,#4]
        0x01103070:    f7fef886    ....    BL       $Ven$TT$L$$_arch_irq_enable ; 0x1101180
        0x01103074:    bd10        ..      POP      {r4,pc}
    $d
        0x01103076:    0000        ..      DCW    0
        0x01103078:    200016d4    ...     DCD    536876756
        0x0110307c:    200059b0    .Y.     DCD    536893872
        0x01103080:    00010a1d    ....    DCD    68125
    $t
    i.hci_set_le_local_feat
    hci_set_le_local_feat
        0x01103084:    b53e        >.      PUSH     {r1-r5,lr}
        0x01103086:    460c        .F      MOV      r4,r1
        0x01103088:    4605        .F      MOV      r5,r0
        0x0110308a:    aa02        ..      ADD      r2,sp,#8
        0x0110308c:    2100        .!      MOVS     r1,#0
        0x0110308e:    4815        .H      LDR      r0,[pc,#84] ; [0x11030e4] = 0x2003
        0x01103090:    f7fefa50    ..P.    BL       $Ven$TT$L$$bt_hci_cmd_send_sync ; 0x1101534
        0x01103094:    2800        .(      CMP      r0,#0
        0x01103096:    d006        ..      BEQ      0x11030a6 ; hci_set_le_local_feat + 34
        0x01103098:    a313        ..      ADR      r3,{pc}+0x50 ; 0x11030e8
        0x0110309a:    a213        ..      ADR      r2,{pc}+0x4e ; 0x11030e8
        0x0110309c:    a113        ..      ADR      r1,{pc}+0x50 ; 0x11030ec
        0x0110309e:    a015        ..      ADR      r0,{pc}+0x56 ; 0x11030f4
        0x011030a0:    f7fef802    ....    BL       $Ven$TT$L$$printk ; 0x11010a8
        0x011030a4:    bd3e        >.      POP      {r1-r5,pc}
        0x011030a6:    9802        ..      LDR      r0,[sp,#8]
        0x011030a8:    6881        .h      LDR      r1,[r0,#8]
        0x011030aa:    7808        .x      LDRB     r0,[r1,#0]
        0x011030ac:    2800        .(      CMP      r0,#0
        0x011030ae:    d1f9        ..      BNE      0x11030a4 ; hci_set_le_local_feat + 32
        0x011030b0:    2208        ."      MOVS     r2,#8
        0x011030b2:    4668        hF      MOV      r0,sp
        0x011030b4:    1c49        I.      ADDS     r1,r1,#1
        0x011030b6:    f7fdfee9    ....    BL       __aeabi_memcpy ; 0x1100e8c
        0x011030ba:    0768        h.      LSLS     r0,r5,#29
        0x011030bc:    0f40        @.      LSRS     r0,r0,#29
        0x011030be:    2101        .!      MOVS     r1,#1
        0x011030c0:    4081        .@      LSLS     r1,r1,r0
        0x011030c2:    466a        jF      MOV      r2,sp
        0x011030c4:    08e8        ..      LSRS     r0,r5,#3
        0x011030c6:    5c13        .\      LDRB     r3,[r2,r0]
        0x011030c8:    2c00        .,      CMP      r4,#0
        0x011030ca:    d001        ..      BEQ      0x11030d0 ; hci_set_le_local_feat + 76
        0x011030cc:    430b        .C      ORRS     r3,r3,r1
        0x011030ce:    e000        ..      B        0x11030d2 ; hci_set_le_local_feat + 78
        0x011030d0:    438b        .C      BICS     r3,r3,r1
        0x011030d2:    5413        .T      STRB     r3,[r2,r0]
        0x011030d4:    4610        .F      MOV      r0,r2
        0x011030d6:    f000f839    ..9.    BL       hci_vs_set_local_feat ; 0x110314c
        0x011030da:    9802        ..      LDR      r0,[sp,#8]
        0x011030dc:    f7fef9d6    ....    BL       $Ven$TT$L$$net_buf_unref ; 0x110148c
        0x011030e0:    bd3e        >.      POP      {r1-r5,pc}
    $d
        0x011030e2:    0000        ..      DCW    0
        0x011030e4:    00002003    . ..    DCD    8195
        0x011030e8:    00000000    ....    DCD    0
        0x011030ec:    685f7462    bt_h    DCD    1751086178
        0x011030f0:    0074736f    ost.    DCD    7631727
        0x011030f4:    5d73255b    [%s]    DCD    1567827291
        0x011030f8:    72732520     %sr    DCD    1920148768
        0x011030fc:    20646165    ead     DCD    543449445
        0x01103100:    6620656c    le f    DCD    1713399148
        0x01103104:    75746165    eatu    DCD    1970561381
        0x01103108:    66206572    re f    DCD    1713399154
        0x0110310c:    656c6961    aile    DCD    1701603681
        0x01103110:    73250a64    d.%s    DCD    1931807332
        0x01103114:    0000000a    ....    DCD    10
    $t
    i.hci_tx_failure_new
    hci_tx_failure_new
        0x01103118:    b510        ..      PUSH     {r4,lr}
        0x0110311a:    a004        ..      ADR      r0,{pc}+0x12 ; 0x110312c
        0x0110311c:    f7fdffc4    ....    BL       $Ven$TT$L$$printk ; 0x11010a8
        0x01103120:    2005        .       MOVS     r0,#5
        0x01103122:    0280        ..      LSLS     r0,r0,#10
        0x01103124:    f002fb00    ....    BL       sys_pm_reboot ; 0x1105728
        0x01103128:    bd10        ..      POP      {r4,pc}
    $d
        0x0110312a:    0000        ..      DCW    0
        0x0110312c:    6f626572    rebo    DCD    1868719474
        0x01103130:    6620746f    ot f    DCD    1713402991
        0x01103134:    6c20726f    or l    DCD    1814065775
        0x01103138:    2063636c    lcc     DCD    543384428
        0x0110313c:    72746572    retr    DCD    1920230770
        0x01103140:    61662079    y fa    DCD    1634082937
        0x01103144:    64656c69    iled    DCD    1684368489
        0x01103148:    0000000a    ....    DCD    10
    $t
    i.hci_vs_set_local_feat
    hci_vs_set_local_feat
        0x0110314c:    b5f8        ..      PUSH     {r3-r7,lr}
        0x0110314e:    4d13        .M      LDR      r5,[pc,#76] ; [0x110319c] = 0xfff2
        0x01103150:    4606        .F      MOV      r6,r0
        0x01103152:    2108        .!      MOVS     r1,#8
        0x01103154:    4628        (F      MOV      r0,r5
        0x01103156:    f7fef9f3    ....    BL       $Ven$TT$L$$bt_hci_cmd_create ; 0x1101540
        0x0110315a:    0004        ..      MOVS     r4,r0
        0x0110315c:    d018        ..      BEQ      0x1103190 ; hci_vs_set_local_feat + 68
        0x0110315e:    2108        .!      MOVS     r1,#8
        0x01103160:    1860        `.      ADDS     r0,r4,r1
        0x01103162:    f7fef9a5    ....    BL       $Ven$TT$L$$net_buf_simple_add ; 0x11014b0
        0x01103166:    2208        ."      MOVS     r2,#8
        0x01103168:    4631        1F      MOV      r1,r6
        0x0110316a:    f7fdfe8f    ....    BL       __aeabi_memcpy ; 0x1100e8c
        0x0110316e:    2200        ."      MOVS     r2,#0
        0x01103170:    4621        !F      MOV      r1,r4
        0x01103172:    4628        (F      MOV      r0,r5
        0x01103174:    f7fef9de    ....    BL       $Ven$TT$L$$bt_hci_cmd_send_sync ; 0x1101534
        0x01103178:    0004        ..      MOVS     r4,r0
        0x0110317a:    d00c        ..      BEQ      0x1103196 ; hci_vs_set_local_feat + 74
        0x0110317c:    a008        ..      ADR      r0,{pc}+0x24 ; 0x11031a0
        0x0110317e:    9000        ..      STR      r0,[sp,#0]
        0x01103180:    4623        #F      MOV      r3,r4
        0x01103182:    a207        ..      ADR      r2,{pc}+0x1e ; 0x11031a0
        0x01103184:    a107        ..      ADR      r1,{pc}+0x20 ; 0x11031a4
        0x01103186:    a009        ..      ADR      r0,{pc}+0x26 ; 0x11031ac
        0x01103188:    f7fdff8e    ....    BL       $Ven$TT$L$$printk ; 0x11010a8
        0x0110318c:    4620         F      MOV      r0,r4
        0x0110318e:    bdf8        ..      POP      {r3-r7,pc}
        0x01103190:    2036        6       MOVS     r0,#0x36
        0x01103192:    43c0        .C      MVNS     r0,r0
        0x01103194:    bdf8        ..      POP      {r3-r7,pc}
        0x01103196:    2000        .       MOVS     r0,#0
        0x01103198:    bdf8        ..      POP      {r3-r7,pc}
    $d
        0x0110319a:    0000        ..      DCW    0
        0x0110319c:    0000fff2    ....    DCD    65522
        0x011031a0:    00000000    ....    DCD    0
        0x011031a4:    685f7462    bt_h    DCD    1751086178
        0x011031a8:    0074736f    ost.    DCD    7631727
        0x011031ac:    5d73255b    [%s]    DCD    1567827291
        0x011031b0:    73732520     %ss    DCD    1936925984
        0x011031b4:    6c207465    et l    DCD    1814066277
        0x011031b8:    6c61636f    ocal    DCD    1818321775
        0x011031bc:    61656620     fea    DCD    1634035232
        0x011031c0:    65727574    ture    DCD    1701999988
        0x011031c4:    69616620     fai    DCD    1767990816
        0x011031c8:    2064656c    led     DCD    543450476
        0x011031cc:    250a6425    %d.%    DCD    621437989
        0x011031d0:    00000a73    s...    DCD    2675
    $t
    i.hid_app_remote_report_channel_enable
    hid_app_remote_report_channel_enable
        0x011031d4:    b50e        ..      PUSH     {r1-r3,lr}
        0x011031d6:    a30b        ..      ADR      r3,{pc}+0x2e ; 0x1103204
        0x011031d8:    a20a        ..      ADR      r2,{pc}+0x2c ; 0x1103204
        0x011031da:    a10b        ..      ADR      r1,{pc}+0x2e ; 0x1103208
        0x011031dc:    a00b        ..      ADR      r0,{pc}+0x30 ; 0x110320c
        0x011031de:    f7fdff63    ..c.    BL       $Ven$TT$L$$printk ; 0x11010a8
        0x011031e2:    4812        .H      LDR      r0,[pc,#72] ; [0x110322c] = 0x20005ac0
        0x011031e4:    6800        .h      LDR      r0,[r0,#0]
        0x011031e6:    2800        .(      CMP      r0,#0
        0x011031e8:    d00a        ..      BEQ      0x1103200 ; hid_app_remote_report_channel_enable + 44
        0x011031ea:    2000        .       MOVS     r0,#0
        0x011031ec:    9000        ..      STR      r0,[sp,#0]
        0x011031ee:    9002        ..      STR      r0,[sp,#8]
        0x011031f0:    2003        .       MOVS     r0,#3
        0x011031f2:    4669        iF      MOV      r1,sp
        0x011031f4:    7048        Hp      STRB     r0,[r1,#1]
        0x011031f6:    9001        ..      STR      r0,[sp,#4]
        0x011031f8:    2164        d!      MOVS     r1,#0x64
        0x011031fa:    4668        hF      MOV      r0,sp
        0x011031fc:    f001feca    ....    BL       send_msg ; 0x1104f94
        0x01103200:    bd0e        ..      POP      {r1-r3,pc}
    $d
        0x01103202:    0000        ..      DCW    0
        0x01103204:    00000000    ....    DCD    0
        0x01103208:    00656c62    ble.    DCD    6646882
        0x0110320c:    5d73255b    [%s]    DCD    1567827291
        0x01103210:    69732520     %si    DCD    1769153824
        0x01103214:    7475706e    nput    DCD    1953853550
        0x01103218:    61686320     cha    DCD    1634231072
        0x0110321c:    6c656e6e    nnel    DCD    1818586734
        0x01103220:    616e6520     ena    DCD    1634624800
        0x01103224:    0a656c62    ble.    DCD    174419042
        0x01103228:    000a7325    %s..    DCD    684837
        0x0110322c:    20005ac0    .Z.     DCD    536894144
    $t
    i.hid_app_remote_report_event
    hid_app_remote_report_event
        0x01103230:    b57c        |.      PUSH     {r2-r6,lr}
        0x01103232:    4d0e        .M      LDR      r5,[pc,#56] ; [0x110326c] = 0x20005ac0
        0x01103234:    4604        .F      MOV      r4,r0
        0x01103236:    6828        (h      LDR      r0,[r5,#0]
        0x01103238:    2800        .(      CMP      r0,#0
        0x0110323a:    d014        ..      BEQ      0x1103266 ; hid_app_remote_report_event + 54
        0x0110323c:    a00c        ..      ADR      r0,{pc}+0x34 ; 0x1103270
        0x0110323e:    9000        ..      STR      r0,[sp,#0]
        0x01103240:    4623        #F      MOV      r3,r4
        0x01103242:    a20b        ..      ADR      r2,{pc}+0x2e ; 0x1103270
        0x01103244:    a10b        ..      ADR      r1,{pc}+0x30 ; 0x1103274
        0x01103246:    a00c        ..      ADR      r0,{pc}+0x32 ; 0x1103278
        0x01103248:    f7fdff2e    ....    BL       $Ven$TT$L$$printk ; 0x11010a8
        0x0110324c:    4669        iF      MOV      r1,sp
        0x0110324e:    710c        .q      STRB     r4,[r1,#4]
        0x01103250:    0a20         .      LSRS     r0,r4,#8
        0x01103252:    7148        Hq      STRB     r0,[r1,#5]
        0x01103254:    2000        .       MOVS     r0,#0
        0x01103256:    7188        .q      STRB     r0,[r1,#6]
        0x01103258:    ab01        ..      ADD      r3,sp,#4
        0x0110325a:    2203        ."      MOVS     r2,#3
        0x0110325c:    2101        .!      MOVS     r1,#1
        0x0110325e:    6828        (h      LDR      r0,[r5,#0]
        0x01103260:    f002fd94    ....    BL       wp_send_input_report ; 0x1105d8c
        0x01103264:    bd7c        |.      POP      {r2-r6,pc}
        0x01103266:    2004        .       MOVS     r0,#4
        0x01103268:    43c0        .C      MVNS     r0,r0
        0x0110326a:    bd7c        |.      POP      {r2-r6,pc}
    $d
        0x0110326c:    20005ac0    .Z.     DCD    536894144
        0x01103270:    00000000    ....    DCD    0
        0x01103274:    00656c62    ble.    DCD    6646882
        0x01103278:    5d73255b    [%s]    DCD    1567827291
        0x0110327c:    62732520     %sb    DCD    1651713312
        0x01103280:    6f747475    utto    DCD    1869902965
        0x01103284:    7369206e    n is    DCD    1936269422
        0x01103288:    25783020     0x%    DCD    628633632
        0x0110328c:    25783430    04x%    DCD    628634672
        0x01103290:    00000a73    s...    DCD    2675
    $t
    i.hid_app_voice_report_event
    hid_app_voice_report_event
        0x01103294:    4603        .F      MOV      r3,r0
        0x01103296:    b510        ..      PUSH     {r4,lr}
        0x01103298:    4805        .H      LDR      r0,[pc,#20] ; [0x11032b0] = 0x20005ac0
        0x0110329a:    6800        .h      LDR      r0,[r0,#0]
        0x0110329c:    2800        .(      CMP      r0,#0
        0x0110329e:    d004        ..      BEQ      0x11032aa ; hid_app_voice_report_event + 22
        0x011032a0:    2214        ."      MOVS     r2,#0x14
        0x011032a2:    2102        .!      MOVS     r1,#2
        0x011032a4:    f002fd72    ..r.    BL       wp_send_input_report ; 0x1105d8c
        0x011032a8:    bd10        ..      POP      {r4,pc}
        0x011032aa:    2004        .       MOVS     r0,#4
        0x011032ac:    43c0        .C      MVNS     r0,r0
        0x011032ae:    bd10        ..      POP      {r4,pc}
    $d
        0x011032b0:    20005ac0    .Z.     DCD    536894144
    $t
    i.i2stx0_clk_cfg
    i2stx0_clk_cfg
        0x011032b4:    b510        ..      PUSH     {r4,lr}
        0x011032b6:    4614        .F      MOV      r4,r2
        0x011032b8:    2011        .       MOVS     r0,#0x11
        0x011032ba:    f7fef947    ..G.    BL       $Ven$TT$L$$acts_clock_peripheral_enable ; 0x110154c
        0x011032be:    207d        }       MOVS     r0,#0x7d
        0x011032c0:    0180        ..      LSLS     r0,r0,#6
        0x011032c2:    4284        .B      CMP      r4,r0
        0x011032c4:    d001        ..      BEQ      0x11032ca ; i2stx0_clk_cfg + 22
        0x011032c6:    2004        .       MOVS     r0,#4
        0x011032c8:    e000        ..      B        0x11032cc ; i2stx0_clk_cfg + 24
        0x011032ca:    2006        .       MOVS     r0,#6
        0x011032cc:    4a07        .J      LDR      r2,[pc,#28] ; [0x11032ec] = 0x40002104
        0x011032ce:    2116        .!      MOVS     r1,#0x16
        0x011032d0:    6011        .`      STR      r1,[r2,#0]
        0x011032d2:    4906        .I      LDR      r1,[pc,#24] ; [0x11032ec] = 0x40002104
        0x011032d4:    39cc        .9      SUBS     r1,r1,#0xcc
        0x011032d6:    680a        .h      LDR      r2,[r1,#0]
        0x011032d8:    230f        .#      MOVS     r3,#0xf
        0x011032da:    021b        ..      LSLS     r3,r3,#8
        0x011032dc:    439a        .C      BICS     r2,r2,r3
        0x011032de:    600a        .`      STR      r2,[r1,#0]
        0x011032e0:    680a        .h      LDR      r2,[r1,#0]
        0x011032e2:    0200        ..      LSLS     r0,r0,#8
        0x011032e4:    4302        .C      ORRS     r2,r2,r0
        0x011032e6:    600a        .`      STR      r2,[r1,#0]
        0x011032e8:    bd10        ..      POP      {r4,pc}
    $d
        0x011032ea:    0000        ..      DCW    0
        0x011032ec:    40002104    .!.@    DCD    1073750276
    $t
    i.i2stx0_if_init
    i2stx0_if_init
        0x011032f0:    b530        0.      PUSH     {r4,r5,lr}
        0x011032f2:    4a0a        .J      LDR      r2,[pc,#40] ; [0x110331c] = 0x40015000
        0x011032f4:    2400        .$      MOVS     r4,#0
        0x011032f6:    9d03        ..      LDR      r5,[sp,#0xc]
        0x011032f8:    6014        .`      STR      r4,[r2,#0]
        0x011032fa:    6814        .h      LDR      r4,[r2,#0]
        0x011032fc:    01c0        ..      LSLS     r0,r0,#7
        0x011032fe:    4304        .C      ORRS     r4,r4,r0
        0x01103300:    6014        .`      STR      r4,[r2,#0]
        0x01103302:    6810        .h      LDR      r0,[r2,#0]
        0x01103304:    0189        ..      LSLS     r1,r1,#6
        0x01103306:    4308        .C      ORRS     r0,r0,r1
        0x01103308:    6010        .`      STR      r0,[r2,#0]
        0x0110330a:    6810        .h      LDR      r0,[r2,#0]
        0x0110330c:    00d9        ..      LSLS     r1,r3,#3
        0x0110330e:    4308        .C      ORRS     r0,r0,r1
        0x01103310:    6010        .`      STR      r0,[r2,#0]
        0x01103312:    6810        .h      LDR      r0,[r2,#0]
        0x01103314:    0069        i.      LSLS     r1,r5,#1
        0x01103316:    4308        .C      ORRS     r0,r0,r1
        0x01103318:    6010        .`      STR      r0,[r2,#0]
        0x0110331a:    bd30        0.      POP      {r4,r5,pc}
    $d
        0x0110331c:    40015000    .P.@    DCD    1073827840
    $t
    i.i2stx_if_op
    i2stx_if_op
        0x01103320:    4905        .I      LDR      r1,[pc,#20] ; [0x1103338] = 0x40015000
        0x01103322:    2800        .(      CMP      r0,#0
        0x01103324:    6808        .h      LDR      r0,[r1,#0]
        0x01103326:    d002        ..      BEQ      0x110332e ; i2stx_if_op + 14
        0x01103328:    2201        ."      MOVS     r2,#1
        0x0110332a:    4310        .C      ORRS     r0,r0,r2
        0x0110332c:    e001        ..      B        0x1103332 ; i2stx_if_op + 18
        0x0110332e:    0840        @.      LSRS     r0,r0,#1
        0x01103330:    0040        @.      LSLS     r0,r0,#1
        0x01103332:    6008        .`      STR      r0,[r1,#0]
        0x01103334:    4770        pG      BX       lr
    $d
        0x01103336:    0000        ..      DCW    0
        0x01103338:    40015000    .P.@    DCD    1073827840
    $t
    i.idle_new
    idle_new
        0x0110333c:    e7fe        ..      B        idle_new ; 0x110333c
        0x0110333e:    0000        ..      MOVS     r0,r0
    i.input_event_islock
    input_event_islock
        0x01103340:    b510        ..      PUSH     {r4,lr}
        0x01103342:    f7fdfd89    ....    BL       _arch_irq_lock_s ; 0x1100e58
        0x01103346:    4903        .I      LDR      r1,[pc,#12] ; [0x1103354] = 0x20001b04
        0x01103348:    6809        .h      LDR      r1,[r1,#0]
        0x0110334a:    7d0c        .}      LDRB     r4,[r1,#0x14]
        0x0110334c:    f7fdfd88    ....    BL       _arch_irq_unlock_s ; 0x1100e60
        0x01103350:    4620         F      MOV      r0,r4
        0x01103352:    bd10        ..      POP      {r4,pc}
    $d
        0x01103354:    20001b04    ...     DCD    536877828
    $t
    i.input_event_lock
    input_event_lock
        0x01103358:    b510        ..      PUSH     {r4,lr}
        0x0110335a:    f7fdfd7d    ..}.    BL       _arch_irq_lock_s ; 0x1100e58
        0x0110335e:    4a04        .J      LDR      r2,[pc,#16] ; [0x1103370] = 0x20001b04
        0x01103360:    2101        .!      MOVS     r1,#1
        0x01103362:    6812        .h      LDR      r2,[r2,#0]
        0x01103364:    7511        .u      STRB     r1,[r2,#0x14]
        0x01103366:    f7fdfd7b    ..{.    BL       _arch_irq_unlock_s ; 0x1100e60
        0x0110336a:    2001        .       MOVS     r0,#1
        0x0110336c:    bd10        ..      POP      {r4,pc}
    $d
        0x0110336e:    0000        ..      DCW    0
        0x01103370:    20001b04    ...     DCD    536877828
    $t
    i.input_event_unlock
    input_event_unlock
        0x01103374:    b510        ..      PUSH     {r4,lr}
        0x01103376:    f7fdfd6f    ..o.    BL       _arch_irq_lock_s ; 0x1100e58
        0x0110337a:    4a04        .J      LDR      r2,[pc,#16] ; [0x110338c] = 0x20001b04
        0x0110337c:    2100        .!      MOVS     r1,#0
        0x0110337e:    6812        .h      LDR      r2,[r2,#0]
        0x01103380:    7511        .u      STRB     r1,[r2,#0x14]
        0x01103382:    f7fdfd6d    ..m.    BL       _arch_irq_unlock_s ; 0x1100e60
        0x01103386:    2001        .       MOVS     r0,#1
        0x01103388:    bd10        ..      POP      {r4,pc}
    $d
        0x0110338a:    0000        ..      DCW    0
        0x0110338c:    20001b04    ...     DCD    536877828
    $t
    i.ir_btn_ind_timeout_event
    ir_btn_ind_timeout_event
        0x01103390:    b510        ..      PUSH     {r4,lr}
        0x01103392:    22c8        ."      MOVS     r2,#0xc8
        0x01103394:    2101        .!      MOVS     r1,#1
        0x01103396:    200a        .       MOVS     r0,#0xa
        0x01103398:    f000fb7e    ..~.    BL       led_set_state ; 0x1103a98
        0x0110339c:    bd10        ..      POP      {r4,pc}
        0x0110339e:    0000        ..      MOVS     r0,r0
    i.ir_btn_led_indication
    ir_btn_led_indication
        0x011033a0:    b510        ..      PUSH     {r4,lr}
        0x011033a2:    22c8        ."      MOVS     r2,#0xc8
        0x011033a4:    2100        .!      MOVS     r1,#0
        0x011033a6:    200a        .       MOVS     r0,#0xa
        0x011033a8:    f000fb76    ..v.    BL       led_set_state ; 0x1103a98
        0x011033ac:    21ff        .!      MOVS     r1,#0xff
        0x011033ae:    3191        .1      ADDS     r1,r1,#0x91
        0x011033b0:    4801        .H      LDR      r0,[pc,#4] ; [0x11033b8] = 0x20005c54
        0x011033b2:    f000fa07    ....    BL       k_delayed_work_submit ; 0x11037c4
        0x011033b6:    bd10        ..      POP      {r4,pc}
    $d
        0x011033b8:    20005c54    T\.     DCD    536894548
    $t
    i.irc_acts_init
    irc_acts_init
        0x011033bc:    b510        ..      PUSH     {r4,lr}
        0x011033be:    4808        .H      LDR      r0,[pc,#32] ; [0x11033e0] = 0x20005a30
        0x011033c0:    4906        .I      LDR      r1,[pc,#24] ; [0x11033dc] = 0x20001788
        0x011033c2:    6381        .c      STR      r1,[r0,#0x38]
        0x011033c4:    4907        .I      LDR      r1,[pc,#28] ; [0x11033e4] = 0x11033e9
        0x011033c6:    63c1        .c      STR      r1,[r0,#0x3c]
        0x011033c8:    2200        ."      MOVS     r2,#0
        0x011033ca:    4611        .F      MOV      r1,r2
        0x011033cc:    2017        .       MOVS     r0,#0x17
        0x011033ce:    f7fdfe9b    ....    BL       $Ven$TT$L$$_irq_priority_set ; 0x1101108
        0x011033d2:    2017        .       MOVS     r0,#0x17
        0x011033d4:    f7fdfed4    ....    BL       $Ven$TT$L$$_arch_irq_enable ; 0x1101180
        0x011033d8:    2000        .       MOVS     r0,#0
        0x011033da:    bd10        ..      POP      {r4,pc}
    $d
        0x011033dc:    20001788    ...     DCD    536876936
        0x011033e0:    20005a30    0Z.     DCD    536894000
        0x011033e4:    011033e9    .3..    DCD    17839081
    $t
    i.irc_acts_isr
    irc_acts_isr
        0x011033e8:    b570        p.      PUSH     {r4-r6,lr}
        0x011033ea:    4605        .F      MOV      r5,r0
        0x011033ec:    6800        .h      LDR      r0,[r0,#0]
        0x011033ee:    4e19        .N      LDR      r6,[pc,#100] ; [0x1103454] = 0x40010104
        0x011033f0:    68c0        .h      LDR      r0,[r0,#0xc]
        0x011033f2:    68ac        .h      LDR      r4,[r5,#8]
        0x011033f4:    6831        1h      LDR      r1,[r6,#0]
        0x011033f6:    07c9        ..      LSLS     r1,r1,#31
        0x011033f8:    d02b        +.      BEQ      0x1103452 ; irc_acts_isr + 106
        0x011033fa:    7862        bx      LDRB     r2,[r4,#1]
        0x011033fc:    1f31        1.      SUBS     r1,r6,#4
        0x011033fe:    2a01        .*      CMP      r2,#1
        0x01103400:    d009        ..      BEQ      0x1103416 ; irc_acts_isr + 46
        0x01103402:    2200        ."      MOVS     r2,#0
        0x01103404:    7022        "p      STRB     r2,[r4,#0]
        0x01103406:    600a        .`      STR      r2,[r1,#0]
        0x01103408:    4a13        .J      LDR      r2,[pc,#76] ; [0x1103458] = 0x40016058
        0x0110340a:    68a1        .h      LDR      r1,[r4,#8]
        0x0110340c:    6011        .`      STR      r1,[r2,#0]
        0x0110340e:    6921        !i      LDR      r1,[r4,#0x10]
        0x01103410:    2900        .)      CMP      r1,#0
        0x01103412:    d014        ..      BEQ      0x110343e ; irc_acts_isr + 86
        0x01103414:    e019        ..      B        0x110344a ; irc_acts_isr + 98
        0x01103416:    88a2        ..      LDRH     r2,[r4,#4]
        0x01103418:    8860        `.      LDRH     r0,[r4,#2]
        0x0110341a:    4282        .B      CMP      r2,r0
        0x0110341c:    d003        ..      BEQ      0x1103426 ; irc_acts_isr + 62
        0x0110341e:    4a0d        .J      LDR      r2,[pc,#52] ; [0x1103454] = 0x40010104
        0x01103420:    3208        .2      ADDS     r2,r2,#8
        0x01103422:    6010        .`      STR      r0,[r2,#0]
        0x01103424:    e003        ..      B        0x110342e ; irc_acts_isr + 70
        0x01103426:    6808        .h      LDR      r0,[r1,#0]
        0x01103428:    2210        ."      MOVS     r2,#0x10
        0x0110342a:    4310        .C      ORRS     r0,r0,r2
        0x0110342c:    6008        .`      STR      r0,[r1,#0]
        0x0110342e:    6808        .h      LDR      r0,[r1,#0]
        0x01103430:    2201        ."      MOVS     r2,#1
        0x01103432:    0252        R.      LSLS     r2,r2,#9
        0x01103434:    4310        .C      ORRS     r0,r0,r2
        0x01103436:    6008        .`      STR      r0,[r1,#0]
        0x01103438:    2001        .       MOVS     r0,#1
        0x0110343a:    7020         p      STRB     r0,[r4,#0]
        0x0110343c:    e005        ..      B        0x110344a ; irc_acts_isr + 98
        0x0110343e:    7a00        .z      LDRB     r0,[r0,#8]
        0x01103440:    f7fef88a    ....    BL       $Ven$TT$L$$acts_clock_peripheral_disable ; 0x1101558
        0x01103444:    4628        (F      MOV      r0,r5
        0x01103446:    f7fdffc1    ....    BL       $Ven$TT$L$$device_busy_clear ; 0x11013cc
        0x0110344a:    8860        `.      LDRH     r0,[r4,#2]
        0x0110344c:    80a0        ..      STRH     r0,[r4,#4]
        0x0110344e:    2001        .       MOVS     r0,#1
        0x01103450:    6030        0`      STR      r0,[r6,#0]
        0x01103452:    bd70        p.      POP      {r4-r6,pc}
    $d
        0x01103454:    40010104    ...@    DCD    1073807620
        0x01103458:    40016058    X`.@    DCD    1073832024
    $t
    i.irc_acts_output_key
    irc_acts_output_key
        0x0110345c:    b5f3        ..      PUSH     {r0,r1,r4-r7,lr}
        0x0110345e:    b081        ..      SUB      sp,sp,#4
        0x01103460:    9801        ..      LDR      r0,[sp,#4]
        0x01103462:    460e        .F      MOV      r6,r1
        0x01103464:    6800        .h      LDR      r0,[r0,#0]
        0x01103466:    68c5        .h      LDR      r5,[r0,#0xc]
        0x01103468:    9801        ..      LDR      r0,[sp,#4]
        0x0110346a:    6884        .h      LDR      r4,[r0,#8]
        0x0110346c:    f7fdfcf4    ....    BL       _arch_irq_lock_s ; 0x1100e58
        0x01103470:    4607        .F      MOV      r7,r0
        0x01103472:    88e8        ..      LDRH     r0,[r5,#6]
        0x01103474:    2800        .(      CMP      r0,#0
        0x01103476:    d001        ..      BEQ      0x110347c ; irc_acts_output_key + 32
        0x01103478:    2801        .(      CMP      r0,#1
        0x0110347a:    d105        ..      BNE      0x1103488 ; irc_acts_output_key + 44
        0x0110347c:    78b0        .x      LDRB     r0,[r6,#2]
        0x0110347e:    21ff        .!      MOVS     r1,#0xff
        0x01103480:    4041        A@      EORS     r1,r1,r0
        0x01103482:    0209        ..      LSLS     r1,r1,#8
        0x01103484:    4301        .C      ORRS     r1,r1,r0
        0x01103486:    8071        q.      STRH     r1,[r6,#2]
        0x01103488:    7930        0y      LDRB     r0,[r6,#4]
        0x0110348a:    7060        `p      STRB     r0,[r4,#1]
        0x0110348c:    8871        q.      LDRH     r1,[r6,#2]
        0x0110348e:    8061        a.      STRH     r1,[r4,#2]
        0x01103490:    2801        .(      CMP      r0,#1
        0x01103492:    d12c        ,.      BNE      0x11034ee ; irc_acts_output_key + 146
        0x01103494:    7820         x      LDRB     r0,[r4,#0]
        0x01103496:    2800        .(      CMP      r0,#0
        0x01103498:    d129        ).      BNE      0x11034ee ; irc_acts_output_key + 146
        0x0110349a:    6920         i      LDR      r0,[r4,#0x10]
        0x0110349c:    2800        .(      CMP      r0,#0
        0x0110349e:    d108        ..      BNE      0x11034b2 ; irc_acts_output_key + 86
        0x011034a0:    9801        ..      LDR      r0,[sp,#4]
        0x011034a2:    f7fdff9f    ....    BL       $Ven$TT$L$$device_busy_set ; 0x11013e4
        0x011034a6:    7a68        hz      LDRB     r0,[r5,#9]
        0x011034a8:    f7fdff8a    ....    BL       $Ven$TT$L$$acts_reset_peripheral ; 0x11013c0
        0x011034ac:    7a28        (z      LDRB     r0,[r5,#8]
        0x011034ae:    f7fef84d    ..M.    BL       $Ven$TT$L$$acts_clock_peripheral_enable ; 0x110154c
        0x011034b2:    4811        .H      LDR      r0,[pc,#68] ; [0x11034f8] = 0x40016058
        0x011034b4:    6801        .h      LDR      r1,[r0,#0]
        0x011034b6:    60a1        .`      STR      r1,[r4,#8]
        0x011034b8:    4910        .I      LDR      r1,[pc,#64] ; [0x11034fc] = 0x100e
        0x011034ba:    6001        .`      STR      r1,[r0,#0]
        0x011034bc:    4910        .I      LDR      r1,[pc,#64] ; [0x1103500] = 0x40010108
        0x011034be:    88a8        ..      LDRH     r0,[r5,#4]
        0x011034c0:    6008        .`      STR      r0,[r1,#0]
        0x011034c2:    8860        `.      LDRH     r0,[r4,#2]
        0x011034c4:    1d09        ..      ADDS     r1,r1,#4
        0x011034c6:    6008        .`      STR      r0,[r1,#0]
        0x011034c8:    88e9        ..      LDRH     r1,[r5,#6]
        0x011034ca:    200c        .       MOVS     r0,#0xc
        0x011034cc:    4301        .C      ORRS     r1,r1,r0
        0x011034ce:    480c        .H      LDR      r0,[pc,#48] ; [0x1103500] = 0x40010108
        0x011034d0:    3808        .8      SUBS     r0,r0,#8
        0x011034d2:    6001        .`      STR      r1,[r0,#0]
        0x011034d4:    6801        .h      LDR      r1,[r0,#0]
        0x011034d6:    22ff        ."      MOVS     r2,#0xff
        0x011034d8:    3261        a2      ADDS     r2,r2,#0x61
        0x011034da:    4311        .C      ORRS     r1,r1,r2
        0x011034dc:    6001        .`      STR      r1,[r0,#0]
        0x011034de:    6801        .h      LDR      r1,[r0,#0]
        0x011034e0:    1542        B.      ASRS     r2,r0,#21
        0x011034e2:    4311        .C      ORRS     r1,r1,r2
        0x011034e4:    6001        .`      STR      r1,[r0,#0]
        0x011034e6:    2001        .       MOVS     r0,#1
        0x011034e8:    7020         p      STRB     r0,[r4,#0]
        0x011034ea:    8860        `.      LDRH     r0,[r4,#2]
        0x011034ec:    80a0        ..      STRH     r0,[r4,#4]
        0x011034ee:    4638        8F      MOV      r0,r7
        0x011034f0:    f7fdfcb6    ....    BL       _arch_irq_unlock_s ; 0x1100e60
        0x011034f4:    2000        .       MOVS     r0,#0
        0x011034f6:    bdfe        ..      POP      {r1-r7,pc}
    $d
        0x011034f8:    40016058    X`.@    DCD    1073832024
        0x011034fc:    0000100e    ....    DCD    4110
        0x01103500:    40010108    ...@    DCD    1073807624
    $t
    i.irc_device_open
    irc_device_open
        0x01103504:    b510        ..      PUSH     {r4,lr}
        0x01103506:    4c08        .L      LDR      r4,[pc,#32] ; [0x1103528] = 0x200021a4
        0x01103508:    f7fffce4    ....    BL       device_get_binding ; 0x1102ed4
        0x0110350c:    6020         `      STR      r0,[r4,#0]
        0x0110350e:    2800        .(      CMP      r0,#0
        0x01103510:    d001        ..      BEQ      0x1103516 ; irc_device_open + 18
        0x01103512:    4620         F      MOV      r0,r4
        0x01103514:    bd10        ..      POP      {r4,pc}
        0x01103516:    a305        ..      ADR      r3,{pc}+0x16 ; 0x110352c
        0x01103518:    a204        ..      ADR      r2,{pc}+0x14 ; 0x110352c
        0x0110351a:    a105        ..      ADR      r1,{pc}+0x16 ; 0x1103530
        0x0110351c:    a005        ..      ADR      r0,{pc}+0x18 ; 0x1103534
        0x0110351e:    f7fdfdc3    ....    BL       $Ven$TT$L$$printk ; 0x11010a8
        0x01103522:    2000        .       MOVS     r0,#0
        0x01103524:    bd10        ..      POP      {r4,pc}
    $d
        0x01103526:    0000        ..      DCW    0
        0x01103528:    200021a4    .!.     DCD    536879524
        0x0110352c:    00000000    ....    DCD    0
        0x01103530:    00637269    irc.    DCD    6517353
        0x01103534:    5d73255b    [%s]    DCD    1567827291
        0x01103538:    63732520     %sc    DCD    1668490528
        0x0110353c:    6f6e6e61    anno    DCD    1869508193
        0x01103540:    6f662074    t fo    DCD    1868963956
        0x01103544:    20646e75    und     DCD    543452789
        0x01103548:    20637269    irc     DCD    543388265
        0x0110354c:    25766564    dev%    DCD    628516196
        0x01103550:    00000a73    s...    DCD    2675
    $t
    i.irc_device_send_key
    irc_device_send_key
        0x01103554:    b57c        |.      PUSH     {r2-r6,lr}
        0x01103556:    4615        .F      MOV      r5,r2
        0x01103558:    4604        .F      MOV      r4,r0
        0x0110355a:    2001        .       MOVS     r0,#1
        0x0110355c:    466a        jF      MOV      r2,sp
        0x0110355e:    8010        ..      STRH     r0,[r2,#0]
        0x01103560:    8051        Q.      STRH     r1,[r2,#2]
        0x01103562:    9501        ..      STR      r5,[sp,#4]
        0x01103564:    6820         h      LDR      r0,[r4,#0]
        0x01103566:    4669        iF      MOV      r1,sp
        0x01103568:    6842        Bh      LDR      r2,[r0,#4]
        0x0110356a:    6912        .i      LDR      r2,[r2,#0x10]
        0x0110356c:    4790        .G      BLX      r2
        0x0110356e:    7125        %q      STRB     r5,[r4,#4]
        0x01103570:    bd7c        |.      POP      {r2-r6,pc}
    i.irc_device_state_get
    irc_device_state_get
        0x01103572:    7900        .y      LDRB     r0,[r0,#4]
        0x01103574:    4770        pG      BX       lr
    i.irc_rx_ind_timeout_event
    irc_rx_ind_timeout_event
        0x01103576:    b510        ..      PUSH     {r4,lr}
        0x01103578:    22ff        ."      MOVS     r2,#0xff
        0x0110357a:    32f5        .2      ADDS     r2,r2,#0xf5
        0x0110357c:    2101        .!      MOVS     r1,#1
        0x0110357e:    2006        .       MOVS     r0,#6
        0x01103580:    f000fa8a    ....    BL       led_set_state ; 0x1103a98
        0x01103584:    bd10        ..      POP      {r4,pc}
    i.irc_tx_ind_timeout_event
    irc_tx_ind_timeout_event
        0x01103586:    b510        ..      PUSH     {r4,lr}
        0x01103588:    22fa        ."      MOVS     r2,#0xfa
        0x0110358a:    2101        .!      MOVS     r1,#1
        0x0110358c:    2007        .       MOVS     r0,#7
        0x0110358e:    f000fa83    ....    BL       led_set_state ; 0x1103a98
        0x01103592:    bd10        ..      POP      {r4,pc}
    i.is_need_deliver_to_app
    is_need_deliver_to_app
        0x01103594:    b5f8        ..      PUSH     {r3-r7,lr}
        0x01103596:    4606        .F      MOV      r6,r0
        0x01103598:    2501        .%      MOVS     r5,#1
        0x0110359a:    b280        ..      UXTH     r0,r0
        0x0110359c:    f7fefac4    ....    BL       acts_get_ble_keycode ; 0x1101b28
        0x011035a0:    493f        ?I      LDR      r1,[pc,#252] ; [0x11036a0] = 0xcb02
        0x011035a2:    4604        .F      MOV      r4,r0
        0x011035a4:    1a40        @.      SUBS     r0,r0,r1
        0x011035a6:    4f3f        ?O      LDR      r7,[pc,#252] ; [0x11036a4] = 0x20001a90
        0x011035a8:    428c        .B      CMP      r4,r1
        0x011035aa:    d042        B.      BEQ      0x1103632 ; is_need_deliver_to_app + 158
        0x011035ac:    dc08        ..      BGT      0x11035c0 ; is_need_deliver_to_app + 44
        0x011035ae:    483e        >H      LDR      r0,[pc,#248] ; [0x11036a8] = 0xfffffdf2
        0x011035b0:    1820         .      ADDS     r0,r4,r0
        0x011035b2:    d02d        -.      BEQ      0x1103610 ; is_need_deliver_to_app + 124
        0x011035b4:    493d        =I      LDR      r1,[pc,#244] ; [0x11036ac] = 0xffff370e
        0x011035b6:    1840        @.      ADDS     r0,r0,r1
        0x011035b8:    d03b        ;.      BEQ      0x1103632 ; is_need_deliver_to_app + 158
        0x011035ba:    2801        .(      CMP      r0,#1
        0x011035bc:    d106        ..      BNE      0x11035cc ; is_need_deliver_to_app + 56
        0x011035be:    e038        8.      B        0x1103632 ; is_need_deliver_to_app + 158
        0x011035c0:    2801        .(      CMP      r0,#1
        0x011035c2:    d036        6.      BEQ      0x1103632 ; is_need_deliver_to_app + 158
        0x011035c4:    2802        .(      CMP      r0,#2
        0x011035c6:    d034        4.      BEQ      0x1103632 ; is_need_deliver_to_app + 158
        0x011035c8:    2803        .(      CMP      r0,#3
        0x011035ca:    d04d        M.      BEQ      0x1103668 ; is_need_deliver_to_app + 212
        0x011035cc:    7838        8x      LDRB     r0,[r7,#0]
        0x011035ce:    2800        .(      CMP      r0,#0
        0x011035d0:    d00c        ..      BEQ      0x11035ec ; is_need_deliver_to_app + 88
        0x011035d2:    2004        .       MOVS     r0,#4
        0x011035d4:    f001fb62    ..b.    BL       rmc_timer_stop ; 0x1104c9c
        0x011035d8:    2000        .       MOVS     r0,#0
        0x011035da:    7038        8p      STRB     r0,[r7,#0]
        0x011035dc:    a034        4.      ADR      r0,{pc}+0xd4 ; 0x11036b0
        0x011035de:    9000        ..      STR      r0,[sp,#0]
        0x011035e0:    4623        #F      MOV      r3,r4
        0x011035e2:    a233        3.      ADR      r2,{pc}+0xce ; 0x11036b0
        0x011035e4:    a133        3.      ADR      r1,{pc}+0xd0 ; 0x11036b4
        0x011035e6:    a035        5.      ADR      r0,{pc}+0xd6 ; 0x11036bc
        0x011035e8:    f7fdfd5e    ..^.    BL       $Ven$TT$L$$printk ; 0x11010a8
        0x011035ec:    7878        xx      LDRB     r0,[r7,#1]
        0x011035ee:    2800        .(      CMP      r0,#0
        0x011035f0:    d00c        ..      BEQ      0x110360c ; is_need_deliver_to_app + 120
        0x011035f2:    2005        .       MOVS     r0,#5
        0x011035f4:    f001fb52    ..R.    BL       rmc_timer_stop ; 0x1104c9c
        0x011035f8:    2000        .       MOVS     r0,#0
        0x011035fa:    7078        xp      STRB     r0,[r7,#1]
        0x011035fc:    a02c        ,.      ADR      r0,{pc}+0xb4 ; 0x11036b0
        0x011035fe:    9000        ..      STR      r0,[sp,#0]
        0x01103600:    4623        #F      MOV      r3,r4
        0x01103602:    a22b        +.      ADR      r2,{pc}+0xae ; 0x11036b0
        0x01103604:    a12b        +.      ADR      r1,{pc}+0xb0 ; 0x11036b4
        0x01103606:    a037        7.      ADR      r0,{pc}+0xde ; 0x11036e4
        0x01103608:    f7fdfd4e    ..N.    BL       $Ven$TT$L$$printk ; 0x11010a8
        0x0110360c:    4628        (F      MOV      r0,r5
        0x0110360e:    bdf8        ..      POP      {r3-r7,pc}
        0x01103610:    00b0        ..      LSLS     r0,r6,#2
        0x01103612:    d506        ..      BPL      0x1103622 ; is_need_deliver_to_app + 142
        0x01103614:    f001fb26    ..&.    BL       rmc_sm_state_is_activing ; 0x1104c64
        0x01103618:    2800        .(      CMP      r0,#0
        0x0110361a:    d108        ..      BNE      0x110362e ; is_need_deliver_to_app + 154
        0x0110361c:    f7fff894    ....    BL       audio_send_start_flag ; 0x1102748
        0x01103620:    e005        ..      B        0x110362e ; is_need_deliver_to_app + 154
        0x01103622:    f001fb1f    ....    BL       rmc_sm_state_is_activing ; 0x1104c64
        0x01103626:    2800        .(      CMP      r0,#0
        0x01103628:    d101        ..      BNE      0x110362e ; is_need_deliver_to_app + 154
        0x0110362a:    f7fff8db    ....    BL       audio_send_stop_flag ; 0x11027e4
        0x0110362e:    2500        .%      MOVS     r5,#0
        0x01103630:    e7ec        ..      B        0x110360c ; is_need_deliver_to_app + 120
        0x01103632:    00b0        ..      LSLS     r0,r6,#2
        0x01103634:    d50c        ..      BPL      0x1103650 ; is_need_deliver_to_app + 188
        0x01103636:    2004        .       MOVS     r0,#4
        0x01103638:    f001fb1e    ....    BL       rmc_timer_start ; 0x1104c78
        0x0110363c:    80bc        ..      STRH     r4,[r7,#4]
        0x0110363e:    2001        .       MOVS     r0,#1
        0x01103640:    7038        8p      STRB     r0,[r7,#0]
        0x01103642:    a01b        ..      ADR      r0,{pc}+0x6e ; 0x11036b0
        0x01103644:    9000        ..      STR      r0,[sp,#0]
        0x01103646:    4623        #F      MOV      r3,r4
        0x01103648:    a219        ..      ADR      r2,{pc}+0x68 ; 0x11036b0
        0x0110364a:    a11a        ..      ADR      r1,{pc}+0x6a ; 0x11036b4
        0x0110364c:    a02f        /.      ADR      r0,{pc}+0xc0 ; 0x110370c
        0x0110364e:    e024        $.      B        0x110369a ; is_need_deliver_to_app + 262
        0x01103650:    2004        .       MOVS     r0,#4
        0x01103652:    f001fb23    ..#.    BL       rmc_timer_stop ; 0x1104c9c
        0x01103656:    2000        .       MOVS     r0,#0
        0x01103658:    7038        8p      STRB     r0,[r7,#0]
        0x0110365a:    a015        ..      ADR      r0,{pc}+0x56 ; 0x11036b0
        0x0110365c:    9000        ..      STR      r0,[sp,#0]
        0x0110365e:    4623        #F      MOV      r3,r4
        0x01103660:    a213        ..      ADR      r2,{pc}+0x50 ; 0x11036b0
        0x01103662:    a114        ..      ADR      r1,{pc}+0x52 ; 0x11036b4
        0x01103664:    a032        2.      ADR      r0,{pc}+0xcc ; 0x1103730
        0x01103666:    e018        ..      B        0x110369a ; is_need_deliver_to_app + 262
        0x01103668:    00b0        ..      LSLS     r0,r6,#2
        0x0110366a:    d50b        ..      BPL      0x1103684 ; is_need_deliver_to_app + 240
        0x0110366c:    2005        .       MOVS     r0,#5
        0x0110366e:    f001fb03    ....    BL       rmc_timer_start ; 0x1104c78
        0x01103672:    2001        .       MOVS     r0,#1
        0x01103674:    7078        xp      STRB     r0,[r7,#1]
        0x01103676:    a00e        ..      ADR      r0,{pc}+0x3a ; 0x11036b0
        0x01103678:    9000        ..      STR      r0,[sp,#0]
        0x0110367a:    4623        #F      MOV      r3,r4
        0x0110367c:    a20c        ..      ADR      r2,{pc}+0x34 ; 0x11036b0
        0x0110367e:    a10d        ..      ADR      r1,{pc}+0x36 ; 0x11036b4
        0x01103680:    a034        4.      ADR      r0,{pc}+0xd4 ; 0x1103754
        0x01103682:    e00a        ..      B        0x110369a ; is_need_deliver_to_app + 262
        0x01103684:    2005        .       MOVS     r0,#5
        0x01103686:    f001fb09    ....    BL       rmc_timer_stop ; 0x1104c9c
        0x0110368a:    2000        .       MOVS     r0,#0
        0x0110368c:    7078        xp      STRB     r0,[r7,#1]
        0x0110368e:    a008        ..      ADR      r0,{pc}+0x22 ; 0x11036b0
        0x01103690:    9000        ..      STR      r0,[sp,#0]
        0x01103692:    4623        #F      MOV      r3,r4
        0x01103694:    a206        ..      ADR      r2,{pc}+0x1c ; 0x11036b0
        0x01103696:    a107        ..      ADR      r1,{pc}+0x1e ; 0x11036b4
        0x01103698:    a037        7.      ADR      r0,{pc}+0xe0 ; 0x1103778
        0x0110369a:    f7fdfd05    ....    BL       $Ven$TT$L$$printk ; 0x11010a8
        0x0110369e:    e7c6        ..      B        0x110362e ; is_need_deliver_to_app + 154
    $d
        0x011036a0:    0000cb02    ....    DCD    51970
        0x011036a4:    20001a90    ...     DCD    536877712
        0x011036a8:    fffffdf2    ....    DCD    4294966770
        0x011036ac:    ffff370e    .7..    DCD    4294915854
        0x011036b0:    00000000    ....    DCD    0
        0x011036b4:    75706e69    inpu    DCD    1970302569
        0x011036b8:    00000074    t...    DCD    116
        0x011036bc:    5d73255b    [%s]    DCD    1567827291
        0x011036c0:    73732520     %ss    DCD    1936925984
        0x011036c4:    20706f74    top     DCD    544239476
        0x011036c8:    626d6f63    comb    DCD    1651339107
        0x011036cc:    79656b20     key    DCD    2036689696
        0x011036d0:    6d697420     tim    DCD    1835627552
        0x011036d4:    66207265    er f    DCD    1713402469
        0x011036d8:    3020726f    or 0    DCD    807432815
        0x011036dc:    25782578    x%x%    DCD    628630904
        0x011036e0:    00000a73    s...    DCD    2675
        0x011036e4:    5d73255b    [%s]    DCD    1567827291
        0x011036e8:    73732520     %ss    DCD    1936925984
        0x011036ec:    20706f74    top     DCD    544239476
        0x011036f0:    20696368    hci     DCD    543777640
        0x011036f4:    65646f6d    mode    DCD    1701080941
        0x011036f8:    6d697420     tim    DCD    1835627552
        0x011036fc:    66207265    er f    DCD    1713402469
        0x01103700:    3020726f    or 0    DCD    807432815
        0x01103704:    25782578    x%x%    DCD    628630904
        0x01103708:    00000a73    s...    DCD    2675
        0x0110370c:    5d73255b    [%s]    DCD    1567827291
        0x01103710:    73732520     %ss    DCD    1936925984
        0x01103714:    74726174    tart    DCD    1953653108
        0x01103718:    6d6f6320     com    DCD    1836016416
        0x0110371c:    656b2062    b ke    DCD    1701519458
        0x01103720:    69742079    y ti    DCD    1769218169
        0x01103724:    2072656d    mer     DCD    544367981
        0x01103728:    78257830    0x%x    DCD    2015721520
        0x0110372c:    000a7325    %s..    DCD    684837
        0x01103730:    5d73255b    [%s]    DCD    1567827291
        0x01103734:    73732520     %ss    DCD    1936925984
        0x01103738:    20706f74    top     DCD    544239476
        0x0110373c:    626d6f63    comb    DCD    1651339107
        0x01103740:    79656b20     key    DCD    2036689696
        0x01103744:    6d697420     tim    DCD    1835627552
        0x01103748:    30207265    er 0    DCD    807432805
        0x0110374c:    25782578    x%x%    DCD    628630904
        0x01103750:    00000a73    s...    DCD    2675
        0x01103754:    5d73255b    [%s]    DCD    1567827291
        0x01103758:    73732520     %ss    DCD    1936925984
        0x0110375c:    74726174    tart    DCD    1953653108
        0x01103760:    69636820     hci    DCD    1768122400
        0x01103764:    646f6d20     mod    DCD    1685024032
        0x01103768:    69742065    e ti    DCD    1769218149
        0x0110376c:    2072656d    mer     DCD    544367981
        0x01103770:    78257830    0x%x    DCD    2015721520
        0x01103774:    000a7325    %s..    DCD    684837
        0x01103778:    5d73255b    [%s]    DCD    1567827291
        0x0110377c:    73732520     %ss    DCD    1936925984
        0x01103780:    20706f74    top     DCD    544239476
        0x01103784:    20696368    hci     DCD    543777640
        0x01103788:    65646f6d    mode    DCD    1701080941
        0x0110378c:    6d697420     tim    DCD    1835627552
        0x01103790:    30207265    er 0    DCD    807432805
        0x01103794:    25782578    x%x%    DCD    628630904
        0x01103798:    00000a73    s...    DCD    2675
    $t
    i.is_need_report_hold
    is_need_report_hold
        0x0110379c:    2000        .       MOVS     r0,#0
        0x0110379e:    4770        pG      BX       lr
    i.is_need_report_hold_defalt
    is_need_report_hold_defalt
        0x011037a0:    2001        .       MOVS     r0,#1
        0x011037a2:    4770        pG      BX       lr
    i.is_paired
    is_paired
        0x011037a4:    b51c        ..      PUSH     {r2-r4,lr}
        0x011037a6:    2000        .       MOVS     r0,#0
        0x011037a8:    9000        ..      STR      r0,[sp,#0]
        0x011037aa:    9001        ..      STR      r0,[sp,#4]
        0x011037ac:    4804        .H      LDR      r0,[pc,#16] ; [0x11037c0] = 0x20005ac4
        0x011037ae:    4669        iF      MOV      r1,sp
        0x011037b0:    2207        ."      MOVS     r2,#7
        0x011037b2:    f7fdfe29    ..).    BL       $Ven$TT$L$$memcmp ; 0x1101408
        0x011037b6:    2800        .(      CMP      r0,#0
        0x011037b8:    d000        ..      BEQ      0x11037bc ; is_paired + 24
        0x011037ba:    2001        .       MOVS     r0,#1
        0x011037bc:    bd1c        ..      POP      {r2-r4,pc}
    $d
        0x011037be:    0000        ..      DCW    0
        0x011037c0:    20005ac4    .Z.     DCD    536894148
    $t
    i.k_delayed_work_submit
    k_delayed_work_submit
        0x011037c4:    460a        .F      MOV      r2,r1
        0x011037c6:    b510        ..      PUSH     {r4,lr}
        0x011037c8:    4601        .F      MOV      r1,r0
        0x011037ca:    4802        .H      LDR      r0,[pc,#8] ; [0x11037d4] = 0x200009cc
        0x011037cc:    f7fdfe4c    ..L.    BL       $Ven$TT$L$$k_delayed_work_submit_to_queue ; 0x1101468
        0x011037d0:    bd10        ..      POP      {r4,pc}
    $d
        0x011037d2:    0000        ..      DCW    0
        0x011037d4:    200009cc    ...     DCD    536873420
    $t
    i.key_device_open
    key_device_open
        0x011037d8:    b570        p.      PUSH     {r4-r6,lr}
        0x011037da:    4605        .F      MOV      r5,r0
        0x011037dc:    4c0c        .L      LDR      r4,[pc,#48] ; [0x1103810] = 0x200021ac
        0x011037de:    4608        .F      MOV      r0,r1
        0x011037e0:    f7fffb78    ..x.    BL       device_get_binding ; 0x1102ed4
        0x011037e4:    6020         `      STR      r0,[r4,#0]
        0x011037e6:    2800        .(      CMP      r0,#0
        0x011037e8:    d00a        ..      BEQ      0x1103800 ; key_device_open + 40
        0x011037ea:    6841        Ah      LDR      r1,[r0,#4]
        0x011037ec:    6809        .h      LDR      r1,[r1,#0]
        0x011037ee:    4788        .G      BLX      r1
        0x011037f0:    6820         h      LDR      r0,[r4,#0]
        0x011037f2:    4629        )F      MOV      r1,r5
        0x011037f4:    6842        Bh      LDR      r2,[r0,#4]
        0x011037f6:    6892        .h      LDR      r2,[r2,#8]
        0x011037f8:    4790        .G      BLX      r2
        0x011037fa:    4620         F      MOV      r0,r4
        0x011037fc:    6065        e`      STR      r5,[r4,#4]
        0x011037fe:    bd70        p.      POP      {r4-r6,pc}
        0x01103800:    a304        ..      ADR      r3,{pc}+0x14 ; 0x1103814
        0x01103802:    a204        ..      ADR      r2,{pc}+0x12 ; 0x1103814
        0x01103804:    a104        ..      ADR      r1,{pc}+0x14 ; 0x1103818
        0x01103806:    a005        ..      ADR      r0,{pc}+0x16 ; 0x110381c
        0x01103808:    f7fdfc4e    ..N.    BL       $Ven$TT$L$$printk ; 0x11010a8
        0x0110380c:    2000        .       MOVS     r0,#0
        0x0110380e:    bd70        p.      POP      {r4-r6,pc}
    $d
        0x01103810:    200021ac    .!.     DCD    536879532
        0x01103814:    00000000    ....    DCD    0
        0x01103818:    0079656b    key.    DCD    7955819
        0x0110381c:    5d73255b    [%s]    DCD    1567827291
        0x01103820:    63732520     %sc    DCD    1668490528
        0x01103824:    6f6e6e61    anno    DCD    1869508193
        0x01103828:    6f662074    t fo    DCD    1868963956
        0x0110382c:    20646e75    und     DCD    543452789
        0x01103830:    2079656b    key     DCD    544826731
        0x01103834:    25766564    dev%    DCD    628516196
        0x01103838:    00000a73    s...    DCD    2675
    $t
    i.key_event_handle
    key_event_handle
        0x0110383c:    b538        8.      PUSH     {r3-r5,lr}
        0x0110383e:    880b        ..      LDRH     r3,[r1,#0]
        0x01103840:    2b01        .+      CMP      r3,#1
        0x01103842:    d007        ..      BEQ      0x1103854 ; key_event_handle + 24
        0x01103844:    a01b        ..      ADR      r0,{pc}+0x70 ; 0x11038b4
        0x01103846:    9000        ..      STR      r0,[sp,#0]
        0x01103848:    a21a        ..      ADR      r2,{pc}+0x6c ; 0x11038b4
        0x0110384a:    a11b        ..      ADR      r1,{pc}+0x6e ; 0x11038b8
        0x0110384c:    a01c        ..      ADR      r0,{pc}+0x74 ; 0x11038c0
        0x0110384e:    f7fdfc2b    ..+.    BL       $Ven$TT$L$$printk ; 0x11010a8
        0x01103852:    bd38        8.      POP      {r3-r5,pc}
        0x01103854:    4c26        &L      LDR      r4,[pc,#152] ; [0x11038f0] = 0x20001b04
        0x01103856:    6848        Hh      LDR      r0,[r1,#4]
        0x01103858:    6822        "h      LDR      r2,[r4,#0]
        0x0110385a:    2800        .(      CMP      r0,#0
        0x0110385c:    d00d        ..      BEQ      0x110387a ; key_event_handle + 62
        0x0110385e:    2801        .(      CMP      r0,#1
        0x01103860:    d1f7        ..      BNE      0x1103852 ; key_event_handle + 22
        0x01103862:    8849        I.      LDRH     r1,[r1,#2]
        0x01103864:    2301        .#      MOVS     r3,#1
        0x01103866:    68d0        .h      LDR      r0,[r2,#0xc]
        0x01103868:    075b        [.      LSLS     r3,r3,#29
        0x0110386a:    4281        .B      CMP      r1,r0
        0x0110386c:    d102        ..      BNE      0x1103874 ; key_event_handle + 56
        0x0110386e:    6895        .h      LDR      r5,[r2,#8]
        0x01103870:    429d        .B      CMP      r5,r3
        0x01103872:    d008        ..      BEQ      0x1103886 ; key_event_handle + 74
        0x01103874:    6093        .`      STR      r3,[r2,#8]
        0x01103876:    60d1        .`      STR      r1,[r2,#0xc]
        0x01103878:    e00b        ..      B        0x1103892 ; key_event_handle + 86
        0x0110387a:    8848        H.      LDRH     r0,[r1,#2]
        0x0110387c:    60d0        .`      STR      r0,[r2,#0xc]
        0x0110387e:    2001        .       MOVS     r0,#1
        0x01103880:    0700        ..      LSLS     r0,r0,#28
        0x01103882:    6090        .`      STR      r0,[r2,#8]
        0x01103884:    e005        ..      B        0x1103892 ; key_event_handle + 86
        0x01103886:    6851        Qh      LDR      r1,[r2,#4]
        0x01103888:    2900        .)      CMP      r1,#0
        0x0110388a:    d0e2        ..      BEQ      0x1103852 ; key_event_handle + 22
        0x0110388c:    4788        .G      BLX      r1
        0x0110388e:    2800        .(      CMP      r0,#0
        0x01103890:    d0df        ..      BEQ      0x1103852 ; key_event_handle + 22
        0x01103892:    6821        !h      LDR      r1,[r4,#0]
        0x01103894:    68ca        .h      LDR      r2,[r1,#0xc]
        0x01103896:    6888        .h      LDR      r0,[r1,#8]
        0x01103898:    4310        .C      ORRS     r0,r0,r2
        0x0110389a:    6108        .a      STR      r0,[r1,#0x10]
        0x0110389c:    6809        .h      LDR      r1,[r1,#0]
        0x0110389e:    2900        .)      CMP      r1,#0
        0x011038a0:    d000        ..      BEQ      0x11038a4 ; key_event_handle + 104
        0x011038a2:    4788        .G      BLX      r1
        0x011038a4:    f7fffd4c    ..L.    BL       input_event_islock ; 0x1103340
        0x011038a8:    2800        .(      CMP      r0,#0
        0x011038aa:    d1d2        ..      BNE      0x1103852 ; key_event_handle + 22
        0x011038ac:    f000ff86    ....    BL       report_key_event ; 0x11047bc
        0x011038b0:    bd38        8.      POP      {r3-r5,pc}
    $d
        0x011038b2:    0000        ..      DCW    0
        0x011038b4:    00000000    ....    DCD    0
        0x011038b8:    75706e69    inpu    DCD    1970302569
        0x011038bc:    00000074    t...    DCD    116
        0x011038c0:    5d73255b    [%s]    DCD    1567827291
        0x011038c4:    69732520     %si    DCD    1769153824
        0x011038c8:    7475706e    nput    DCD    1953853550
        0x011038cc:    70797420     typ    DCD    1887007776
        0x011038d0:    6f6e2065    e no    DCD    1869488229
        0x011038d4:    75732074    t su    DCD    1970479220
        0x011038d8:    726f7070    ppor    DCD    1919905904
        0x011038dc:    61762074    t va    DCD    1635131508
        0x011038e0:    743e2d6c    l->t    DCD    1950231916
        0x011038e4:    20657079    ype     DCD    543518841
        0x011038e8:    73256425    %d%s    DCD    1931830309
        0x011038ec:    0000000a    ....    DCD    10
        0x011038f0:    20001b04    ...     DCD    536877828
    $t
    i.le_conn_update_new
    le_conn_update_new
        0x011038f4:    b57c        |.      PUSH     {r2-r6,lr}
        0x011038f6:    4604        .F      MOV      r4,r0
        0x011038f8:    3c74        t<      SUBS     r4,r4,#0x74
        0x011038fa:    7b20         {      LDRB     r0,[r4,#0xc]
        0x011038fc:    2802        .(      CMP      r0,#2
        0x011038fe:    d007        ..      BEQ      0x1103910 ; le_conn_update_new + 28
        0x01103900:    4d15        .M      LDR      r5,[pc,#84] ; [0x1103958] = 0x200021bc
        0x01103902:    6868        hh      LDR      r0,[r5,#4]
        0x01103904:    2800        .(      CMP      r0,#0
        0x01103906:    d011        ..      BEQ      0x110392c ; le_conn_update_new + 56
        0x01103908:    4780        .G      BLX      r0
        0x0110390a:    2800        .(      CMP      r0,#0
        0x0110390c:    d005        ..      BEQ      0x110391a ; le_conn_update_new + 38
        0x0110390e:    e00d        ..      B        0x110392c ; le_conn_update_new + 56
        0x01103910:    2113        .!      MOVS     r1,#0x13
        0x01103912:    4620         F      MOV      r0,r4
        0x01103914:    f7fdfe26    ..&.    BL       $Ven$TT$L$$bt_conn_disconnect ; 0x1101564
        0x01103918:    bd7c        |.      POP      {r2-r6,pc}
        0x0110391a:    7828        (x      LDRB     r0,[r5,#0]
        0x0110391c:    1c41        A.      ADDS     r1,r0,#1
        0x0110391e:    7029        )p      STRB     r1,[r5,#0]
        0x01103920:    281e        .(      CMP      r0,#0x1e
        0x01103922:    d203        ..      BCS      0x110392c ; le_conn_update_new + 56
        0x01103924:    4620         F      MOV      r0,r4
        0x01103926:    f7fdfe23    ..#.    BL       $Ven$TT$L$$update_conn_param ; 0x1101570
        0x0110392a:    bd7c        |.      POP      {r2-r6,pc}
        0x0110392c:    2000        .       MOVS     r0,#0
        0x0110392e:    7028        (p      STRB     r0,[r5,#0]
        0x01103930:    480a        .H      LDR      r0,[pc,#40] ; [0x110395c] = 0x20000c24
        0x01103932:    6801        .h      LDR      r1,[r0,#0]
        0x01103934:    2900        .)      CMP      r1,#0
        0x01103936:    d10b        ..      BNE      0x1103950 ; le_conn_update_new + 92
        0x01103938:    4620         F      MOV      r0,r4
        0x0110393a:    3040        @0      ADDS     r0,r0,#0x40
        0x0110393c:    8c01        ..      LDRH     r1,[r0,#0x20]
        0x0110393e:    466a        jF      MOV      r2,sp
        0x01103940:    8011        ..      STRH     r1,[r2,#0]
        0x01103942:    8c41        A.      LDRH     r1,[r0,#0x22]
        0x01103944:    8051        Q.      STRH     r1,[r2,#2]
        0x01103946:    8c81        ..      LDRH     r1,[r0,#0x24]
        0x01103948:    8091        ..      STRH     r1,[r2,#4]
        0x0110394a:    8cc0        ..      LDRH     r0,[r0,#0x26]
        0x0110394c:    80d0        ..      STRH     r0,[r2,#6]
        0x0110394e:    4669        iF      MOV      r1,sp
        0x01103950:    4620         F      MOV      r0,r4
        0x01103952:    f7fdfe13    ....    BL       $Ven$TT$L$$bt_conn_le_param_update ; 0x110157c
        0x01103956:    bd7c        |.      POP      {r2-r6,pc}
    $d
        0x01103958:    200021bc    .!.     DCD    536879548
        0x0110395c:    20000c24    $..     DCD    536874020
    $t
    i.le_identity_resolved
    le_identity_resolved
        0x01103960:    b510        ..      PUSH     {r4,lr}
        0x01103962:    b088        ..      SUB      sp,sp,#0x20
        0x01103964:    4614        .F      MOV      r4,r2
        0x01103966:    4608        .F      MOV      r0,r1
        0x01103968:    221b        ."      MOVS     r2,#0x1b
        0x0110396a:    a901        ..      ADD      r1,sp,#4
        0x0110396c:    f7fff82c    ..,.    BL       bt_addr_le_to_str ; 0x11029c8
        0x01103970:    a007        ..      ADR      r0,{pc}+0x20 ; 0x1103990
        0x01103972:    9000        ..      STR      r0,[sp,#0]
        0x01103974:    ab01        ..      ADD      r3,sp,#4
        0x01103976:    a206        ..      ADR      r2,{pc}+0x1a ; 0x1103990
        0x01103978:    a106        ..      ADR      r1,{pc}+0x1c ; 0x1103994
        0x0110397a:    a007        ..      ADR      r0,{pc}+0x1e ; 0x1103998
        0x0110397c:    f7fdfb94    ....    BL       $Ven$TT$L$$printk ; 0x11010a8
        0x01103980:    221b        ."      MOVS     r2,#0x1b
        0x01103982:    a901        ..      ADD      r1,sp,#4
        0x01103984:    4620         F      MOV      r0,r4
        0x01103986:    f7fff81f    ....    BL       bt_addr_le_to_str ; 0x11029c8
        0x0110398a:    b008        ..      ADD      sp,sp,#0x20
        0x0110398c:    bd10        ..      POP      {r4,pc}
    $d
        0x0110398e:    0000        ..      DCW    0
        0x01103990:    00000000    ....    DCD    0
        0x01103994:    00656c62    ble.    DCD    6646882
        0x01103998:    5d73255b    [%s]    DCD    1567827291
        0x0110399c:    6c732520     %sl    DCD    1819485472
        0x011039a0:    64695f65    e_id    DCD    1684627301
        0x011039a4:    69746e65    enti    DCD    1769238117
        0x011039a8:    725f7974    ty_r    DCD    1918859636
        0x011039ac:    6c6f7365    esol    DCD    1819243365
        0x011039b0:    20646576    ved     DCD    543450486
        0x011039b4:    20617072    rpa     DCD    543256690
        0x011039b8:    73257325    %s%s    DCD    1931834149
        0x011039bc:    0000000a    ....    DCD    10
    $t
    i.le_param_updated
    le_param_updated
        0x011039c0:    b50e        ..      PUSH     {r1-r3,lr}
        0x011039c2:    a005        ..      ADR      r0,{pc}+0x16 ; 0x11039d8
        0x011039c4:    9301        ..      STR      r3,[sp,#4]
        0x011039c6:    9200        ..      STR      r2,[sp,#0]
        0x011039c8:    9002        ..      STR      r0,[sp,#8]
        0x011039ca:    460b        .F      MOV      r3,r1
        0x011039cc:    a202        ..      ADR      r2,{pc}+0xc ; 0x11039d8
        0x011039ce:    a103        ..      ADR      r1,{pc}+0xe ; 0x11039dc
        0x011039d0:    a003        ..      ADR      r0,{pc}+0x10 ; 0x11039e0
        0x011039d2:    f7fdfb69    ..i.    BL       $Ven$TT$L$$printk ; 0x11010a8
        0x011039d6:    bd0e        ..      POP      {r1-r3,pc}
    $d
        0x011039d8:    00000000    ....    DCD    0
        0x011039dc:    00656c62    ble.    DCD    6646882
        0x011039e0:    5d73255b    [%s]    DCD    1567827291
        0x011039e4:    4c732520     %sL    DCD    1282614560
        0x011039e8:    6f632045    E co    DCD    1868767301
        0x011039ec:    70206e6e    nn p    DCD    1881173614
        0x011039f0:    6d617261    aram    DCD    1835102817
        0x011039f4:    64707520     upd    DCD    1685091616
        0x011039f8:    64657461    ated    DCD    1684370529
        0x011039fc:    6e69203a    : in    DCD    1852383290
        0x01103a00:    78302074    t 0x    DCD    2016419956
        0x01103a04:    78343025    %04x    DCD    2016686117
        0x01103a08:    74616c20     lat    DCD    1952541728
        0x01103a0c:    20642520     %d     DCD    543434016
        0x01103a10:    25206f74    to %    DCD    622882676
        0x01103a14:    0a732564    d%s.    DCD    175318372
        0x01103a18:    00000000    ....    DCD    0
    $t
    i.led_device_init
    led_device_init
        0x01103a1c:    b570        p.      PUSH     {r4-r6,lr}
        0x01103a1e:    4605        .F      MOV      r5,r0
        0x01103a20:    7848        Hx      LDRB     r0,[r1,#1]
        0x01103a22:    460c        .F      MOV      r4,r1
        0x01103a24:    28ff        .(      CMP      r0,#0xff
        0x01103a26:    d014        ..      BEQ      0x1103a52 ; led_device_init + 54
        0x01103a28:    a00f        ..      ADR      r0,{pc}+0x40 ; 0x1103a68
        0x01103a2a:    f7fffa53    ..S.    BL       device_get_binding ; 0x1102ed4
        0x01103a2e:    6028        (`      STR      r0,[r5,#0]
        0x01103a30:    2800        .(      CMP      r0,#0
        0x01103a32:    d012        ..      BEQ      0x1103a5a ; led_device_init + 62
        0x01103a34:    4629        )F      MOV      r1,r5
        0x01103a36:    7822        "x      LDRB     r2,[r4,#0]
        0x01103a38:    3120         1      ADDS     r1,r1,#0x20
        0x01103a3a:    764a        Jv      STRB     r2,[r1,#0x19]
        0x01103a3c:    7862        bx      LDRB     r2,[r4,#1]
        0x01103a3e:    768a        .v      STRB     r2,[r1,#0x1a]
        0x01103a40:    78a2        .x      LDRB     r2,[r4,#2]
        0x01103a42:    76ca        .v      STRB     r2,[r1,#0x1b]
        0x01103a44:    6843        Ch      LDR      r3,[r0,#4]
        0x01103a46:    7861        ax      LDRB     r1,[r4,#1]
        0x01103a48:    689b        .h      LDR      r3,[r3,#8]
        0x01103a4a:    78a2        .x      LDRB     r2,[r4,#2]
        0x01103a4c:    4798        .G      BLX      r3
        0x01103a4e:    2000        .       MOVS     r0,#0
        0x01103a50:    6428        (d      STR      r0,[r5,#0x40]
        0x01103a52:    4628        (F      MOV      r0,r5
        0x01103a54:    f000fec6    ....    BL       reset_led_state ; 0x11047e4
        0x01103a58:    bd70        p.      POP      {r4-r6,pc}
        0x01103a5a:    a305        ..      ADR      r3,{pc}+0x16 ; 0x1103a70
        0x01103a5c:    a204        ..      ADR      r2,{pc}+0x14 ; 0x1103a70
        0x01103a5e:    a105        ..      ADR      r1,{pc}+0x16 ; 0x1103a74
        0x01103a60:    a005        ..      ADR      r0,{pc}+0x18 ; 0x1103a78
        0x01103a62:    f7fdfb21    ..!.    BL       $Ven$TT$L$$printk ; 0x11010a8
        0x01103a66:    bd70        p.      POP      {r4-r6,pc}
    $d
        0x01103a68:    5f4d5750    PWM_    DCD    1598904144
        0x01103a6c:    00000030    0...    DCD    48
        0x01103a70:    00000000    ....    DCD    0
        0x01103a74:    0064656c    led.    DCD    6579564
        0x01103a78:    5d73255b    [%s]    DCD    1567827291
        0x01103a7c:    63732520     %sc    DCD    1668490528
        0x01103a80:    6f6e6e61    anno    DCD    1869508193
        0x01103a84:    6f662074    t fo    DCD    1868963956
        0x01103a88:    20646e75    und     DCD    543452789
        0x01103a8c:    20766564    dev     DCD    544630116
        0x01103a90:    256d7770    pwm%    DCD    627930992
        0x01103a94:    00000a73    s...    DCD    2675
    $t
    i.led_set_state
    led_set_state
        0x01103a98:    b5f8        ..      PUSH     {r3-r7,lr}
        0x01103a9a:    4605        .F      MOV      r5,r0
        0x01103a9c:    2000        .       MOVS     r0,#0
        0x01103a9e:    4e0d        .N      LDR      r6,[pc,#52] ; [0x1103ad4] = 0x200061e4
        0x01103aa0:    4603        .F      MOV      r3,r0
        0x01103aa2:    2454        T$      MOVS     r4,#0x54
        0x01103aa4:    435c        \C      MULS     r4,r3,r4
        0x01103aa6:    19a4        ..      ADDS     r4,r4,r6
        0x01103aa8:    2739        9'      MOVS     r7,#0x39
        0x01103aaa:    5d3f        ?]      LDRB     r7,[r7,r4]
        0x01103aac:    42af        .B      CMP      r7,r5
        0x01103aae:    d100        ..      BNE      0x1103ab2 ; led_set_state + 26
        0x01103ab0:    4620         F      MOV      r0,r4
        0x01103ab2:    1c5b        [.      ADDS     r3,r3,#1
        0x01103ab4:    2b03        .+      CMP      r3,#3
        0x01103ab6:    d3f4        ..      BCC      0x1103aa2 ; led_set_state + 10
        0x01103ab8:    2800        .(      CMP      r0,#0
        0x01103aba:    d003        ..      BEQ      0x1103ac4 ; led_set_state + 44
        0x01103abc:    b2c9        ..      UXTB     r1,r1
        0x01103abe:    f001fb03    ....    BL       set_led_status ; 0x11050c8
        0x01103ac2:    bdf8        ..      POP      {r3-r7,pc}
        0x01103ac4:    a304        ..      ADR      r3,{pc}+0x14 ; 0x1103ad8
        0x01103ac6:    a204        ..      ADR      r2,{pc}+0x12 ; 0x1103ad8
        0x01103ac8:    a104        ..      ADR      r1,{pc}+0x14 ; 0x1103adc
        0x01103aca:    a005        ..      ADR      r0,{pc}+0x16 ; 0x1103ae0
        0x01103acc:    f7fdfaec    ....    BL       $Ven$TT$L$$printk ; 0x11010a8
        0x01103ad0:    bdf8        ..      POP      {r3-r7,pc}
    $d
        0x01103ad2:    0000        ..      DCW    0
        0x01103ad4:    200061e4    .a.     DCD    536895972
        0x01103ad8:    00000000    ....    DCD    0
        0x01103adc:    0064656c    led.    DCD    6579564
        0x01103ae0:    5d73255b    [%s]    DCD    1567827291
        0x01103ae4:    6c732520     %sl    DCD    1819485472
        0x01103ae8:    6e206465    ed n    DCD    1847616613
        0x01103aec:    6320746f    ot c    DCD    1663071343
        0x01103af0:    69666e6f    onfi    DCD    1768320623
        0x01103af4:    0a732567    g%s.    DCD    175318375
        0x01103af8:    00000000    ....    DCD    0
    $t
    i.llcc_tx_soft_reset_ack_cmd_new
    llcc_tx_soft_reset_ack_cmd_new
        0x01103afc:    b51c        ..      PUSH     {r2-r4,lr}
        0x01103afe:    2002        .       MOVS     r0,#2
        0x01103b00:    4669        iF      MOV      r1,sp
        0x01103b02:    7008        .p      STRB     r0,[r1,#0]
        0x01103b04:    205a        Z       MOVS     r0,#0x5a
        0x01103b06:    7048        Hp      STRB     r0,[r1,#1]
        0x01103b08:    20a5        .       MOVS     r0,#0xa5
        0x01103b0a:    7088        .p      STRB     r0,[r1,#2]
        0x01103b0c:    20be        .       MOVS     r0,#0xbe
        0x01103b0e:    70c8        .p      STRB     r0,[r1,#3]
        0x01103b10:    4668        hF      MOV      r0,sp
        0x01103b12:    f7fdfd39    ..9.    BL       $Ven$TT$L$$llcc_tx_cmd_crc ; 0x1101588
        0x01103b16:    bd1c        ..      POP      {r2-r4,pc}
    i.low_power_ind_timeout_event
    low_power_ind_timeout_event
        0x01103b18:    b510        ..      PUSH     {r4,lr}
        0x01103b1a:    2264        d"      MOVS     r2,#0x64
        0x01103b1c:    2101        .!      MOVS     r1,#1
        0x01103b1e:    200a        .       MOVS     r0,#0xa
        0x01103b20:    f7ffffba    ....    BL       led_set_state ; 0x1103a98
        0x01103b24:    bd10        ..      POP      {r4,pc}
        0x01103b26:    0000        ..      MOVS     r0,r0
    i.low_power_led_indication
    low_power_led_indication
        0x01103b28:    b510        ..      PUSH     {r4,lr}
        0x01103b2a:    4905        .I      LDR      r1,[pc,#20] ; [0x1103b40] = 0xbb8
        0x01103b2c:    4805        .H      LDR      r0,[pc,#20] ; [0x1103b44] = 0x20005c04
        0x01103b2e:    f7fffe49    ..I.    BL       k_delayed_work_submit ; 0x11037c4
        0x01103b32:    2264        d"      MOVS     r2,#0x64
        0x01103b34:    2100        .!      MOVS     r1,#0
        0x01103b36:    200a        .       MOVS     r0,#0xa
        0x01103b38:    f7ffffae    ....    BL       led_set_state ; 0x1103a98
        0x01103b3c:    bd10        ..      POP      {r4,pc}
    $d
        0x01103b3e:    0000        ..      DCW    0
        0x01103b40:    00000bb8    ....    DCD    3000
        0x01103b44:    20005c04    .\.     DCD    536894468
    $t
    i.main
    main
        0x01103b48:    b508        ..      PUSH     {r3,lr}
        0x01103b4a:    204d        M       MOVS     r0,#0x4d
        0x01103b4c:    f7fff988    ....    BL       debug_uart_put_char ; 0x1102e60
        0x01103b50:    4804        .H      LDR      r0,[pc,#16] ; [0x1103b64] = 0x110070d
        0x01103b52:    9000        ..      STR      r0,[sp,#0]
        0x01103b54:    4b04        .K      LDR      r3,[pc,#16] ; [0x1103b68] = 0x1102ed5
        0x01103b56:    4a05        .J      LDR      r2,[pc,#20] ; [0x1103b6c] = 0x1101a75
        0x01103b58:    4905        .I      LDR      r1,[pc,#20] ; [0x1103b70] = 0x1101fc5
        0x01103b5a:    4806        .H      LDR      r0,[pc,#24] ; [0x1103b74] = 0x200059b0
        0x01103b5c:    f7fdfd1a    ....    BL       $Ven$TT$L$$_PrepC ; 0x1101594
        0x01103b60:    2000        .       MOVS     r0,#0
        0x01103b62:    bd08        ..      POP      {r3,pc}
    $d
        0x01103b64:    0110070d    ....    DCD    17827597
        0x01103b68:    01102ed5    ....    DCD    17837781
        0x01103b6c:    01101a75    u...    DCD    17832565
        0x01103b70:    01101fc5    ....    DCD    17833925
        0x01103b74:    200059b0    .Y.     DCD    536893872
    $t
    i.mfp_cfg_i2stx
    mfp_cfg_i2stx
        0x01103b78:    4905        .I      LDR      r1,[pc,#20] ; [0x1103b90] = 0x4001605c
        0x01103b7a:    4804        .H      LDR      r0,[pc,#16] ; [0x1103b8c] = 0x300a
        0x01103b7c:    6008        .`      STR      r0,[r1,#0]
        0x01103b7e:    1d09        ..      ADDS     r1,r1,#4
        0x01103b80:    6008        .`      STR      r0,[r1,#0]
        0x01103b82:    1d09        ..      ADDS     r1,r1,#4
        0x01103b84:    6008        .`      STR      r0,[r1,#0]
        0x01103b86:    1d09        ..      ADDS     r1,r1,#4
        0x01103b88:    6008        .`      STR      r0,[r1,#0]
        0x01103b8a:    4770        pG      BX       lr
    $d
        0x01103b8c:    0000300a    .0..    DCD    12298
        0x01103b90:    4001605c    \`.@    DCD    1073832028
    $t
    i.msg_manager_init
    msg_manager_init
        0x01103b94:    2001        .       MOVS     r0,#1
        0x01103b96:    4770        pG      BX       lr
    i.mxkeypad_acts_init_new
    mxkeypad_acts_init_new
        0x01103b98:    b570        p.      PUSH     {r4-r6,lr}
        0x01103b9a:    4604        .F      MOV      r4,r0
        0x01103b9c:    6800        .h      LDR      r0,[r0,#0]
        0x01103b9e:    68a5        .h      LDR      r5,[r4,#8]
        0x01103ba0:    68c0        .h      LDR      r0,[r0,#0xc]
        0x01103ba2:    6840        @h      LDR      r0,[r0,#4]
        0x01103ba4:    4780        .G      BLX      r0
        0x01103ba6:    2200        ."      MOVS     r2,#0
        0x01103ba8:    4903        .I      LDR      r1,[pc,#12] ; [0x1103bb8] = 0x1103c31
        0x01103baa:    4628        (F      MOV      r0,r5
        0x01103bac:    f7fdfaee    ....    BL       $Ven$TT$L$$k_timer_init ; 0x110118c
        0x01103bb0:    2000        .       MOVS     r0,#0
        0x01103bb2:    632c        ,c      STR      r4,[r5,#0x30]
        0x01103bb4:    bd70        p.      POP      {r4-r6,pc}
    $d
        0x01103bb6:    0000        ..      DCW    0
        0x01103bb8:    01103c31    1<..    DCD    17841201
    $t
    i.mxkeypad_acts_irq_config
    mxkeypad_acts_irq_config
        0x01103bbc:    b570        p.      PUSH     {r4-r6,lr}
        0x01103bbe:    4c0c        .L      LDR      r4,[pc,#48] ; [0x1103bf0] = 0x20005a30
        0x01103bc0:    4d0a        .M      LDR      r5,[pc,#40] ; [0x1103bec] = 0x200017a0
        0x01103bc2:    480c        .H      LDR      r0,[pc,#48] ; [0x1103bf4] = 0x1103bfd
        0x01103bc4:    65a5        .e      STR      r5,[r4,#0x58]
        0x01103bc6:    2200        ."      MOVS     r2,#0
        0x01103bc8:    65e0        .e      STR      r0,[r4,#0x5c]
        0x01103bca:    4611        .F      MOV      r1,r2
        0x01103bcc:    201b        .       MOVS     r0,#0x1b
        0x01103bce:    f7fdfa9b    ....    BL       $Ven$TT$L$$_irq_priority_set ; 0x1101108
        0x01103bd2:    201b        .       MOVS     r0,#0x1b
        0x01103bd4:    f7fdfad4    ....    BL       $Ven$TT$L$$_arch_irq_enable ; 0x1101180
        0x01103bd8:    4807        .H      LDR      r0,[pc,#28] ; [0x1103bf8] = 0x11831
        0x01103bda:    67a5        .g      STR      r5,[r4,#0x78]
        0x01103bdc:    67e0        .g      STR      r0,[r4,#0x7c]
        0x01103bde:    2200        ."      MOVS     r2,#0
        0x01103be0:    2101        .!      MOVS     r1,#1
        0x01103be2:    201f        .       MOVS     r0,#0x1f
        0x01103be4:    f7fdfa90    ....    BL       $Ven$TT$L$$_irq_priority_set ; 0x1101108
        0x01103be8:    bd70        p.      POP      {r4-r6,pc}
    $d
        0x01103bea:    0000        ..      DCW    0
        0x01103bec:    200017a0    ...     DCD    536876960
        0x01103bf0:    20005a30    0Z.     DCD    536894000
        0x01103bf4:    01103bfd    .;..    DCD    17841149
        0x01103bf8:    00011831    1...    DCD    71729
    $t
    i.mxkeypad_acts_isr_new
    mxkeypad_acts_isr_new
        0x01103bfc:    b570        p.      PUSH     {r4-r6,lr}
        0x01103bfe:    4601        .F      MOV      r1,r0
        0x01103c00:    6800        .h      LDR      r0,[r0,#0]
        0x01103c02:    6889        .h      LDR      r1,[r1,#8]
        0x01103c04:    68c0        .h      LDR      r0,[r0,#0xc]
        0x01103c06:    6804        .h      LDR      r4,[r0,#0]
        0x01103c08:    6822        "h      LDR      r2,[r4,#0]
        0x01103c0a:    2301        .#      MOVS     r3,#1
        0x01103c0c:    03db        ..      LSLS     r3,r3,#15
        0x01103c0e:    431a        .C      ORRS     r2,r2,r3
        0x01103c10:    6022        "`      STR      r2,[r4,#0]
        0x01103c12:    4d06        .M      LDR      r5,[pc,#24] ; [0x1103c2c] = 0x20006b5c
        0x01103c14:    2200        ."      MOVS     r2,#0
        0x01103c16:    0093        ..      LSLS     r3,r2,#2
        0x01103c18:    191e        ..      ADDS     r6,r3,r4
        0x01103c1a:    6876        vh      LDR      r6,[r6,#4]
        0x01103c1c:    1c52        R.      ADDS     r2,r2,#1
        0x01103c1e:    50ee        .P      STR      r6,[r5,r3]
        0x01103c20:    2a03        .*      CMP      r2,#3
        0x01103c22:    dbf8        ..      BLT      0x1103c16 ; mxkeypad_acts_isr_new + 26
        0x01103c24:    f000f80c    ....    BL       mxkeypad_acts_scan_key_new ; 0x1103c40
        0x01103c28:    bd70        p.      POP      {r4-r6,pc}
    $d
        0x01103c2a:    0000        ..      DCW    0
        0x01103c2c:    20006b5c    \k.     DCD    536898396
    $t
    i.mxkeypad_acts_poll_new
    mxkeypad_acts_poll_new
        0x01103c30:    b510        ..      PUSH     {r4,lr}
        0x01103c32:    6b01        .k      LDR      r1,[r0,#0x30]
        0x01103c34:    6808        .h      LDR      r0,[r1,#0]
        0x01103c36:    6889        .h      LDR      r1,[r1,#8]
        0x01103c38:    68c0        .h      LDR      r0,[r0,#0xc]
        0x01103c3a:    f000f801    ....    BL       mxkeypad_acts_scan_key_new ; 0x1103c40
        0x01103c3e:    bd10        ..      POP      {r4,pc}
    i.mxkeypad_acts_scan_key_new
    mxkeypad_acts_scan_key_new
        0x01103c40:    b5f3        ..      PUSH     {r0,r1,r4-r7,lr}
        0x01103c42:    b083        ..      SUB      sp,sp,#0xc
        0x01103c44:    2000        .       MOVS     r0,#0
        0x01103c46:    4b25        %K      LDR      r3,[pc,#148] ; [0x1103cdc] = 0x20006b5c
        0x01103c48:    460c        .F      MOV      r4,r1
        0x01103c4a:    4606        .F      MOV      r6,r0
        0x01103c4c:    466d        mF      MOV      r5,sp
        0x01103c4e:    0081        ..      LSLS     r1,r0,#2
        0x01103c50:    585a        ZX      LDR      r2,[r3,r1]
        0x01103c52:    506a        jP      STR      r2,[r5,r1]
        0x01103c54:    1c40        @.      ADDS     r0,r0,#1
        0x01103c56:    505e        ^P      STR      r6,[r3,r1]
        0x01103c58:    2803        .(      CMP      r0,#3
        0x01103c5a:    dbf8        ..      BLT      0x1103c4e ; mxkeypad_acts_scan_key_new + 14
        0x01103c5c:    4629        )F      MOV      r1,r5
        0x01103c5e:    9803        ..      LDR      r0,[sp,#0xc]
        0x01103c60:    f7fdfc9e    ....    BL       $Ven$TT$L$$mxkeypad_acts_get_keycode ; 0x11015a0
        0x01103c64:    4627        'F      MOV      r7,r4
        0x01103c66:    3740        @7      ADDS     r7,r7,#0x40
        0x01103c68:    88ba        ..      LDRH     r2,[r7,#4]
        0x01103c6a:    4606        .F      MOV      r6,r0
        0x01103c6c:    2a00        .*      CMP      r2,#0
        0x01103c6e:    d010        ..      BEQ      0x1103c92 ; mxkeypad_acts_scan_key_new + 82
        0x01103c70:    6ba0        .k      LDR      r0,[r4,#0x38]
        0x01103c72:    9900        ..      LDR      r1,[sp,#0]
        0x01103c74:    4288        .B      CMP      r0,r1
        0x01103c76:    d107        ..      BNE      0x1103c88 ; mxkeypad_acts_scan_key_new + 72
        0x01103c78:    6be0        .k      LDR      r0,[r4,#0x3c]
        0x01103c7a:    9901        ..      LDR      r1,[sp,#4]
        0x01103c7c:    4288        .B      CMP      r0,r1
        0x01103c7e:    d103        ..      BNE      0x1103c88 ; mxkeypad_acts_scan_key_new + 72
        0x01103c80:    6c20         l      LDR      r0,[r4,#0x40]
        0x01103c82:    9902        ..      LDR      r1,[sp,#8]
        0x01103c84:    4288        .B      CMP      r0,r1
        0x01103c86:    d004        ..      BEQ      0x1103c92 ; mxkeypad_acts_scan_key_new + 82
        0x01103c88:    2300        .#      MOVS     r3,#0
        0x01103c8a:    4621        !F      MOV      r1,r4
        0x01103c8c:    9803        ..      LDR      r0,[sp,#0xc]
        0x01103c8e:    f7fdfc8d    ....    BL       $Ven$TT$L$$mxkeypad_acts_report_key ; 0x11015ac
        0x01103c92:    2e00        ..      CMP      r6,#0
        0x01103c94:    d005        ..      BEQ      0x1103ca2 ; mxkeypad_acts_scan_key_new + 98
        0x01103c96:    2301        .#      MOVS     r3,#1
        0x01103c98:    4632        2F      MOV      r2,r6
        0x01103c9a:    4621        !F      MOV      r1,r4
        0x01103c9c:    9803        ..      LDR      r0,[sp,#0xc]
        0x01103c9e:    f7fdfc85    ....    BL       $Ven$TT$L$$mxkeypad_acts_report_key ; 0x11015ac
        0x01103ca2:    80be        ..      STRH     r6,[r7,#4]
        0x01103ca4:    2000        .       MOVS     r0,#0
        0x01103ca6:    0081        ..      LSLS     r1,r0,#2
        0x01103ca8:    586a        jX      LDR      r2,[r5,r1]
        0x01103caa:    1909        ..      ADDS     r1,r1,r4
        0x01103cac:    1c40        @.      ADDS     r0,r0,#1
        0x01103cae:    638a        .c      STR      r2,[r1,#0x38]
        0x01103cb0:    2803        .(      CMP      r0,#3
        0x01103cb2:    dbf8        ..      BLT      0x1103ca6 ; mxkeypad_acts_scan_key_new + 102
        0x01103cb4:    9800        ..      LDR      r0,[sp,#0]
        0x01103cb6:    2800        .(      CMP      r0,#0
        0x01103cb8:    d105        ..      BNE      0x1103cc6 ; mxkeypad_acts_scan_key_new + 134
        0x01103cba:    9801        ..      LDR      r0,[sp,#4]
        0x01103cbc:    2800        .(      CMP      r0,#0
        0x01103cbe:    d102        ..      BNE      0x1103cc6 ; mxkeypad_acts_scan_key_new + 134
        0x01103cc0:    9802        ..      LDR      r0,[sp,#8]
        0x01103cc2:    2800        .(      CMP      r0,#0
        0x01103cc4:    d008        ..      BEQ      0x1103cd8 ; mxkeypad_acts_scan_key_new + 152
        0x01103cc6:    4620         F      MOV      r0,r4
        0x01103cc8:    f7fdfc76    ..v.    BL       $Ven$TT$L$$k_timer_stop ; 0x11015b8
        0x01103ccc:    9803        ..      LDR      r0,[sp,#0xc]
        0x01103cce:    2200        ."      MOVS     r2,#0
        0x01103cd0:    8a41        A.      LDRH     r1,[r0,#0x12]
        0x01103cd2:    4620         F      MOV      r0,r4
        0x01103cd4:    f7fdfc76    ..v.    BL       $Ven$TT$L$$k_timer_start ; 0x11015c4
        0x01103cd8:    b005        ..      ADD      sp,sp,#0x14
        0x01103cda:    bdf0        ..      POP      {r4-r7,pc}
    $d
        0x01103cdc:    20006b5c    \k.     DCD    536898396
    $t
    i.mxkeypad_devcie_ctrl
    mxkeypad_devcie_ctrl
        0x01103ce0:    b510        ..      PUSH     {r4,lr}
        0x01103ce2:    2901        .)      CMP      r1,#1
        0x01103ce4:    d105        ..      BNE      0x1103cf2 ; mxkeypad_devcie_ctrl + 18
        0x01103ce6:    6810        .h      LDR      r0,[r2,#0]
        0x01103ce8:    2803        .(      CMP      r0,#3
        0x01103cea:    d102        ..      BNE      0x1103cf2 ; mxkeypad_devcie_ctrl + 18
        0x01103cec:    201f        .       MOVS     r0,#0x1f
        0x01103cee:    f7fdfa47    ..G.    BL       $Ven$TT$L$$_arch_irq_enable ; 0x1101180
        0x01103cf2:    2000        .       MOVS     r0,#0
        0x01103cf4:    bd10        ..      POP      {r4,pc}
        0x01103cf6:    0000        ..      MOVS     r0,r0
    i.new_k_delayed_work_cancel
    new_k_delayed_work_cancel
        0x01103cf8:    b5f8        ..      PUSH     {r3-r7,lr}
        0x01103cfa:    4604        .F      MOV      r4,r0
        0x01103cfc:    f7fdf8ac    ....    BL       _arch_irq_lock_s ; 0x1100e58
        0x01103d00:    4605        .F      MOV      r5,r0
        0x01103d02:    6a60        `j      LDR      r0,[r4,#0x24]
        0x01103d04:    2800        .(      CMP      r0,#0
        0x01103d06:    d028        (.      BEQ      0x1103d5a ; new_k_delayed_work_cancel + 98
        0x01103d08:    4627        'F      MOV      r7,r4
        0x01103d0a:    3708        .7      ADDS     r7,r7,#8
        0x01103d0c:    2600        .&      MOVS     r6,#0
        0x01103d0e:    4638        8F      MOV      r0,r7
        0x01103d10:    f7fdfc5e    ..^.    BL       $Ven$TT$L$$atomic_get ; 0x11015d0
        0x01103d14:    07c0        ..      LSLS     r0,r0,#31
        0x01103d16:    0fc0        ..      LSRS     r0,r0,#31
        0x01103d18:    d025        %.      BEQ      0x1103d66 ; new_k_delayed_work_cancel + 110
        0x01103d1a:    6a61        aj      LDR      r1,[r4,#0x24]
        0x01103d1c:    4622        "F      MOV      r2,r4
        0x01103d1e:    2300        .#      MOVS     r3,#0
        0x01103d20:    6808        .h      LDR      r0,[r1,#0]
        0x01103d22:    e015        ..      B        0x1103d50 ; new_k_delayed_work_cancel + 88
        0x01103d24:    4290        .B      CMP      r0,r2
        0x01103d26:    d110        ..      BNE      0x1103d4a ; new_k_delayed_work_cancel + 82
        0x01103d28:    6810        .h      LDR      r0,[r2,#0]
        0x01103d2a:    2b00        .+      CMP      r3,#0
        0x01103d2c:    d007        ..      BEQ      0x1103d3e ; new_k_delayed_work_cancel + 70
        0x01103d2e:    6018        .`      STR      r0,[r3,#0]
        0x01103d30:    6848        Hh      LDR      r0,[r1,#4]
        0x01103d32:    4290        .B      CMP      r0,r2
        0x01103d34:    d100        ..      BNE      0x1103d38 ; new_k_delayed_work_cancel + 64
        0x01103d36:    604b        K`      STR      r3,[r1,#4]
        0x01103d38:    2001        .       MOVS     r0,#1
        0x01103d3a:    6026        &`      STR      r6,[r4,#0]
        0x01103d3c:    e00b        ..      B        0x1103d56 ; new_k_delayed_work_cancel + 94
        0x01103d3e:    6008        .`      STR      r0,[r1,#0]
        0x01103d40:    684b        Kh      LDR      r3,[r1,#4]
        0x01103d42:    4293        .B      CMP      r3,r2
        0x01103d44:    d1f8        ..      BNE      0x1103d38 ; new_k_delayed_work_cancel + 64
        0x01103d46:    6048        H`      STR      r0,[r1,#4]
        0x01103d48:    e7f6        ..      B        0x1103d38 ; new_k_delayed_work_cancel + 64
        0x01103d4a:    1e03        ..      SUBS     r3,r0,#0
        0x01103d4c:    d000        ..      BEQ      0x1103d50 ; new_k_delayed_work_cancel + 88
        0x01103d4e:    6818        .h      LDR      r0,[r3,#0]
        0x01103d50:    2800        .(      CMP      r0,#0
        0x01103d52:    d1e7        ..      BNE      0x1103d24 ; new_k_delayed_work_cancel + 44
        0x01103d54:    4630        0F      MOV      r0,r6
        0x01103d56:    2800        .(      CMP      r0,#0
        0x01103d58:    d11e        ..      BNE      0x1103d98 ; new_k_delayed_work_cancel + 160
        0x01103d5a:    4628        (F      MOV      r0,r5
        0x01103d5c:    f7fdf880    ....    BL       _arch_irq_unlock_s ; 0x1100e60
        0x01103d60:    2015        .       MOVS     r0,#0x15
        0x01103d62:    43c0        .C      MVNS     r0,r0
        0x01103d64:    bdf8        ..      POP      {r3-r7,pc}
        0x01103d66:    4620         F      MOV      r0,r4
        0x01103d68:    69e2        .i      LDR      r2,[r4,#0x1c]
        0x01103d6a:    300c        .0      ADDS     r0,r0,#0xc
        0x01103d6c:    1c51        Q.      ADDS     r1,r2,#1
        0x01103d6e:    d013        ..      BEQ      0x1103d98 ; new_k_delayed_work_cancel + 160
        0x01103d70:    490f        .I      LDR      r1,[pc,#60] ; [0x1103db0] = 0x2000069c
        0x01103d72:    6909        .i      LDR      r1,[r1,#0x10]
        0x01103d74:    4281        .B      CMP      r1,r0
        0x01103d76:    d007        ..      BEQ      0x1103d88 ; new_k_delayed_work_cancel + 144
        0x01103d78:    2800        .(      CMP      r0,#0
        0x01103d7a:    d001        ..      BEQ      0x1103d80 ; new_k_delayed_work_cancel + 136
        0x01103d7c:    6801        .h      LDR      r1,[r0,#0]
        0x01103d7e:    e000        ..      B        0x1103d82 ; new_k_delayed_work_cancel + 138
        0x01103d80:    2100        .!      MOVS     r1,#0
        0x01103d82:    690b        .i      LDR      r3,[r1,#0x10]
        0x01103d84:    189a        ..      ADDS     r2,r3,r2
        0x01103d86:    610a        .a      STR      r2,[r1,#0x10]
        0x01103d88:    c806        ..      LDM      r0!,{r1,r2}
        0x01103d8a:    3808        .8      SUBS     r0,r0,#8
        0x01103d8c:    6011        .`      STR      r1,[r2,#0]
        0x01103d8e:    c806        ..      LDM      r0!,{r1,r2}
        0x01103d90:    604a        J`      STR      r2,[r1,#4]
        0x01103d92:    2100        .!      MOVS     r1,#0
        0x01103d94:    43c9        .C      MVNS     r1,r1
        0x01103d96:    6081        .`      STR      r1,[r0,#8]
        0x01103d98:    2101        .!      MOVS     r1,#1
        0x01103d9a:    4638        8F      MOV      r0,r7
        0x01103d9c:    43c9        .C      MVNS     r1,r1
        0x01103d9e:    6266        fb      STR      r6,[r4,#0x24]
        0x01103da0:    f7fdfb68    ..h.    BL       $Ven$TT$L$$atomic_and ; 0x1101474
        0x01103da4:    4628        (F      MOV      r0,r5
        0x01103da6:    f7fdf85b    ..[.    BL       _arch_irq_unlock_s ; 0x1100e60
        0x01103daa:    2000        .       MOVS     r0,#0
        0x01103dac:    bdf8        ..      POP      {r3-r7,pc}
    $d
        0x01103dae:    0000        ..      DCW    0
        0x01103db0:    2000069c    ...     DCD    536872604
    $t
    i.ota_au_ccc_cfg_changed
    ota_au_ccc_cfg_changed
        0x01103db4:    2901        .)      CMP      r1,#1
        0x01103db6:    d003        ..      BEQ      0x1103dc0 ; ota_au_ccc_cfg_changed + 12
        0x01103db8:    2000        .       MOVS     r0,#0
        0x01103dba:    4902        .I      LDR      r1,[pc,#8] ; [0x1103dc4] = 0x20001bd0
        0x01103dbc:    70c8        .p      STRB     r0,[r1,#3]
        0x01103dbe:    4770        pG      BX       lr
        0x01103dc0:    2001        .       MOVS     r0,#1
        0x01103dc2:    e7fa        ..      B        0x1103dba ; ota_au_ccc_cfg_changed + 6
    $d
        0x01103dc4:    20001bd0    ...     DCD    536878032
    $t
    i.ota_ccc_enabled
    ota_ccc_enabled
        0x01103dc8:    480a        .H      LDR      r0,[pc,#40] ; [0x1103df4] = 0x20001bd0
        0x01103dca:    2902        .)      CMP      r1,#2
        0x01103dcc:    d006        ..      BEQ      0x1103ddc ; ota_ccc_enabled + 20
        0x01103dce:    2905        .)      CMP      r1,#5
        0x01103dd0:    d006        ..      BEQ      0x1103de0 ; ota_ccc_enabled + 24
        0x01103dd2:    2908        .)      CMP      r1,#8
        0x01103dd4:    d006        ..      BEQ      0x1103de4 ; ota_ccc_enabled + 28
        0x01103dd6:    290b        .)      CMP      r1,#0xb
        0x01103dd8:    d109        ..      BNE      0x1103dee ; ota_ccc_enabled + 38
        0x01103dda:    e005        ..      B        0x1103de8 ; ota_ccc_enabled + 32
        0x01103ddc:    7800        .x      LDRB     r0,[r0,#0]
        0x01103dde:    e004        ..      B        0x1103dea ; ota_ccc_enabled + 34
        0x01103de0:    7840        @x      LDRB     r0,[r0,#1]
        0x01103de2:    e002        ..      B        0x1103dea ; ota_ccc_enabled + 34
        0x01103de4:    7880        .x      LDRB     r0,[r0,#2]
        0x01103de6:    e000        ..      B        0x1103dea ; ota_ccc_enabled + 34
        0x01103de8:    78c0        .x      LDRB     r0,[r0,#3]
        0x01103dea:    2800        .(      CMP      r0,#0
        0x01103dec:    d000        ..      BEQ      0x1103df0 ; ota_ccc_enabled + 40
        0x01103dee:    2001        .       MOVS     r0,#1
        0x01103df0:    4770        pG      BX       lr
    $d
        0x01103df2:    0000        ..      DCW    0
        0x01103df4:    20001bd0    ...     DCD    536878032
    $t
    i.ota_dc_ccc_cfg_changed
    ota_dc_ccc_cfg_changed
        0x01103df8:    2901        .)      CMP      r1,#1
        0x01103dfa:    d003        ..      BEQ      0x1103e04 ; ota_dc_ccc_cfg_changed + 12
        0x01103dfc:    2000        .       MOVS     r0,#0
        0x01103dfe:    4902        .I      LDR      r1,[pc,#8] ; [0x1103e08] = 0x20001bd0
        0x01103e00:    7008        .p      STRB     r0,[r1,#0]
        0x01103e02:    4770        pG      BX       lr
        0x01103e04:    2001        .       MOVS     r0,#1
        0x01103e06:    e7fa        ..      B        0x1103dfe ; ota_dc_ccc_cfg_changed + 6
    $d
        0x01103e08:    20001bd0    ...     DCD    536878032
    $t
    i.ota_dc_conn_param_update
    ota_dc_conn_param_update
        0x01103e0c:    b508        ..      PUSH     {r3,lr}
        0x01103e0e:    4906        .I      LDR      r1,[pc,#24] ; [0x1103e28] = 0x20002300
        0x01103e10:    f7fdfbb4    ....    BL       $Ven$TT$L$$bt_conn_le_param_update ; 0x110157c
        0x01103e14:    0003        ..      MOVS     r3,r0
        0x01103e16:    d006        ..      BEQ      0x1103e26 ; ota_dc_conn_param_update + 26
        0x01103e18:    a004        ..      ADR      r0,{pc}+0x14 ; 0x1103e2c
        0x01103e1a:    9000        ..      STR      r0,[sp,#0]
        0x01103e1c:    a203        ..      ADR      r2,{pc}+0x10 ; 0x1103e2c
        0x01103e1e:    a104        ..      ADR      r1,{pc}+0x12 ; 0x1103e30
        0x01103e20:    a004        ..      ADR      r0,{pc}+0x14 ; 0x1103e34
        0x01103e22:    f7fdf941    ..A.    BL       $Ven$TT$L$$printk ; 0x11010a8
        0x01103e26:    bd08        ..      POP      {r3,pc}
    $d
        0x01103e28:    20002300    .#.     DCD    536879872
        0x01103e2c:    00000000    ....    DCD    0
        0x01103e30:    0061746f    ota.    DCD    6386799
        0x01103e34:    5d73255b    [%s]    DCD    1567827291
        0x01103e38:    63732520     %sc    DCD    1668490528
        0x01103e3c:    206e6e6f    onn     DCD    544108143
        0x01103e40:    61647075    upda    DCD    1633972341
        0x01103e44:    66206574    te f    DCD    1713399156
        0x01103e48:    656c6961    aile    DCD    1701603681
        0x01103e4c:    65282064    d (e    DCD    1697128548
        0x01103e50:    25207272    rr %    DCD    622883442
        0x01103e54:    252e2964    d).%    DCD    623782244
        0x01103e58:    00000a73    s...    DCD    2675
    $t
    i.ota_dc_set_conn_param_req
    ota_dc_set_conn_param_req
        0x01103e5c:    b510        ..      PUSH     {r4,lr}
        0x01103e5e:    2908        .)      CMP      r1,#8
        0x01103e60:    d001        ..      BEQ      0x1103e66 ; ota_dc_set_conn_param_req + 10
        0x01103e62:    200d        .       MOVS     r0,#0xd
        0x01103e64:    bd10        ..      POP      {r4,pc}
        0x01103e66:    7853        Sx      LDRB     r3,[r2,#1]
        0x01103e68:    7811        .x      LDRB     r1,[r2,#0]
        0x01103e6a:    021b        ..      LSLS     r3,r3,#8
        0x01103e6c:    18cb        ..      ADDS     r3,r1,r3
        0x01103e6e:    490c        .I      LDR      r1,[pc,#48] ; [0x1103ea0] = 0x20002300
        0x01103e70:    800b        ..      STRH     r3,[r1,#0]
        0x01103e72:    78d4        .x      LDRB     r4,[r2,#3]
        0x01103e74:    7893        .x      LDRB     r3,[r2,#2]
        0x01103e76:    0224        $.      LSLS     r4,r4,#8
        0x01103e78:    191b        ..      ADDS     r3,r3,r4
        0x01103e7a:    804b        K.      STRH     r3,[r1,#2]
        0x01103e7c:    7954        Ty      LDRB     r4,[r2,#5]
        0x01103e7e:    7913        .y      LDRB     r3,[r2,#4]
        0x01103e80:    0224        $.      LSLS     r4,r4,#8
        0x01103e82:    191b        ..      ADDS     r3,r3,r4
        0x01103e84:    808b        ..      STRH     r3,[r1,#4]
        0x01103e86:    7993        .y      LDRB     r3,[r2,#6]
        0x01103e88:    79d2        .y      LDRB     r2,[r2,#7]
        0x01103e8a:    0212        ..      LSLS     r2,r2,#8
        0x01103e8c:    189a        ..      ADDS     r2,r3,r2
        0x01103e8e:    80ca        ..      STRH     r2,[r1,#6]
        0x01103e90:    4904        .I      LDR      r1,[pc,#16] ; [0x1103ea4] = 0x20006b68
        0x01103e92:    6348        Hc      STR      r0,[r1,#0x34]
        0x01103e94:    2040        @       MOVS     r0,#0x40
        0x01103e96:    f000faa1    ....    BL       ota_send_event ; 0x11043dc
        0x01103e9a:    2000        .       MOVS     r0,#0
        0x01103e9c:    bd10        ..      POP      {r4,pc}
    $d
        0x01103e9e:    0000        ..      DCW    0
        0x01103ea0:    20002300    .#.     DCD    536879872
        0x01103ea4:    20006b68    hk.     DCD    536898408
    $t
    i.ota_dc_write
    ota_dc_write
        0x01103ea8:    b570        p.      PUSH     {r4-r6,lr}
        0x01103eaa:    4605        .F      MOV      r5,r0
        0x01103eac:    2000        .       MOVS     r0,#0
        0x01103eae:    2902        .)      CMP      r1,#2
        0x01103eb0:    d201        ..      BCS      0x1103eb6 ; ota_dc_write + 14
        0x01103eb2:    200d        .       MOVS     r0,#0xd
        0x01103eb4:    bd70        p.      POP      {r4-r6,pc}
        0x01103eb6:    7814        .x      LDRB     r4,[r2,#0]
        0x01103eb8:    7853        Sx      LDRB     r3,[r2,#1]
        0x01103eba:    1e89        ..      SUBS     r1,r1,#2
        0x01103ebc:    1c92        ..      ADDS     r2,r2,#2
        0x01103ebe:    b289        ..      UXTH     r1,r1
        0x01103ec0:    2c02        .,      CMP      r4,#2
        0x01103ec2:    d002        ..      BEQ      0x1103eca ; ota_dc_write + 34
        0x01103ec4:    2c01        .,      CMP      r4,#1
        0x01103ec6:    d008        ..      BEQ      0x1103eda ; ota_dc_write + 50
        0x01103ec8:    e005        ..      B        0x1103ed6 ; ota_dc_write + 46
        0x01103eca:    2b01        .+      CMP      r3,#1
        0x01103ecc:    d103        ..      BNE      0x1103ed6 ; ota_dc_write + 46
        0x01103ece:    4628        (F      MOV      r0,r5
        0x01103ed0:    f7ffffc4    ....    BL       ota_dc_set_conn_param_req ; 0x1103e5c
        0x01103ed4:    bd70        p.      POP      {r4-r6,pc}
        0x01103ed6:    20ff        .       MOVS     r0,#0xff
        0x01103ed8:    bd70        p.      POP      {r4-r6,pc}
        0x01103eda:    2b02        .+      CMP      r3,#2
        0x01103edc:    d1fb        ..      BNE      0x1103ed6 ; ota_dc_write + 46
        0x01103ede:    bd70        p.      POP      {r4-r6,pc}
    i.ota_event_handle
    ota_event_handle
        0x01103ee0:    4601        .F      MOV      r1,r0
        0x01103ee2:    b510        ..      PUSH     {r4,lr}
        0x01103ee4:    480e        .H      LDR      r0,[pc,#56] ; [0x1103f20] = 0x20006b68
        0x01103ee6:    2920         )      CMP      r1,#0x20
        0x01103ee8:    6b40        @k      LDR      r0,[r0,#0x34]
        0x01103eea:    d012        ..      BEQ      0x1103f12 ; ota_event_handle + 50
        0x01103eec:    dc06        ..      BGT      0x1103efc ; ota_event_handle + 28
        0x01103eee:    2904        .)      CMP      r1,#4
        0x01103ef0:    d00c        ..      BEQ      0x1103f0c ; ota_event_handle + 44
        0x01103ef2:    2908        .)      CMP      r1,#8
        0x01103ef4:    d101        ..      BNE      0x1103efa ; ota_event_handle + 26
        0x01103ef6:    f000f9e5    ....    BL       ota_ftd_send ; 0x11042c4
        0x01103efa:    bd10        ..      POP      {r4,pc}
        0x01103efc:    2940        @)      CMP      r1,#0x40
        0x01103efe:    d00b        ..      BEQ      0x1103f18 ; ota_event_handle + 56
        0x01103f00:    2980        .)      CMP      r1,#0x80
        0x01103f02:    d1fa        ..      BNE      0x1103efa ; ota_event_handle + 26
        0x01103f04:    2113        .!      MOVS     r1,#0x13
        0x01103f06:    f7fdfb2d    ..-.    BL       $Ven$TT$L$$bt_conn_disconnect ; 0x1101564
        0x01103f0a:    bd10        ..      POP      {r4,pc}
        0x01103f0c:    f000f93a    ..:.    BL       ota_ftc_send ; 0x1104184
        0x01103f10:    bd10        ..      POP      {r4,pc}
        0x01103f12:    f000f807    ....    BL       ota_fdc_async_send ; 0x1103f24
        0x01103f16:    bd10        ..      POP      {r4,pc}
        0x01103f18:    f7ffff78    ..x.    BL       ota_dc_conn_param_update ; 0x1103e0c
        0x01103f1c:    bd10        ..      POP      {r4,pc}
    $d
        0x01103f1e:    0000        ..      DCW    0
        0x01103f20:    20006b68    hk.     DCD    536898408
    $t
    i.ota_fdc_async_send
    ota_fdc_async_send
        0x01103f24:    b570        p.      PUSH     {r4-r6,lr}
        0x01103f26:    4c14        .L      LDR      r4,[pc,#80] ; [0x1103f78] = 0x20006b68
        0x01103f28:    4605        .F      MOV      r5,r0
        0x01103f2a:    6ae2        .j      LDR      r2,[r4,#0x2c]
        0x01103f2c:    6b20         k      LDR      r0,[r4,#0x30]
        0x01103f2e:    b086        ..      SUB      sp,sp,#0x18
        0x01103f30:    4282        .B      CMP      r2,r0
        0x01103f32:    d01e        ..      BEQ      0x1103f72 ; ota_fdc_async_send + 78
        0x01103f34:    1a11        ..      SUBS     r1,r2,r0
        0x01103f36:    6322        "c      STR      r2,[r4,#0x30]
        0x01103f38:    200b        .       MOVS     r0,#0xb
        0x01103f3a:    466a        jF      MOV      r2,sp
        0x01103f3c:    7010        .p      STRB     r0,[r2,#0]
        0x01103f3e:    8a20         .      LDRH     r0,[r4,#0x10]
        0x01103f40:    7050        Pp      STRB     r0,[r2,#1]
        0x01103f42:    0a00        ..      LSRS     r0,r0,#8
        0x01103f44:    7090        .p      STRB     r0,[r2,#2]
        0x01103f46:    2000        .       MOVS     r0,#0
        0x01103f48:    70d0        .p      STRB     r0,[r2,#3]
        0x01103f4a:    7111        .q      STRB     r1,[r2,#4]
        0x01103f4c:    0a08        ..      LSRS     r0,r1,#8
        0x01103f4e:    7150        Pq      STRB     r0,[r2,#5]
        0x01103f50:    2606        .&      MOVS     r6,#6
        0x01103f52:    2105        .!      MOVS     r1,#5
        0x01103f54:    4628        (F      MOV      r0,r5
        0x01103f56:    f7ffff37    ..7.    BL       ota_ccc_enabled ; 0x1103dc8
        0x01103f5a:    2800        .(      CMP      r0,#0
        0x01103f5c:    d005        ..      BEQ      0x1103f6a ; ota_fdc_async_send + 70
        0x01103f5e:    466b        kF      MOV      r3,sp
        0x01103f60:    4632        2F      MOV      r2,r6
        0x01103f62:    2105        .!      MOVS     r1,#5
        0x01103f64:    4628        (F      MOV      r0,r5
        0x01103f66:    f000fa47    ..G.    BL       ota_send_notify ; 0x11043f8
        0x01103f6a:    7820         x      LDRB     r0,[r4,#0]
        0x01103f6c:    21df        .!      MOVS     r1,#0xdf
        0x01103f6e:    4008        .@      ANDS     r0,r0,r1
        0x01103f70:    7020         p      STRB     r0,[r4,#0]
        0x01103f72:    b006        ..      ADD      sp,sp,#0x18
        0x01103f74:    bd70        p.      POP      {r4-r6,pc}
    $d
        0x01103f76:    0000        ..      DCW    0
        0x01103f78:    20006b68    hk.     DCD    536898408
    $t
    i.ota_ftc_ccc_cfg_changed
    ota_ftc_ccc_cfg_changed
        0x01103f7c:    2901        .)      CMP      r1,#1
        0x01103f7e:    d003        ..      BEQ      0x1103f88 ; ota_ftc_ccc_cfg_changed + 12
        0x01103f80:    2000        .       MOVS     r0,#0
        0x01103f82:    4902        .I      LDR      r1,[pc,#8] ; [0x1103f8c] = 0x20001bd0
        0x01103f84:    7048        Hp      STRB     r0,[r1,#1]
        0x01103f86:    4770        pG      BX       lr
        0x01103f88:    2001        .       MOVS     r0,#1
        0x01103f8a:    e7fa        ..      B        0x1103f82 ; ota_ftc_ccc_cfg_changed + 6
    $d
        0x01103f8c:    20001bd0    ...     DCD    536878032
    $t
    i.ota_ftc_proc_erase_req
    ota_ftc_proc_erase_req
        0x01103f90:    b5f8        ..      PUSH     {r3-r7,lr}
        0x01103f92:    4606        .F      MOV      r6,r0
        0x01103f94:    4816        .H      LDR      r0,[pc,#88] ; [0x1103ff0] = 0x20006b88
        0x01103f96:    2400        .$      MOVS     r4,#0
        0x01103f98:    7a00        .z      LDRB     r0,[r0,#8]
        0x01103f9a:    460d        .F      MOV      r5,r1
        0x01103f9c:    2800        .(      CMP      r0,#0
        0x01103f9e:    d001        ..      BEQ      0x1103fa4 ; ota_ftc_proc_erase_req + 20
        0x01103fa0:    2404        .$      MOVS     r4,#4
        0x01103fa2:    e01b        ..      B        0x1103fdc ; ota_ftc_proc_erase_req + 76
        0x01103fa4:    4812        .H      LDR      r0,[pc,#72] ; [0x1103ff0] = 0x20006b88
        0x01103fa6:    3820         8      SUBS     r0,r0,#0x20
        0x01103fa8:    8205        ..      STRH     r5,[r0,#0x10]
        0x01103faa:    785a        Zx      LDRB     r2,[r3,#1]
        0x01103fac:    7819        .x      LDRB     r1,[r3,#0]
        0x01103fae:    0212        ..      LSLS     r2,r2,#8
        0x01103fb0:    1889        ..      ADDS     r1,r1,r2
        0x01103fb2:    789a        .x      LDRB     r2,[r3,#2]
        0x01103fb4:    78df        .x      LDRB     r7,[r3,#3]
        0x01103fb6:    0412        ..      LSLS     r2,r2,#16
        0x01103fb8:    063f        ?.      LSLS     r7,r7,#24
        0x01103fba:    19d2        ..      ADDS     r2,r2,r7
        0x01103fbc:    1889        ..      ADDS     r1,r1,r2
        0x01103fbe:    6041        A`      STR      r1,[r0,#4]
        0x01103fc0:    795f        _y      LDRB     r7,[r3,#5]
        0x01103fc2:    791a        .y      LDRB     r2,[r3,#4]
        0x01103fc4:    023f        ?.      LSLS     r7,r7,#8
        0x01103fc6:    19d2        ..      ADDS     r2,r2,r7
        0x01103fc8:    799f        .y      LDRB     r7,[r3,#6]
        0x01103fca:    79db        .y      LDRB     r3,[r3,#7]
        0x01103fcc:    043f        ?.      LSLS     r7,r7,#16
        0x01103fce:    061b        ..      LSLS     r3,r3,#24
        0x01103fd0:    18fb        ..      ADDS     r3,r7,r3
        0x01103fd2:    18d2        ..      ADDS     r2,r2,r3
        0x01103fd4:    6082        .`      STR      r2,[r0,#8]
        0x01103fd6:    6b80        .k      LDR      r0,[r0,#0x38]
        0x01103fd8:    f000fa1c    ....    BL       ota_storage_erase ; 0x1104414
        0x01103fdc:    2000        .       MOVS     r0,#0
        0x01103fde:    9000        ..      STR      r0,[sp,#0]
        0x01103fe0:    4623        #F      MOV      r3,r4
        0x01103fe2:    462a        *F      MOV      r2,r5
        0x01103fe4:    2106        .!      MOVS     r1,#6
        0x01103fe6:    4630        0F      MOV      r0,r6
        0x01103fe8:    f000f8e2    ....    BL       ota_ftc_send_rsp ; 0x11041b0
        0x01103fec:    bdf8        ..      POP      {r3-r7,pc}
    $d
        0x01103fee:    0000        ..      DCW    0
        0x01103ff0:    20006b88    .k.     DCD    536898440
    $t
    i.ota_ftc_proc_get_req
    ota_ftc_proc_get_req
        0x01103ff4:    b5f8        ..      PUSH     {r3-r7,lr}
        0x01103ff6:    4a1d        .J      LDR      r2,[pc,#116] ; [0x110406c] = 0x20006b88
        0x01103ff8:    4607        .F      MOV      r7,r0
        0x01103ffa:    7a10        .z      LDRB     r0,[r2,#8]
        0x01103ffc:    4614        .F      MOV      r4,r2
        0x01103ffe:    3c20         <      SUBS     r4,r4,#0x20
        0x01104000:    2800        .(      CMP      r0,#0
        0x01104002:    d001        ..      BEQ      0x1104008 ; ota_ftc_proc_get_req + 20
        0x01104004:    2504        .%      MOVS     r5,#4
        0x01104006:    e021        !.      B        0x110404c ; ota_ftc_proc_get_req + 88
        0x01104008:    785d        ]x      LDRB     r5,[r3,#1]
        0x0110400a:    7818        .x      LDRB     r0,[r3,#0]
        0x0110400c:    022d        -.      LSLS     r5,r5,#8
        0x0110400e:    1940        @.      ADDS     r0,r0,r5
        0x01104010:    789d        .x      LDRB     r5,[r3,#2]
        0x01104012:    78de        .x      LDRB     r6,[r3,#3]
        0x01104014:    042d        -.      LSLS     r5,r5,#16
        0x01104016:    0636        6.      LSLS     r6,r6,#24
        0x01104018:    19ad        ..      ADDS     r5,r5,r6
        0x0110401a:    1940        @.      ADDS     r0,r0,r5
        0x0110401c:    6060        ``      STR      r0,[r4,#4]
        0x0110401e:    795e        ^y      LDRB     r6,[r3,#5]
        0x01104020:    791d        .y      LDRB     r5,[r3,#4]
        0x01104022:    0236        6.      LSLS     r6,r6,#8
        0x01104024:    19ad        ..      ADDS     r5,r5,r6
        0x01104026:    799e        .y      LDRB     r6,[r3,#6]
        0x01104028:    79db        .y      LDRB     r3,[r3,#7]
        0x0110402a:    0436        6.      LSLS     r6,r6,#16
        0x0110402c:    061b        ..      LSLS     r3,r3,#24
        0x0110402e:    18f0        ..      ADDS     r0,r6,r3
        0x01104030:    1828        (.      ADDS     r0,r5,r0
        0x01104032:    60a0        .`      STR      r0,[r4,#8]
        0x01104034:    2900        .)      CMP      r1,#0
        0x01104036:    d105        ..      BNE      0x1104044 ; ota_ftc_proc_get_req + 80
        0x01104038:    480d        .H      LDR      r0,[pc,#52] ; [0x1104070] = 0x40004034
        0x0110403a:    6800        .h      LDR      r0,[r0,#0]
        0x0110403c:    6060        ``      STR      r0,[r4,#4]
        0x0110403e:    20ff        .       MOVS     r0,#0xff
        0x01104040:    3099        .0      ADDS     r0,r0,#0x99
        0x01104042:    60a0        .`      STR      r0,[r4,#8]
        0x01104044:    2001        .       MOVS     r0,#1
        0x01104046:    8221        !.      STRH     r1,[r4,#0x10]
        0x01104048:    7210        .r      STRB     r0,[r2,#8]
        0x0110404a:    2500        .%      MOVS     r5,#0
        0x0110404c:    2000        .       MOVS     r0,#0
        0x0110404e:    460a        .F      MOV      r2,r1
        0x01104050:    9000        ..      STR      r0,[sp,#0]
        0x01104052:    462b        +F      MOV      r3,r5
        0x01104054:    2102        .!      MOVS     r1,#2
        0x01104056:    4638        8F      MOV      r0,r7
        0x01104058:    f000f8aa    ....    BL       ota_ftc_send_rsp ; 0x11041b0
        0x0110405c:    2d00        .-      CMP      r5,#0
        0x0110405e:    d103        ..      BNE      0x1104068 ; ota_ftc_proc_get_req + 116
        0x01104060:    2008        .       MOVS     r0,#8
        0x01104062:    6367        gc      STR      r7,[r4,#0x34]
        0x01104064:    f000f9ba    ....    BL       ota_send_event ; 0x11043dc
        0x01104068:    bdf8        ..      POP      {r3-r7,pc}
    $d
        0x0110406a:    0000        ..      DCW    0
        0x0110406c:    20006b88    .k.     DCD    536898440
        0x01104070:    40004034    4@.@    DCD    1073758260
    $t
    i.ota_ftc_proc_put_req
    ota_ftc_proc_put_req
        0x01104074:    b5f8        ..      PUSH     {r3-r7,lr}
        0x01104076:    4a16        .J      LDR      r2,[pc,#88] ; [0x11040d0] = 0x20006b88
        0x01104078:    4684        .F      MOV      r12,r0
        0x0110407a:    7a14        .z      LDRB     r4,[r2,#8]
        0x0110407c:    2000        .       MOVS     r0,#0
        0x0110407e:    2c00        .,      CMP      r4,#0
        0x01104080:    d001        ..      BEQ      0x1104086 ; ota_ftc_proc_put_req + 18
        0x01104082:    2304        .#      MOVS     r3,#4
        0x01104084:    e01d        ..      B        0x11040c2 ; ota_ftc_proc_put_req + 78
        0x01104086:    4c12        .L      LDR      r4,[pc,#72] ; [0x11040d0] = 0x20006b88
        0x01104088:    3c20         <      SUBS     r4,r4,#0x20
        0x0110408a:    8221        !.      STRH     r1,[r4,#0x10]
        0x0110408c:    785e        ^x      LDRB     r6,[r3,#1]
        0x0110408e:    781d        .x      LDRB     r5,[r3,#0]
        0x01104090:    0236        6.      LSLS     r6,r6,#8
        0x01104092:    19ad        ..      ADDS     r5,r5,r6
        0x01104094:    789e        .x      LDRB     r6,[r3,#2]
        0x01104096:    78df        .x      LDRB     r7,[r3,#3]
        0x01104098:    0436        6.      LSLS     r6,r6,#16
        0x0110409a:    063f        ?.      LSLS     r7,r7,#24
        0x0110409c:    19f6        ..      ADDS     r6,r6,r7
        0x0110409e:    19ad        ..      ADDS     r5,r5,r6
        0x011040a0:    6065        e`      STR      r5,[r4,#4]
        0x011040a2:    795e        ^y      LDRB     r6,[r3,#5]
        0x011040a4:    791d        .y      LDRB     r5,[r3,#4]
        0x011040a6:    0236        6.      LSLS     r6,r6,#8
        0x011040a8:    19ad        ..      ADDS     r5,r5,r6
        0x011040aa:    799e        .y      LDRB     r6,[r3,#6]
        0x011040ac:    79db        .y      LDRB     r3,[r3,#7]
        0x011040ae:    0436        6.      LSLS     r6,r6,#16
        0x011040b0:    061b        ..      LSLS     r3,r3,#24
        0x011040b2:    18f3        ..      ADDS     r3,r6,r3
        0x011040b4:    18eb        ..      ADDS     r3,r5,r3
        0x011040b6:    60a3        .`      STR      r3,[r4,#8]
        0x011040b8:    2303        .#      MOVS     r3,#3
        0x011040ba:    7213        .r      STRB     r3,[r2,#8]
        0x011040bc:    62e0        .b      STR      r0,[r4,#0x2c]
        0x011040be:    2300        .#      MOVS     r3,#0
        0x011040c0:    6320         c      STR      r0,[r4,#0x30]
        0x011040c2:    460a        .F      MOV      r2,r1
        0x011040c4:    9000        ..      STR      r0,[sp,#0]
        0x011040c6:    2104        .!      MOVS     r1,#4
        0x011040c8:    4660        `F      MOV      r0,r12
        0x011040ca:    f000f871    ..q.    BL       ota_ftc_send_rsp ; 0x11041b0
        0x011040ce:    bdf8        ..      POP      {r3-r7,pc}
    $d
        0x011040d0:    20006b88    .k.     DCD    536898440
    $t
    i.ota_ftc_proc_verify_req
    ota_ftc_proc_verify_req
        0x011040d4:    b5ff        ..      PUSH     {r0-r7,lr}
        0x011040d6:    482a        *H      LDR      r0,[pc,#168] ; [0x1104180] = 0x20006b88
        0x011040d8:    b0c1        ..      SUB      sp,sp,#0x104
        0x011040da:    7a00        .z      LDRB     r0,[r0,#8]
        0x011040dc:    2800        .(      CMP      r0,#0
        0x011040de:    d001        ..      BEQ      0x11040e4 ; ota_ftc_proc_verify_req + 16
        0x011040e0:    2304        .#      MOVS     r3,#4
        0x011040e2:    e044        D.      B        0x110416e ; ota_ftc_proc_verify_req + 154
        0x011040e4:    4e26        &N      LDR      r6,[pc,#152] ; [0x1104180] = 0x20006b88
        0x011040e6:    9842        B.      LDR      r0,[sp,#0x108]
        0x011040e8:    3e20         >      SUBS     r6,r6,#0x20
        0x011040ea:    8230        0.      STRH     r0,[r6,#0x10]
        0x011040ec:    7859        Yx      LDRB     r1,[r3,#1]
        0x011040ee:    7818        .x      LDRB     r0,[r3,#0]
        0x011040f0:    0209        ..      LSLS     r1,r1,#8
        0x011040f2:    1840        @.      ADDS     r0,r0,r1
        0x011040f4:    7899        .x      LDRB     r1,[r3,#2]
        0x011040f6:    78da        .x      LDRB     r2,[r3,#3]
        0x011040f8:    0409        ..      LSLS     r1,r1,#16
        0x011040fa:    0612        ..      LSLS     r2,r2,#24
        0x011040fc:    1889        ..      ADDS     r1,r1,r2
        0x011040fe:    1840        @.      ADDS     r0,r0,r1
        0x01104100:    6070        p`      STR      r0,[r6,#4]
        0x01104102:    7959        Yy      LDRB     r1,[r3,#5]
        0x01104104:    7918        .y      LDRB     r0,[r3,#4]
        0x01104106:    0209        ..      LSLS     r1,r1,#8
        0x01104108:    1840        @.      ADDS     r0,r0,r1
        0x0110410a:    7999        .y      LDRB     r1,[r3,#6]
        0x0110410c:    79da        .y      LDRB     r2,[r3,#7]
        0x0110410e:    0409        ..      LSLS     r1,r1,#16
        0x01104110:    0612        ..      LSLS     r2,r2,#24
        0x01104112:    1889        ..      ADDS     r1,r1,r2
        0x01104114:    1840        @.      ADDS     r0,r0,r1
        0x01104116:    60b0        .`      STR      r0,[r6,#8]
        0x01104118:    7a59        Yz      LDRB     r1,[r3,#9]
        0x0110411a:    7a18        .z      LDRB     r0,[r3,#8]
        0x0110411c:    0209        ..      LSLS     r1,r1,#8
        0x0110411e:    1840        @.      ADDS     r0,r0,r1
        0x01104120:    7a99        .z      LDRB     r1,[r3,#0xa]
        0x01104122:    7ada        .z      LDRB     r2,[r3,#0xb]
        0x01104124:    0409        ..      LSLS     r1,r1,#16
        0x01104126:    0612        ..      LSLS     r2,r2,#24
        0x01104128:    1889        ..      ADDS     r1,r1,r2
        0x0110412a:    1840        @.      ADDS     r0,r0,r1
        0x0110412c:    2400        .$      MOVS     r4,#0
        0x0110412e:    4625        %F      MOV      r5,r4
        0x01104130:    60f0        .`      STR      r0,[r6,#0xc]
        0x01104132:    e013        ..      B        0x110415c ; ota_ftc_proc_verify_req + 136
        0x01104134:    1b07        ..      SUBS     r7,r0,r4
        0x01104136:    20ff        .       MOVS     r0,#0xff
        0x01104138:    3001        .0      ADDS     r0,#1
        0x0110413a:    4287        .B      CMP      r7,r0
        0x0110413c:    d900        ..      BLS      0x1104140 ; ota_ftc_proc_verify_req + 108
        0x0110413e:    4607        .F      MOV      r7,r0
        0x01104140:    6870        ph      LDR      r0,[r6,#4]
        0x01104142:    463b        ;F      MOV      r3,r7
        0x01104144:    1901        ..      ADDS     r1,r0,r4
        0x01104146:    466a        jF      MOV      r2,sp
        0x01104148:    6bb0        .k      LDR      r0,[r6,#0x38]
        0x0110414a:    f000f993    ....    BL       ota_storage_read ; 0x1104474
        0x0110414e:    462a        *F      MOV      r2,r5
        0x01104150:    4639        9F      MOV      r1,r7
        0x01104152:    4668        hF      MOV      r0,sp
        0x01104154:    f7fdfa42    ..B.    BL       $Ven$TT$L$$crc32 ; 0x11015dc
        0x01104158:    4605        .F      MOV      r5,r0
        0x0110415a:    19e4        ..      ADDS     r4,r4,r7
        0x0110415c:    68b0        .h      LDR      r0,[r6,#8]
        0x0110415e:    42a0        .B      CMP      r0,r4
        0x01104160:    d8e8        ..      BHI      0x1104134 ; ota_ftc_proc_verify_req + 96
        0x01104162:    68f0        .h      LDR      r0,[r6,#0xc]
        0x01104164:    42a8        .B      CMP      r0,r5
        0x01104166:    d101        ..      BNE      0x110416c ; ota_ftc_proc_verify_req + 152
        0x01104168:    2300        .#      MOVS     r3,#0
        0x0110416a:    e000        ..      B        0x110416e ; ota_ftc_proc_verify_req + 154
        0x0110416c:    2305        .#      MOVS     r3,#5
        0x0110416e:    2000        .       MOVS     r0,#0
        0x01104170:    9000        ..      STR      r0,[sp,#0]
        0x01104172:    2108        .!      MOVS     r1,#8
        0x01104174:    9a42        B.      LDR      r2,[sp,#0x108]
        0x01104176:    9841        A.      LDR      r0,[sp,#0x104]
        0x01104178:    f000f81a    ....    BL       ota_ftc_send_rsp ; 0x11041b0
        0x0110417c:    b045        E.      ADD      sp,sp,#0x114
        0x0110417e:    bdf0        ..      POP      {r4-r7,pc}
    $d
        0x01104180:    20006b88    .k.     DCD    536898440
    $t
    i.ota_ftc_send
    ota_ftc_send
        0x01104184:    b570        p.      PUSH     {r4-r6,lr}
        0x01104186:    4605        .F      MOV      r5,r0
        0x01104188:    2105        .!      MOVS     r1,#5
        0x0110418a:    f7fffe1d    ....    BL       ota_ccc_enabled ; 0x1103dc8
        0x0110418e:    4c07        .L      LDR      r4,[pc,#28] ; [0x11041ac] = 0x20006b68
        0x01104190:    2800        .(      CMP      r0,#0
        0x01104192:    d006        ..      BEQ      0x11041a2 ; ota_ftc_send + 30
        0x01104194:    4623        #F      MOV      r3,r4
        0x01104196:    8a62        b.      LDRH     r2,[r4,#0x12]
        0x01104198:    3314        .3      ADDS     r3,r3,#0x14
        0x0110419a:    2105        .!      MOVS     r1,#5
        0x0110419c:    4628        (F      MOV      r0,r5
        0x0110419e:    f000f92b    ..+.    BL       ota_send_notify ; 0x11043f8
        0x011041a2:    7820         x      LDRB     r0,[r4,#0]
        0x011041a4:    21fb        .!      MOVS     r1,#0xfb
        0x011041a6:    4008        .@      ANDS     r0,r0,r1
        0x011041a8:    7020         p      STRB     r0,[r4,#0]
        0x011041aa:    bd70        p.      POP      {r4-r6,pc}
    $d
        0x011041ac:    20006b68    hk.     DCD    536898408
    $t
    i.ota_ftc_send_rsp
    ota_ftc_send_rsp
        0x011041b0:    b5f8        ..      PUSH     {r3-r7,lr}
        0x011041b2:    4d18        .M      LDR      r5,[pc,#96] ; [0x1104214] = 0x20006b68
        0x011041b4:    4606        .F      MOV      r6,r0
        0x011041b6:    782c        ,x      LDRB     r4,[r5,#0]
        0x011041b8:    9806        ..      LDR      r0,[sp,#0x18]
        0x011041ba:    0764        d.      LSLS     r4,r4,#29
        0x011041bc:    d429        ).      BMI      0x1104212 ; ota_ftc_send_rsp + 98
        0x011041be:    462c        ,F      MOV      r4,r5
        0x011041c0:    7521        !u      STRB     r1,[r4,#0x14]
        0x011041c2:    7562        bu      STRB     r2,[r4,#0x15]
        0x011041c4:    0a12        ..      LSRS     r2,r2,#8
        0x011041c6:    75a2        .u      STRB     r2,[r4,#0x16]
        0x011041c8:    75e3        .u      STRB     r3,[r4,#0x17]
        0x011041ca:    3418        .4      ADDS     r4,r4,#0x18
        0x011041cc:    290b        .)      CMP      r1,#0xb
        0x011041ce:    d002        ..      BEQ      0x11041d6 ; ota_ftc_send_rsp + 38
        0x011041d0:    290e        .)      CMP      r1,#0xe
        0x011041d2:    d005        ..      BEQ      0x11041e0 ; ota_ftc_send_rsp + 48
        0x011041d4:    e012        ..      B        0x11041fc ; ota_ftc_send_rsp + 76
        0x011041d6:    7020         p      STRB     r0,[r4,#0]
        0x011041d8:    0a00        ..      LSRS     r0,r0,#8
        0x011041da:    7060        `p      STRB     r0,[r4,#1]
        0x011041dc:    1ca4        ..      ADDS     r4,r4,#2
        0x011041de:    e00d        ..      B        0x11041fc ; ota_ftc_send_rsp + 76
        0x011041e0:    f001fb10    ....    BL       sys_version_get ; 0x1105804
        0x011041e4:    4607        .F      MOV      r7,r0
        0x011041e6:    f7fdf843    ..C.    BL       $Ven$TT$L$$strlen ; 0x1101270
        0x011041ea:    4602        .F      MOV      r2,r0
        0x011041ec:    4639        9F      MOV      r1,r7
        0x011041ee:    4620         F      MOV      r0,r4
        0x011041f0:    f7fcfe4c    ..L.    BL       __aeabi_memcpy ; 0x1100e8c
        0x011041f4:    4638        8F      MOV      r0,r7
        0x011041f6:    f7fdf83b    ..;.    BL       $Ven$TT$L$$strlen ; 0x1101270
        0x011041fa:    1904        ..      ADDS     r4,r0,r4
        0x011041fc:    1b60        `.      SUBS     r0,r4,r5
        0x011041fe:    3814        .8      SUBS     r0,r0,#0x14
        0x01104200:    8268        h.      STRH     r0,[r5,#0x12]
        0x01104202:    7828        (x      LDRB     r0,[r5,#0]
        0x01104204:    2104        .!      MOVS     r1,#4
        0x01104206:    4308        .C      ORRS     r0,r0,r1
        0x01104208:    7028        (p      STRB     r0,[r5,#0]
        0x0110420a:    4608        .F      MOV      r0,r1
        0x0110420c:    636e        nc      STR      r6,[r5,#0x34]
        0x0110420e:    f000f8e5    ....    BL       ota_send_event ; 0x11043dc
        0x01104212:    bdf8        ..      POP      {r3-r7,pc}
    $d
        0x01104214:    20006b68    hk.     DCD    536898408
    $t
    i.ota_ftc_write
    ota_ftc_write
        0x01104218:    b5f8        ..      PUSH     {r3-r7,lr}
        0x0110421a:    460b        .F      MOV      r3,r1
        0x0110421c:    2903        .)      CMP      r1,#3
        0x0110421e:    d201        ..      BCS      0x1104224 ; ota_ftc_write + 12
        0x01104220:    200d        .       MOVS     r0,#0xd
        0x01104222:    bdf8        ..      POP      {r3-r7,pc}
        0x01104224:    7894        .x      LDRB     r4,[r2,#2]
        0x01104226:    7851        Qx      LDRB     r1,[r2,#1]
        0x01104228:    0224        $.      LSLS     r4,r4,#8
        0x0110422a:    1909        ..      ADDS     r1,r1,r4
        0x0110422c:    7816        .x      LDRB     r6,[r2,#0]
        0x0110422e:    1edb        ..      SUBS     r3,r3,#3
        0x01104230:    b29c        ..      UXTH     r4,r3
        0x01104232:    b289        ..      UXTH     r1,r1
        0x01104234:    2500        .%      MOVS     r5,#0
        0x01104236:    1cd2        ..      ADDS     r2,r2,#3
        0x01104238:    0033        3.      MOVS     r3,r6
        0x0110423a:    f7fdfbe6    ....    BL       __ARM_common_switch8 ; 0x1101a0a
    $d
        0x0110423e:    320e        .2      DCW    12814
        0x01104240:    320d3208    .2.2    DCD    839725576
        0x01104244:    32123217    .2.2    DCD    840053271
        0x01104248:    2532321c    .22%    DCD    624046620
        0x0110424c:    322c        ,2      DCW    12844
    $t
        0x0110424e:    4613        .F      MOV      r3,r2
        0x01104250:    4622        "F      MOV      r2,r4
        0x01104252:    f7fffecf    ....    BL       ota_ftc_proc_get_req ; 0x1103ff4
        0x01104256:    e024        $.      B        0x11042a2 ; ota_ftc_write + 138
        0x01104258:    4613        .F      MOV      r3,r2
        0x0110425a:    4622        "F      MOV      r2,r4
        0x0110425c:    f7ffff0a    ....    BL       ota_ftc_proc_put_req ; 0x1104074
        0x01104260:    e01f        ..      B        0x11042a2 ; ota_ftc_write + 138
        0x01104262:    4613        .F      MOV      r3,r2
        0x01104264:    4622        "F      MOV      r2,r4
        0x01104266:    f7ffff35    ..5.    BL       ota_ftc_proc_verify_req ; 0x11040d4
        0x0110426a:    e01a        ..      B        0x11042a2 ; ota_ftc_write + 138
        0x0110426c:    4613        .F      MOV      r3,r2
        0x0110426e:    4622        "F      MOV      r2,r4
        0x01104270:    f7fffe8e    ....    BL       ota_ftc_proc_erase_req ; 0x1103f90
        0x01104274:    e015        ..      B        0x11042a2 ; ota_ftc_write + 138
        0x01104276:    480c        .H      LDR      r0,[pc,#48] ; [0x11042a8] = 0x20006b88
        0x01104278:    7a01        .z      LDRB     r1,[r0,#8]
        0x0110427a:    2900        .)      CMP      r1,#0
        0x0110427c:    d011        ..      BEQ      0x11042a2 ; ota_ftc_write + 138
        0x0110427e:    7205        .r      STRB     r5,[r0,#8]
        0x01104280:    3820         8      SUBS     r0,r0,#0x20
        0x01104282:    6085        .`      STR      r5,[r0,#8]
        0x01104284:    6045        E`      STR      r5,[r0,#4]
        0x01104286:    e00c        ..      B        0x11042a2 ; ota_ftc_write + 138
        0x01104288:    4908        .I      LDR      r1,[pc,#32] ; [0x11042ac] = 0x20002308
        0x0110428a:    2001        .       MOVS     r0,#1
        0x0110428c:    7008        .p      STRB     r0,[r1,#0]
        0x0110428e:    2080        .       MOVS     r0,#0x80
        0x01104290:    f000f8a4    ....    BL       ota_send_event ; 0x11043dc
        0x01104294:    e005        ..      B        0x11042a2 ; ota_ftc_write + 138
        0x01104296:    460a        .F      MOV      r2,r1
        0x01104298:    462b        +F      MOV      r3,r5
        0x0110429a:    210e        .!      MOVS     r1,#0xe
        0x0110429c:    9500        ..      STR      r5,[sp,#0]
        0x0110429e:    f7ffff87    ....    BL       ota_ftc_send_rsp ; 0x11041b0
        0x011042a2:    2000        .       MOVS     r0,#0
        0x011042a4:    bdf8        ..      POP      {r3-r7,pc}
    $d
        0x011042a6:    0000        ..      DCW    0
        0x011042a8:    20006b88    .k.     DCD    536898440
        0x011042ac:    20002308    .#.     DCD    536879880
    $t
    i.ota_ftd_ccc_cfg_changed
    ota_ftd_ccc_cfg_changed
        0x011042b0:    2901        .)      CMP      r1,#1
        0x011042b2:    d003        ..      BEQ      0x11042bc ; ota_ftd_ccc_cfg_changed + 12
        0x011042b4:    2000        .       MOVS     r0,#0
        0x011042b6:    4902        .I      LDR      r1,[pc,#8] ; [0x11042c0] = 0x20001bd0
        0x011042b8:    7088        .p      STRB     r0,[r1,#2]
        0x011042ba:    4770        pG      BX       lr
        0x011042bc:    2001        .       MOVS     r0,#1
        0x011042be:    e7fa        ..      B        0x11042b6 ; ota_ftd_ccc_cfg_changed + 6
    $d
        0x011042c0:    20001bd0    ...     DCD    536878032
    $t
    i.ota_ftd_send
    ota_ftd_send
        0x011042c4:    b570        p.      PUSH     {r4-r6,lr}
        0x011042c6:    b086        ..      SUB      sp,sp,#0x18
        0x011042c8:    4606        .F      MOV      r6,r0
        0x011042ca:    2108        .!      MOVS     r1,#8
        0x011042cc:    f7fffd7c    ..|.    BL       ota_ccc_enabled ; 0x1103dc8
        0x011042d0:    2800        .(      CMP      r0,#0
        0x011042d2:    d022        ".      BEQ      0x110431a ; ota_ftd_send + 86
        0x011042d4:    4d1a        .M      LDR      r5,[pc,#104] ; [0x1104340] = 0x20006b68
        0x011042d6:    2014        .       MOVS     r0,#0x14
        0x011042d8:    68ac        .h      LDR      r4,[r5,#8]
        0x011042da:    aa01        ..      ADD      r2,sp,#4
        0x011042dc:    2c14        .,      CMP      r4,#0x14
        0x011042de:    d900        ..      BLS      0x11042e2 ; ota_ftd_send + 30
        0x011042e0:    4604        .F      MOV      r4,r0
        0x011042e2:    2c00        .,      CMP      r4,#0
        0x011042e4:    d010        ..      BEQ      0x1104308 ; ota_ftd_send + 68
        0x011042e6:    4623        #F      MOV      r3,r4
        0x011042e8:    6869        ih      LDR      r1,[r5,#4]
        0x011042ea:    6ba8        .k      LDR      r0,[r5,#0x38]
        0x011042ec:    f000f8c2    ....    BL       ota_storage_read ; 0x1104474
        0x011042f0:    68a8        .h      LDR      r0,[r5,#8]
        0x011042f2:    b2a2        ..      UXTH     r2,r4
        0x011042f4:    1b00        ..      SUBS     r0,r0,r4
        0x011042f6:    60a8        .`      STR      r0,[r5,#8]
        0x011042f8:    6868        hh      LDR      r0,[r5,#4]
        0x011042fa:    ab01        ..      ADD      r3,sp,#4
        0x011042fc:    1900        ..      ADDS     r0,r0,r4
        0x011042fe:    6068        h`      STR      r0,[r5,#4]
        0x01104300:    2108        .!      MOVS     r1,#8
        0x01104302:    4630        0F      MOV      r0,r6
        0x01104304:    f000f878    ..x.    BL       ota_send_notify ; 0x11043f8
        0x01104308:    68a8        .h      LDR      r0,[r5,#8]
        0x0110430a:    2800        .(      CMP      r0,#0
        0x0110430c:    d007        ..      BEQ      0x110431e ; ota_ftd_send + 90
        0x0110430e:    2c00        .,      CMP      r4,#0
        0x01104310:    d005        ..      BEQ      0x110431e ; ota_ftd_send + 90
        0x01104312:    2008        .       MOVS     r0,#8
        0x01104314:    636e        nc      STR      r6,[r5,#0x34]
        0x01104316:    f000f861    ..a.    BL       ota_send_event ; 0x11043dc
        0x0110431a:    b006        ..      ADD      sp,sp,#0x18
        0x0110431c:    bd70        p.      POP      {r4-r6,pc}
        0x0110431e:    4908        .I      LDR      r1,[pc,#32] ; [0x1104340] = 0x20006b68
        0x01104320:    2000        .       MOVS     r0,#0
        0x01104322:    3120         1      ADDS     r1,r1,#0x20
        0x01104324:    7208        .r      STRB     r0,[r1,#8]
        0x01104326:    7829        )x      LDRB     r1,[r5,#0]
        0x01104328:    22f7        ."      MOVS     r2,#0xf7
        0x0110432a:    4011        .@      ANDS     r1,r1,r2
        0x0110432c:    7029        )p      STRB     r1,[r5,#0]
        0x0110432e:    9000        ..      STR      r0,[sp,#0]
        0x01104330:    4603        .F      MOV      r3,r0
        0x01104332:    8a2a        *.      LDRH     r2,[r5,#0x10]
        0x01104334:    210a        .!      MOVS     r1,#0xa
        0x01104336:    4630        0F      MOV      r0,r6
        0x01104338:    f7ffff3a    ..:.    BL       ota_ftc_send_rsp ; 0x11041b0
        0x0110433c:    e7ed        ..      B        0x110431a ; ota_ftd_send + 86
    $d
        0x0110433e:    0000        ..      DCW    0
        0x01104340:    20006b68    hk.     DCD    536898408
    $t
    i.ota_ftd_write
    ota_ftd_write
        0x01104344:    b5f8        ..      PUSH     {r3-r7,lr}
        0x01104346:    4e1d        .N      LDR      r6,[pc,#116] ; [0x11043bc] = 0x20006b88
        0x01104348:    4607        .F      MOV      r7,r0
        0x0110434a:    7a30        0z      LDRB     r0,[r6,#8]
        0x0110434c:    460c        .F      MOV      r4,r1
        0x0110434e:    2803        .(      CMP      r0,#3
        0x01104350:    d001        ..      BEQ      0x1104356 ; ota_ftd_write + 18
        0x01104352:    200e        .       MOVS     r0,#0xe
        0x01104354:    bdf8        ..      POP      {r3-r7,pc}
        0x01104356:    2c00        .,      CMP      r4,#0
        0x01104358:    d020         .      BEQ      0x110439c ; ota_ftd_write + 88
        0x0110435a:    4d18        .M      LDR      r5,[pc,#96] ; [0x11043bc] = 0x20006b88
        0x0110435c:    3d20         =      SUBS     r5,r5,#0x20
        0x0110435e:    68a8        .h      LDR      r0,[r5,#8]
        0x01104360:    42a0        .B      CMP      r0,r4
        0x01104362:    d319        ..      BCC      0x1104398 ; ota_ftd_write + 84
        0x01104364:    4623        #F      MOV      r3,r4
        0x01104366:    6869        ih      LDR      r1,[r5,#4]
        0x01104368:    6ba8        .k      LDR      r0,[r5,#0x38]
        0x0110436a:    f000f88d    ....    BL       ota_storage_write ; 0x1104488
        0x0110436e:    6868        hh      LDR      r0,[r5,#4]
        0x01104370:    1900        ..      ADDS     r0,r0,r4
        0x01104372:    6068        h`      STR      r0,[r5,#4]
        0x01104374:    68a8        .h      LDR      r0,[r5,#8]
        0x01104376:    1b00        ..      SUBS     r0,r0,r4
        0x01104378:    60a8        .`      STR      r0,[r5,#8]
        0x0110437a:    6ae9        .j      LDR      r1,[r5,#0x2c]
        0x0110437c:    636f        oc      STR      r7,[r5,#0x34]
        0x0110437e:    1909        ..      ADDS     r1,r1,r4
        0x01104380:    62e9        .b      STR      r1,[r5,#0x2c]
        0x01104382:    2800        .(      CMP      r0,#0
        0x01104384:    d00c        ..      BEQ      0x11043a0 ; ota_ftd_write + 92
        0x01104386:    7828        (x      LDRB     r0,[r5,#0]
        0x01104388:    0681        ..      LSLS     r1,r0,#26
        0x0110438a:    d405        ..      BMI      0x1104398 ; ota_ftd_write + 84
        0x0110438c:    2120         !      MOVS     r1,#0x20
        0x0110438e:    4308        .C      ORRS     r0,r0,r1
        0x01104390:    7028        (p      STRB     r0,[r5,#0]
        0x01104392:    4608        .F      MOV      r0,r1
        0x01104394:    f000f822    ..".    BL       ota_send_event ; 0x11043dc
        0x01104398:    2000        .       MOVS     r0,#0
        0x0110439a:    bdf8        ..      POP      {r3-r7,pc}
        0x0110439c:    200d        .       MOVS     r0,#0xd
        0x0110439e:    bdf8        ..      POP      {r3-r7,pc}
        0x011043a0:    2400        .$      MOVS     r4,#0
        0x011043a2:    7234        4r      STRB     r4,[r6,#8]
        0x011043a4:    2020                MOVS     r0,#0x20
        0x011043a6:    f000f819    ....    BL       ota_send_event ; 0x11043dc
        0x011043aa:    9400        ..      STR      r4,[sp,#0]
        0x011043ac:    8a2a        *.      LDRH     r2,[r5,#0x10]
        0x011043ae:    2300        .#      MOVS     r3,#0
        0x011043b0:    210a        .!      MOVS     r1,#0xa
        0x011043b2:    4638        8F      MOV      r0,r7
        0x011043b4:    f7fffefc    ....    BL       ota_ftc_send_rsp ; 0x11041b0
        0x011043b8:    e7ee        ..      B        0x1104398 ; ota_ftd_write + 84
    $d
        0x011043ba:    0000        ..      DCW    0
        0x011043bc:    20006b88    .k.     DCD    536898440
    $t
    i.ota_init
    ota_init
        0x011043c0:    b510        ..      PUSH     {r4,lr}
        0x011043c2:    4802        .H      LDR      r0,[pc,#8] ; [0x11043cc] = 0x20001cdc
        0x011043c4:    f7fcffc6    ....    BL       $Ven$TT$L$$bt_gatt_service_register ; 0x1101354
        0x011043c8:    bd10        ..      POP      {r4,pc}
    $d
        0x011043ca:    0000        ..      DCW    0
        0x011043cc:    20001cdc    ...     DCD    536878300
    $t
    i.ota_register
    ota_register
        0x011043d0:    4901        .I      LDR      r1,[pc,#4] ; [0x11043d8] = 0x20001bd0
        0x011043d2:    6048        H`      STR      r0,[r1,#4]
        0x011043d4:    4770        pG      BX       lr
    $d
        0x011043d6:    0000        ..      DCW    0
        0x011043d8:    20001bd0    ...     DCD    536878032
    $t
    i.ota_send_event
    ota_send_event
        0x011043dc:    b50e        ..      PUSH     {r1-r3,lr}
        0x011043de:    2100        .!      MOVS     r1,#0
        0x011043e0:    9100        ..      STR      r1,[sp,#0]
        0x011043e2:    9102        ..      STR      r1,[sp,#8]
        0x011043e4:    2106        .!      MOVS     r1,#6
        0x011043e6:    466a        jF      MOV      r2,sp
        0x011043e8:    7051        Qp      STRB     r1,[r2,#1]
        0x011043ea:    9001        ..      STR      r0,[sp,#4]
        0x011043ec:    2164        d!      MOVS     r1,#0x64
        0x011043ee:    4668        hF      MOV      r0,sp
        0x011043f0:    f000fdd0    ....    BL       send_msg ; 0x1104f94
        0x011043f4:    bd0e        ..      POP      {r1-r3,pc}
        0x011043f6:    0000        ..      MOVS     r0,r0
    i.ota_send_notify
    ota_send_notify
        0x011043f8:    b510        ..      PUSH     {r4,lr}
        0x011043fa:    461c        .F      MOV      r4,r3
        0x011043fc:    2314        .#      MOVS     r3,#0x14
        0x011043fe:    4359        YC      MULS     r1,r3,r1
        0x01104400:    4b03        .K      LDR      r3,[pc,#12] ; [0x1104410] = 0x20001bd8
        0x01104402:    18c9        ..      ADDS     r1,r1,r3
        0x01104404:    4613        .F      MOV      r3,r2
        0x01104406:    4622        "F      MOV      r2,r4
        0x01104408:    f7fdf864    ..d.    BL       $Ven$TT$L$$bt_gatt_notify ; 0x11014d4
        0x0110440c:    bd10        ..      POP      {r4,pc}
    $d
        0x0110440e:    0000        ..      DCW    0
        0x01104410:    20001bd8    ...     DCD    536878040
    $t
    i.ota_storage_erase
    ota_storage_erase
        0x01104414:    2800        .(      CMP      r0,#0
        0x01104416:    d002        ..      BEQ      0x110441e ; ota_storage_erase + 10
        0x01104418:    6843        Ch      LDR      r3,[r0,#4]
        0x0110441a:    689b        .h      LDR      r3,[r3,#8]
        0x0110441c:    4718        .G      BX       r3
        0x0110441e:    4770        pG      BX       lr
    i.ota_storage_init
    ota_storage_init
        0x01104420:    b508        ..      PUSH     {r3,lr}
        0x01104422:    a007        ..      ADR      r0,{pc}+0x1e ; 0x1104440
        0x01104424:    f7fefd56    ..V.    BL       device_get_binding ; 0x1102ed4
        0x01104428:    2800        .(      CMP      r0,#0
        0x0110442a:    d108        ..      BNE      0x110443e ; ota_storage_init + 30
        0x0110442c:    a006        ..      ADR      r0,{pc}+0x1c ; 0x1104448
        0x0110442e:    9000        ..      STR      r0,[sp,#0]
        0x01104430:    a303        ..      ADR      r3,{pc}+0x10 ; 0x1104440
        0x01104432:    a205        ..      ADR      r2,{pc}+0x16 ; 0x1104448
        0x01104434:    a105        ..      ADR      r1,{pc}+0x18 ; 0x110444c
        0x01104436:    a006        ..      ADR      r0,{pc}+0x1a ; 0x1104450
        0x01104438:    f7fcfe36    ..6.    BL       $Ven$TT$L$$printk ; 0x11010a8
        0x0110443c:    2000        .       MOVS     r0,#0
        0x0110443e:    bd08        ..      POP      {r3,pc}
    $d
        0x01104440:    69707378    xspi    DCD    1768977272
        0x01104444:    726f6e5f    _nor    DCD    1919905375
        0x01104448:    00000000    ....    DCD    0
        0x0110444c:    0061746f    ota.    DCD    6386799
        0x01104450:    5d73255b    [%s]    DCD    1567827291
        0x01104454:    63732520     %sc    DCD    1668490528
        0x01104458:    6f6e6e61    anno    DCD    1869508193
        0x0110445c:    6f662074    t fo    DCD    1868963956
        0x01104460:    20646e75    und     DCD    543452789
        0x01104464:    69766564    devi    DCD    1769366884
        0x01104468:    27206563    ce '    DCD    656434531
        0x0110446c:    25277325    %s'%    DCD    623342373
        0x01104470:    00000a73    s...    DCD    2675
    $t
    i.ota_storage_read
    ota_storage_read
        0x01104474:    b430        0.      PUSH     {r4,r5}
        0x01104476:    2800        .(      CMP      r0,#0
        0x01104478:    d004        ..      BEQ      0x1104484 ; ota_storage_read + 16
        0x0110447a:    6844        Dh      LDR      r4,[r0,#4]
        0x0110447c:    6824        $h      LDR      r4,[r4,#0]
        0x0110447e:    46a4        .F      MOV      r12,r4
        0x01104480:    bc30        0.      POP      {r4,r5}
        0x01104482:    4760        `G      BX       r12
        0x01104484:    bc30        0.      POP      {r4,r5}
        0x01104486:    4770        pG      BX       lr
    i.ota_storage_write
    ota_storage_write
        0x01104488:    b430        0.      PUSH     {r4,r5}
        0x0110448a:    2800        .(      CMP      r0,#0
        0x0110448c:    d004        ..      BEQ      0x1104498 ; ota_storage_write + 16
        0x0110448e:    6844        Dh      LDR      r4,[r0,#4]
        0x01104490:    6864        dh      LDR      r4,[r4,#4]
        0x01104492:    46a4        .F      MOV      r12,r4
        0x01104494:    bc30        0.      POP      {r4,r5}
        0x01104496:    4760        `G      BX       r12
        0x01104498:    bc30        0.      POP      {r4,r5}
        0x0110449a:    4770        pG      BX       lr
    i.ota_wakeup_timeout_handler
    ota_wakeup_timeout_handler
        0x0110449c:    b510        ..      PUSH     {r4,lr}
        0x0110449e:    4c04        .L      LDR      r4,[pc,#16] ; [0x11044b0] = 0x20006b88
        0x011044a0:    7a60        `z      LDRB     r0,[r4,#9]
        0x011044a2:    2800        .(      CMP      r0,#0
        0x011044a4:    d003        ..      BEQ      0x11044ae ; ota_wakeup_timeout_handler + 18
        0x011044a6:    f7fcff5b    ..[.    BL       $Ven$TT$L$$app_release_wake_lock ; 0x1101360
        0x011044aa:    2000        .       MOVS     r0,#0
        0x011044ac:    7260        `r      STRB     r0,[r4,#9]
        0x011044ae:    bd10        ..      POP      {r4,pc}
    $d
        0x011044b0:    20006b88    .k.     DCD    536898440
    $t
    i.ota_write_cback
    ota_write_cback
        0x011044b4:    b5ff        ..      PUSH     {r0-r7,lr}
        0x011044b6:    4d1a        .M      LDR      r5,[pc,#104] ; [0x1104520] = 0x20006b88
        0x011044b8:    b081        ..      SUB      sp,sp,#4
        0x011044ba:    7a68        hz      LDRB     r0,[r5,#9]
        0x011044bc:    9f0a        ..      LDR      r7,[sp,#0x28]
        0x011044be:    9e0b        ..      LDR      r6,[sp,#0x2c]
        0x011044c0:    460c        .F      MOV      r4,r1
        0x011044c2:    2800        .(      CMP      r0,#0
        0x011044c4:    d109        ..      BNE      0x11044da ; ota_write_cback + 38
        0x011044c6:    f7fcffab    ....    BL       $Ven$TT$L$$app_get_wake_lock ; 0x1101420
        0x011044ca:    4628        (F      MOV      r0,r5
        0x011044cc:    2200        ."      MOVS     r2,#0
        0x011044ce:    4915        .I      LDR      r1,[pc,#84] ; [0x1104524] = 0x1d4c0
        0x011044d0:    301c        .0      ADDS     r0,r0,#0x1c
        0x011044d2:    f7fdf877    ..w.    BL       $Ven$TT$L$$k_timer_start ; 0x11015c4
        0x011044d6:    2001        .       MOVS     r0,#1
        0x011044d8:    7268        hr      STRB     r0,[r5,#9]
        0x011044da:    2c02        .,      CMP      r4,#2
        0x011044dc:    d00e        ..      BEQ      0x11044fc ; ota_write_cback + 72
        0x011044de:    2c05        .,      CMP      r4,#5
        0x011044e0:    d012        ..      BEQ      0x1104508 ; ota_write_cback + 84
        0x011044e2:    2c08        .,      CMP      r4,#8
        0x011044e4:    d016        ..      BEQ      0x1104514 ; ota_write_cback + 96
        0x011044e6:    a010        ..      ADR      r0,{pc}+0x42 ; 0x1104528
        0x011044e8:    9000        ..      STR      r0,[sp,#0]
        0x011044ea:    4623        #F      MOV      r3,r4
        0x011044ec:    a20e        ..      ADR      r2,{pc}+0x3c ; 0x1104528
        0x011044ee:    a10f        ..      ADR      r1,{pc}+0x3e ; 0x110452c
        0x011044f0:    a00f        ..      ADR      r0,{pc}+0x40 ; 0x1104530
        0x011044f2:    f7fcfdd9    ....    BL       $Ven$TT$L$$printk ; 0x11010a8
        0x011044f6:    2001        .       MOVS     r0,#1
        0x011044f8:    b005        ..      ADD      sp,sp,#0x14
        0x011044fa:    bdf0        ..      POP      {r4-r7,pc}
        0x011044fc:    4632        2F      MOV      r2,r6
        0x011044fe:    4639        9F      MOV      r1,r7
        0x01104500:    9801        ..      LDR      r0,[sp,#4]
        0x01104502:    f7fffcd1    ....    BL       ota_dc_write ; 0x1103ea8
        0x01104506:    e7f7        ..      B        0x11044f8 ; ota_write_cback + 68
        0x01104508:    4632        2F      MOV      r2,r6
        0x0110450a:    4639        9F      MOV      r1,r7
        0x0110450c:    9801        ..      LDR      r0,[sp,#4]
        0x0110450e:    f7fffe83    ....    BL       ota_ftc_write ; 0x1104218
        0x01104512:    e7f1        ..      B        0x11044f8 ; ota_write_cback + 68
        0x01104514:    4632        2F      MOV      r2,r6
        0x01104516:    4639        9F      MOV      r1,r7
        0x01104518:    9801        ..      LDR      r0,[sp,#4]
        0x0110451a:    f7ffff13    ....    BL       ota_ftd_write ; 0x1104344
        0x0110451e:    e7eb        ..      B        0x11044f8 ; ota_write_cback + 68
    $d
        0x01104520:    20006b88    .k.     DCD    536898440
        0x01104524:    0001d4c0    ....    DCD    120000
        0x01104528:    00000000    ....    DCD    0
        0x0110452c:    0061746f    ota.    DCD    6386799
        0x01104530:    5d73255b    [%s]    DCD    1567827291
        0x01104534:    4f732520     %sO    DCD    1332946208
        0x01104538:    203a4154    TA:     DCD    540688724
        0x0110453c:    74697257    Writ    DCD    1953067607
        0x01104540:    61624365    eCba    DCD    1633829733
        0x01104544:    75206b63    ck u    DCD    1965058915
        0x01104548:    7078656e    nexp    DCD    1886938478
        0x0110454c:    65746365    ecte    DCD    1702126437
        0x01104550:    61682064    d ha    DCD    1634213988
        0x01104554:    656c646e    ndle    DCD    1701602414
        0x01104558:    2564253d    =%d%    DCD    627320125
        0x0110455c:    00000a73    s...    DCD    2675
    $t
    i.pair_led_indication
    pair_led_indication
        0x01104560:    22ff        ."      MOVS     r2,#0xff
        0x01104562:    b510        ..      PUSH     {r4,lr}
        0x01104564:    3291        .2      ADDS     r2,r2,#0x91
        0x01104566:    2800        .(      CMP      r0,#0
        0x01104568:    d008        ..      BEQ      0x110457c ; pair_led_indication + 28
        0x0110456a:    2801        .(      CMP      r0,#1
        0x0110456c:    d008        ..      BEQ      0x1104580 ; pair_led_indication + 32
        0x0110456e:    2802        .(      CMP      r0,#2
        0x01104570:    d103        ..      BNE      0x110457a ; pair_led_indication + 26
        0x01104572:    2101        .!      MOVS     r1,#1
        0x01104574:    200a        .       MOVS     r0,#0xa
        0x01104576:    f7fffa8f    ....    BL       led_set_state ; 0x1103a98
        0x0110457a:    bd10        ..      POP      {r4,pc}
        0x0110457c:    2100        .!      MOVS     r1,#0
        0x0110457e:    e7f9        ..      B        0x1104574 ; pair_led_indication + 20
        0x01104580:    2101        .!      MOVS     r1,#1
        0x01104582:    200a        .       MOVS     r0,#0xa
        0x01104584:    f7fffa88    ....    BL       led_set_state ; 0x1103a98
        0x01104588:    217d        }!      MOVS     r1,#0x7d
        0x0110458a:    0109        ..      LSLS     r1,r1,#4
        0x0110458c:    4802        .H      LDR      r0,[pc,#8] ; [0x1104598] = 0x20005c2c
        0x0110458e:    f7fff919    ....    BL       k_delayed_work_submit ; 0x11037c4
        0x01104592:    227d        }"      MOVS     r2,#0x7d
        0x01104594:    00d2        ..      LSLS     r2,r2,#3
        0x01104596:    e7f1        ..      B        0x110457c ; pair_led_indication + 28
    $d
        0x01104598:    20005c2c    ,\.     DCD    536894508
    $t
    i.paired_ind_timeout_event
    paired_ind_timeout_event
        0x0110459c:    b510        ..      PUSH     {r4,lr}
        0x0110459e:    227d        }"      MOVS     r2,#0x7d
        0x011045a0:    00d2        ..      LSLS     r2,r2,#3
        0x011045a2:    2101        .!      MOVS     r1,#1
        0x011045a4:    200a        .       MOVS     r0,#0xa
        0x011045a6:    f7fffa77    ..w.    BL       led_set_state ; 0x1103a98
        0x011045aa:    bd10        ..      POP      {r4,pc}
    i.pcm_buffer_free
    pcm_buffer_free
        0x011045ac:    b510        ..      PUSH     {r4,lr}
        0x011045ae:    2800        .(      CMP      r0,#0
        0x011045b0:    d001        ..      BEQ      0x11045b6 ; pcm_buffer_free + 10
        0x011045b2:    f7fcff6b    ..k.    BL       $Ven$TT$L$$net_buf_unref ; 0x110148c
        0x011045b6:    bd10        ..      POP      {r4,pc}
    i.put_pcm_data
    put_pcm_data
        0x011045b8:    b570        p.      PUSH     {r4-r6,lr}
        0x011045ba:    480b        .H      LDR      r0,[pc,#44] ; [0x11045e8] = 0x200021b8
        0x011045bc:    6804        .h      LDR      r4,[r0,#0]
        0x011045be:    2c00        .,      CMP      r4,#0
        0x011045c0:    d010        ..      BEQ      0x11045e4 ; put_pcm_data + 44
        0x011045c2:    6a20         j      LDR      r0,[r4,#0x20]
        0x011045c4:    2800        .(      CMP      r0,#0
        0x011045c6:    d00d        ..      BEQ      0x11045e4 ; put_pcm_data + 44
        0x011045c8:    69e1        .i      LDR      r1,[r4,#0x1c]
        0x011045ca:    6920         i      LDR      r0,[r4,#0x10]
        0x011045cc:    0fca        ..      LSRS     r2,r1,#31
        0x011045ce:    1855        U.      ADDS     r5,r2,r1
        0x011045d0:    106a        j.      ASRS     r2,r5,#1
        0x011045d2:    1880        ..      ADDS     r0,r0,r2
        0x011045d4:    f7fcfee8    ....    BL       $Ven$TT$L$$__aeabi_idivmod ; 0x11013a8
        0x011045d8:    69a0        .i      LDR      r0,[r4,#0x18]
        0x011045da:    1808        ..      ADDS     r0,r1,r0
        0x011045dc:    03e9        ..      LSLS     r1,r5,#15
        0x011045de:    0c09        ..      LSRS     r1,r1,#16
        0x011045e0:    f000fd10    ....    BL       send_pcm_to_i2s ; 0x1105004
        0x011045e4:    bd70        p.      POP      {r4-r6,pc}
    $d
        0x011045e6:    0000        ..      DCW    0
        0x011045e8:    200021b8    .!.     DCD    536879544
    $t
    i.pwm_acts_clk_enable_new
    pwm_acts_clk_enable_new
        0x011045ec:    b5f7        ..      PUSH     {r0-r2,r4-r7,lr}
        0x011045ee:    b082        ..      SUB      sp,sp,#8
        0x011045f0:    460c        .F      MOV      r4,r1
        0x011045f2:    4607        .F      MOV      r7,r0
        0x011045f4:    2904        .)      CMP      r1,#4
        0x011045f6:    d100        ..      BNE      0x11045fa ; pwm_acts_clk_enable_new + 14
        0x011045f8:    2403        .$      MOVS     r4,#3
        0x011045fa:    7b3e        >{      LDRB     r6,[r7,#0xc]
        0x011045fc:    1930        0.      ADDS     r0,r6,r4
        0x011045fe:    9000        ..      STR      r0,[sp,#0]
        0x01104600:    f7fcfc2a    ..*.    BL       _arch_irq_lock_s ; 0x1100e58
        0x01104604:    4605        .F      MOV      r5,r0
        0x01104606:    9804        ..      LDR      r0,[sp,#0x10]
        0x01104608:    2800        .(      CMP      r0,#0
        0x0110460a:    d006        ..      BEQ      0x110461a ; pwm_acts_clk_enable_new + 46
        0x0110460c:    4630        0F      MOV      r0,r6
        0x0110460e:    f7fcff9d    ....    BL       $Ven$TT$L$$acts_clock_peripheral_enable ; 0x110154c
        0x01104612:    9800        ..      LDR      r0,[sp,#0]
        0x01104614:    f7fcff9a    ....    BL       $Ven$TT$L$$acts_clock_peripheral_enable ; 0x110154c
        0x01104618:    e01e        ..      B        0x1104658 ; pwm_acts_clk_enable_new + 108
        0x0110461a:    2c03        .,      CMP      r4,#3
        0x0110461c:    d109        ..      BNE      0x1104632 ; pwm_acts_clk_enable_new + 70
        0x0110461e:    6838        8h      LDR      r0,[r7,#0]
        0x01104620:    6b01        .k      LDR      r1,[r0,#0x30]
        0x01104622:    2900        .)      CMP      r1,#0
        0x01104624:    d105        ..      BNE      0x1104632 ; pwm_acts_clk_enable_new + 70
        0x01104626:    6c00        .l      LDR      r0,[r0,#0x40]
        0x01104628:    2800        .(      CMP      r0,#0
        0x0110462a:    d102        ..      BNE      0x1104632 ; pwm_acts_clk_enable_new + 70
        0x0110462c:    9800        ..      LDR      r0,[sp,#0]
        0x0110462e:    f7fcff93    ....    BL       $Ven$TT$L$$acts_clock_peripheral_disable ; 0x1101558
        0x01104632:    6839        9h      LDR      r1,[r7,#0]
        0x01104634:    6808        .h      LDR      r0,[r1,#0]
        0x01104636:    2800        .(      CMP      r0,#0
        0x01104638:    d10e        ..      BNE      0x1104658 ; pwm_acts_clk_enable_new + 108
        0x0110463a:    6908        .i      LDR      r0,[r1,#0x10]
        0x0110463c:    2800        .(      CMP      r0,#0
        0x0110463e:    d10b        ..      BNE      0x1104658 ; pwm_acts_clk_enable_new + 108
        0x01104640:    6a08        .j      LDR      r0,[r1,#0x20]
        0x01104642:    2800        .(      CMP      r0,#0
        0x01104644:    d108        ..      BNE      0x1104658 ; pwm_acts_clk_enable_new + 108
        0x01104646:    6b08        .k      LDR      r0,[r1,#0x30]
        0x01104648:    2800        .(      CMP      r0,#0
        0x0110464a:    d105        ..      BNE      0x1104658 ; pwm_acts_clk_enable_new + 108
        0x0110464c:    6c08        .l      LDR      r0,[r1,#0x40]
        0x0110464e:    2800        .(      CMP      r0,#0
        0x01104650:    d102        ..      BNE      0x1104658 ; pwm_acts_clk_enable_new + 108
        0x01104652:    4630        0F      MOV      r0,r6
        0x01104654:    f7fcff80    ....    BL       $Ven$TT$L$$acts_clock_peripheral_disable ; 0x1101558
        0x01104658:    4628        (F      MOV      r0,r5
        0x0110465a:    f7fcfc01    ....    BL       _arch_irq_unlock_s ; 0x1100e60
        0x0110465e:    2000        .       MOVS     r0,#0
        0x01104660:    b005        ..      ADD      sp,sp,#0x14
        0x01104662:    bdf0        ..      POP      {r4-r7,pc}
    i.pwm_acts_pin_set_new
    pwm_acts_pin_set_new
        0x01104664:    b5f8        ..      PUSH     {r3-r7,lr}
        0x01104666:    6800        .h      LDR      r0,[r0,#0]
        0x01104668:    460d        .F      MOV      r5,r1
        0x0110466a:    68c0        .h      LDR      r0,[r0,#0xc]
        0x0110466c:    461e        .F      MOV      r6,r3
        0x0110466e:    6881        .h      LDR      r1,[r0,#8]
        0x01104670:    4617        .F      MOV      r7,r2
        0x01104672:    42a9        .B      CMP      r1,r5
        0x01104674:    d802        ..      BHI      0x110467c ; pwm_acts_pin_set_new + 24
        0x01104676:    2004        .       MOVS     r0,#4
        0x01104678:    43c0        .C      MVNS     r0,r0
        0x0110467a:    bdf8        ..      POP      {r3-r7,pc}
        0x0110467c:    6801        .h      LDR      r1,[r0,#0]
        0x0110467e:    012a        *.      LSLS     r2,r5,#4
        0x01104680:    188c        ..      ADDS     r4,r1,r2
        0x01104682:    2e00        ..      CMP      r6,#0
        0x01104684:    d00c        ..      BEQ      0x11046a0 ; pwm_acts_pin_set_new + 60
        0x01104686:    2201        ."      MOVS     r2,#1
        0x01104688:    4629        )F      MOV      r1,r5
        0x0110468a:    f7ffffaf    ....    BL       pwm_acts_clk_enable_new ; 0x11045ec
        0x0110468e:    60a7        .`      STR      r7,[r4,#8]
        0x01104690:    60e6        .`      STR      r6,[r4,#0xc]
        0x01104692:    4807        .H      LDR      r0,[pc,#28] ; [0x11046b0] = 0x20002270
        0x01104694:    2108        .!      MOVS     r1,#8
        0x01104696:    5d40        @]      LDRB     r0,[r0,r5]
        0x01104698:    0080        ..      LSLS     r0,r0,#2
        0x0110469a:    4308        .C      ORRS     r0,r0,r1
        0x0110469c:    6020         `      STR      r0,[r4,#0]
        0x0110469e:    e005        ..      B        0x11046ac ; pwm_acts_pin_set_new + 72
        0x011046a0:    2100        .!      MOVS     r1,#0
        0x011046a2:    6021        !`      STR      r1,[r4,#0]
        0x011046a4:    460a        .F      MOV      r2,r1
        0x011046a6:    4629        )F      MOV      r1,r5
        0x011046a8:    f7ffffa0    ....    BL       pwm_acts_clk_enable_new ; 0x11045ec
        0x011046ac:    2000        .       MOVS     r0,#0
        0x011046ae:    bdf8        ..      POP      {r3-r7,pc}
    $d
        0x011046b0:    20002270    p".     DCD    536879728
    $t
    i.pwm_acts_pol_set
    pwm_acts_pol_set
        0x011046b4:    6800        .h      LDR      r0,[r0,#0]
        0x011046b6:    68c0        .h      LDR      r0,[r0,#0xc]
        0x011046b8:    6880        .h      LDR      r0,[r0,#8]
        0x011046ba:    4288        .B      CMP      r0,r1
        0x011046bc:    d802        ..      BHI      0x11046c4 ; pwm_acts_pol_set + 16
        0x011046be:    2004        .       MOVS     r0,#4
        0x011046c0:    43c0        .C      MVNS     r0,r0
        0x011046c2:    4770        pG      BX       lr
        0x011046c4:    4801        .H      LDR      r0,[pc,#4] ; [0x11046cc] = 0x20002270
        0x011046c6:    5442        BT      STRB     r2,[r0,r1]
        0x011046c8:    2000        .       MOVS     r0,#0
        0x011046ca:    4770        pG      BX       lr
    $d
        0x011046cc:    20002270    p".     DCD    536879728
    $t
    i.pwm_pin_set_cycles
    pwm_pin_set_cycles
        0x011046d0:    b430        0.      PUSH     {r4,r5}
        0x011046d2:    6844        Dh      LDR      r4,[r0,#4]
        0x011046d4:    6824        $h      LDR      r4,[r4,#0]
        0x011046d6:    46a4        .F      MOV      r12,r4
        0x011046d8:    bc30        0.      POP      {r4,r5}
        0x011046da:    4760        `G      BX       r12
    i.read_blvl
    read_blvl
        0x011046dc:    b5ff        ..      PUSH     {r0-r7,lr}
        0x011046de:    b085        ..      SUB      sp,sp,#0x14
        0x011046e0:    460f        .F      MOV      r7,r1
        0x011046e2:    2064        d       MOVS     r0,#0x64
        0x011046e4:    4669        iF      MOV      r1,sp
        0x011046e6:    9c0e        ..      LDR      r4,[sp,#0x38]
        0x011046e8:    7308        .s      STRB     r0,[r1,#0xc]
        0x011046ea:    480a        .H      LDR      r0,[pc,#40] ; [0x1104714] = 0x20001d08
        0x011046ec:    461d        .F      MOV      r5,r3
        0x011046ee:    6841        Ah      LDR      r1,[r0,#4]
        0x011046f0:    4616        .F      MOV      r6,r2
        0x011046f2:    2900        .)      CMP      r1,#0
        0x011046f4:    d001        ..      BEQ      0x11046fa ; read_blvl + 30
        0x011046f6:    a803        ..      ADD      r0,sp,#0xc
        0x011046f8:    4788        .G      BLX      r1
        0x011046fa:    a803        ..      ADD      r0,sp,#0xc
        0x011046fc:    2101        .!      MOVS     r1,#1
        0x011046fe:    9400        ..      STR      r4,[sp,#0]
        0x01104700:    9102        ..      STR      r1,[sp,#8]
        0x01104702:    9001        ..      STR      r0,[sp,#4]
        0x01104704:    462b        +F      MOV      r3,r5
        0x01104706:    4632        2F      MOV      r2,r6
        0x01104708:    4639        9F      MOV      r1,r7
        0x0110470a:    9805        ..      LDR      r0,[sp,#0x14]
        0x0110470c:    f7fcff6c    ..l.    BL       $Ven$TT$L$$bt_gatt_attr_read ; 0x11015e8
        0x01104710:    b009        ..      ADD      sp,sp,#0x24
        0x01104712:    bdf0        ..      POP      {r4-r7,pc}
    $d
        0x01104714:    20001d08    ...     DCD    536878344
    $t
    i.read_manuf
    read_manuf
        0x01104718:    b5ff        ..      PUSH     {r0-r7,lr}
        0x0110471a:    4c0a        .L      LDR      r4,[pc,#40] ; [0x1104744] = 0x20001e3c
        0x0110471c:    b083        ..      SUB      sp,sp,#0xc
        0x0110471e:    461e        .F      MOV      r6,r3
        0x01104720:    4617        .F      MOV      r7,r2
        0x01104722:    9d0c        ..      LDR      r5,[sp,#0x30]
        0x01104724:    6860        `h      LDR      r0,[r4,#4]
        0x01104726:    f7fcfda3    ....    BL       $Ven$TT$L$$strlen ; 0x1101270
        0x0110472a:    6861        ah      LDR      r1,[r4,#4]
        0x0110472c:    b280        ..      UXTH     r0,r0
        0x0110472e:    9101        ..      STR      r1,[sp,#4]
        0x01104730:    9002        ..      STR      r0,[sp,#8]
        0x01104732:    4633        3F      MOV      r3,r6
        0x01104734:    463a        :F      MOV      r2,r7
        0x01104736:    9500        ..      STR      r5,[sp,#0]
        0x01104738:    9904        ..      LDR      r1,[sp,#0x10]
        0x0110473a:    9803        ..      LDR      r0,[sp,#0xc]
        0x0110473c:    f7fcff54    ..T.    BL       $Ven$TT$L$$bt_gatt_attr_read ; 0x11015e8
        0x01104740:    b007        ..      ADD      sp,sp,#0x1c
        0x01104742:    bdf0        ..      POP      {r4-r7,pc}
    $d
        0x01104744:    20001e3c    <..     DCD    536878652
    $t
    i.read_model
    read_model
        0x01104748:    b5ff        ..      PUSH     {r0-r7,lr}
        0x0110474a:    4c0a        .L      LDR      r4,[pc,#40] ; [0x1104774] = 0x20001e3c
        0x0110474c:    b083        ..      SUB      sp,sp,#0xc
        0x0110474e:    461e        .F      MOV      r6,r3
        0x01104750:    4617        .F      MOV      r7,r2
        0x01104752:    9d0c        ..      LDR      r5,[sp,#0x30]
        0x01104754:    6820         h      LDR      r0,[r4,#0]
        0x01104756:    f7fcfd8b    ....    BL       $Ven$TT$L$$strlen ; 0x1101270
        0x0110475a:    6821        !h      LDR      r1,[r4,#0]
        0x0110475c:    b280        ..      UXTH     r0,r0
        0x0110475e:    9101        ..      STR      r1,[sp,#4]
        0x01104760:    9002        ..      STR      r0,[sp,#8]
        0x01104762:    4633        3F      MOV      r3,r6
        0x01104764:    463a        :F      MOV      r2,r7
        0x01104766:    9500        ..      STR      r5,[sp,#0]
        0x01104768:    9904        ..      LDR      r1,[sp,#0x10]
        0x0110476a:    9803        ..      LDR      r0,[sp,#0xc]
        0x0110476c:    f7fcff3c    ..<.    BL       $Ven$TT$L$$bt_gatt_attr_read ; 0x11015e8
        0x01104770:    b007        ..      ADD      sp,sp,#0x1c
        0x01104772:    bdf0        ..      POP      {r4-r7,pc}
    $d
        0x01104774:    20001e3c    <..     DCD    536878652
    $t
    i.read_pnp
    read_pnp
        0x01104778:    b5fe        ..      PUSH     {r1-r7,lr}
        0x0110477a:    4d04        .M      LDR      r5,[pc,#16] ; [0x110478c] = 0x20001e3c
        0x0110477c:    9c08        ..      LDR      r4,[sp,#0x20]
        0x0110477e:    2607        .&      MOVS     r6,#7
        0x01104780:    68ad        .h      LDR      r5,[r5,#8]
        0x01104782:    466f        oF      MOV      r7,sp
        0x01104784:    c770        p.      STM      r7!,{r4-r6}
        0x01104786:    f7fcff2f    ../.    BL       $Ven$TT$L$$bt_gatt_attr_read ; 0x11015e8
        0x0110478a:    bdfe        ..      POP      {r1-r7,pc}
    $d
        0x0110478c:    20001e3c    <..     DCD    536878652
    $t
    i.receive_msg
    receive_msg
        0x01104790:    b570        p.      PUSH     {r4-r6,lr}
        0x01104792:    4605        .F      MOV      r5,r0
        0x01104794:    4808        .H      LDR      r0,[pc,#32] ; [0x11047b8] = 0x20001a00
        0x01104796:    f7fcfe73    ..s.    BL       $Ven$TT$L$$net_buf_get ; 0x1101480
        0x0110479a:    0004        ..      MOVS     r4,r0
        0x0110479c:    d009        ..      BEQ      0x11047b2 ; receive_msg + 34
        0x0110479e:    220c        ."      MOVS     r2,#0xc
        0x011047a0:    4628        (F      MOV      r0,r5
        0x011047a2:    68a1        .h      LDR      r1,[r4,#8]
        0x011047a4:    f7fcfb72    ..r.    BL       __aeabi_memcpy ; 0x1100e8c
        0x011047a8:    4620         F      MOV      r0,r4
        0x011047aa:    f7fcfe6f    ..o.    BL       $Ven$TT$L$$net_buf_unref ; 0x110148c
        0x011047ae:    2001        .       MOVS     r0,#1
        0x011047b0:    bd70        p.      POP      {r4-r6,pc}
        0x011047b2:    2000        .       MOVS     r0,#0
        0x011047b4:    bd70        p.      POP      {r4-r6,pc}
    $d
        0x011047b6:    0000        ..      DCW    0
        0x011047b8:    20001a00    ...     DCD    536877568
    $t
    i.report_key_event
    report_key_event
        0x011047bc:    b50e        ..      PUSH     {r1-r3,lr}
        0x011047be:    2000        .       MOVS     r0,#0
        0x011047c0:    9000        ..      STR      r0,[sp,#0]
        0x011047c2:    9001        ..      STR      r0,[sp,#4]
        0x011047c4:    9002        ..      STR      r0,[sp,#8]
        0x011047c6:    2001        .       MOVS     r0,#1
        0x011047c8:    4669        iF      MOV      r1,sp
        0x011047ca:    7048        Hp      STRB     r0,[r1,#1]
        0x011047cc:    4804        .H      LDR      r0,[pc,#16] ; [0x11047e0] = 0x20001b04
        0x011047ce:    2100        .!      MOVS     r1,#0
        0x011047d0:    6800        .h      LDR      r0,[r0,#0]
        0x011047d2:    6900        .i      LDR      r0,[r0,#0x10]
        0x011047d4:    9001        ..      STR      r0,[sp,#4]
        0x011047d6:    4668        hF      MOV      r0,sp
        0x011047d8:    f000fbdc    ....    BL       send_msg ; 0x1104f94
        0x011047dc:    bd0e        ..      POP      {r1-r3,pc}
    $d
        0x011047de:    0000        ..      DCW    0
        0x011047e0:    20001b04    ...     DCD    536877828
    $t
    i.reset_led_state
    reset_led_state
        0x011047e4:    2100        .!      MOVS     r1,#0
        0x011047e6:    6401        .d      STR      r1,[r0,#0x40]
        0x011047e8:    6441        Ad      STR      r1,[r0,#0x44]
        0x011047ea:    4770        pG      BX       lr
    i.reset_stroage
    reset_stroage
        0x011047ec:    b510        ..      PUSH     {r4,lr}
        0x011047ee:    4909        .I      LDR      r1,[pc,#36] ; [0x1104814] = 0x20001af8
        0x011047f0:    2000        .       MOVS     r0,#0
        0x011047f2:    6008        .`      STR      r0,[r1,#0]
        0x011047f4:    6888        .h      LDR      r0,[r1,#8]
        0x011047f6:    2800        .(      CMP      r0,#0
        0x011047f8:    d00a        ..      BEQ      0x1104810 ; reset_stroage + 36
        0x011047fa:    6849        Ih      LDR      r1,[r1,#4]
        0x011047fc:    6843        Ch      LDR      r3,[r0,#4]
        0x011047fe:    0309        ..      LSLS     r1,r1,#12
        0x01104800:    0b09        ..      LSRS     r1,r1,#12
        0x01104802:    2201        ."      MOVS     r2,#1
        0x01104804:    689b        .h      LDR      r3,[r3,#8]
        0x01104806:    0492        ..      LSLS     r2,r2,#18
        0x01104808:    4798        .G      BLX      r3
        0x0110480a:    a003        ..      ADR      r0,{pc}+0xe ; 0x1104818
        0x0110480c:    f7fcfc4c    ..L.    BL       $Ven$TT$L$$printk ; 0x11010a8
        0x01104810:    bd10        ..      POP      {r4,pc}
    $d
        0x01104812:    0000        ..      DCW    0
        0x01104814:    20001af8    ...     DCD    536877816
        0x01104818:    73617265    eras    DCD    1935766117
        0x0110481c:    6c662065    e fl    DCD    1818632293
        0x01104820:    20687361    ash     DCD    543716193
        0x01104824:    20726f66    for     DCD    544370534
        0x01104828:    69647561    audi    DCD    1768191329
        0x0110482c:    00000a6f    o...    DCD    2671
    $t
    i.rmc_clear_pair_info
    rmc_clear_pair_info
        0x01104830:    b51c        ..      PUSH     {r2-r4,lr}
        0x01104832:    f000fcdb    ....    BL       set_sd_data ; 0x11051ec
        0x01104836:    2000        .       MOVS     r0,#0
        0x01104838:    4c0d        .L      LDR      r4,[pc,#52] ; [0x1104870] = 0x20005ac0
        0x0110483a:    9000        ..      STR      r0,[sp,#0]
        0x0110483c:    9001        ..      STR      r0,[sp,#4]
        0x0110483e:    1d20         .      ADDS     r0,r4,#4
        0x01104840:    4669        iF      MOV      r1,sp
        0x01104842:    2207        ."      MOVS     r2,#7
        0x01104844:    f7fcfb22    ..".    BL       __aeabi_memcpy ; 0x1100e8c
        0x01104848:    2211        ."      MOVS     r2,#0x11
        0x0110484a:    a10a        ..      ADR      r1,{pc}+0x2a ; 0x1104874
        0x0110484c:    a00e        ..      ADR      r0,{pc}+0x3c ; 0x1104888
        0x0110484e:    f7fcfe65    ..e.    BL       $Ven$TT$L$$nvram_config_set_factory ; 0x110151c
        0x01104852:    a310        ..      ADR      r3,{pc}+0x42 ; 0x1104894
        0x01104854:    a20f        ..      ADR      r2,{pc}+0x40 ; 0x1104894
        0x01104856:    a110        ..      ADR      r1,{pc}+0x42 ; 0x1104898
        0x01104858:    a010        ..      ADR      r0,{pc}+0x44 ; 0x110489c
        0x0110485a:    f7fcfc25    ..%.    BL       $Ven$TT$L$$printk ; 0x11010a8
        0x0110485e:    6820         h      LDR      r0,[r4,#0]
        0x01104860:    2800        .(      CMP      r0,#0
        0x01104862:    d004        ..      BEQ      0x110486e ; rmc_clear_pair_info + 62
        0x01104864:    2113        .!      MOVS     r1,#0x13
        0x01104866:    f7fcfe7d    ..}.    BL       $Ven$TT$L$$bt_conn_disconnect ; 0x1101564
        0x0110486a:    2001        .       MOVS     r0,#1
        0x0110486c:    7360        `s      STRB     r0,[r4,#0xd]
        0x0110486e:    bd1c        ..      POP      {r2-r4,pc}
    $d
        0x01104870:    20005ac0    .Z.     DCD    536894144
        0x01104874:    303a3030    00:0    DCD    809119792
        0x01104878:    30303a30    0:00    DCD    808466992
        0x0110487c:    3a30303a    :00:    DCD    976236602
        0x01104880:    303a3030    00:0    DCD    809119792
        0x01104884:    00000030    0...    DCD    48
        0x01104888:    545f5442    BT_T    DCD    1415533634
        0x0110488c:    415f5447    GT_A    DCD    1096766535
        0x01104890:    00524444    DDR.    DCD    5391428
        0x01104894:    00000000    ....    DCD    0
        0x01104898:    00656c62    ble.    DCD    6646882
        0x0110489c:    5d73255b    [%s]    DCD    1567827291
        0x011048a0:    72732520     %sr    DCD    1920148768
        0x011048a4:    735f636d    mc_s    DCD    1935631213
        0x011048a8:    63615f6d    m_ac    DCD    1667325805
        0x011048ac:    69645f74    t_di    DCD    1768185716
        0x011048b0:    6e6f6373    scon    DCD    1852793715
        0x011048b4:    7463656e    nect    DCD    1952671086
        0x011048b8:    6e6f635f    _con    DCD    1852793695
        0x011048bc:    0a73256e    n%s.    DCD    175318382
        0x011048c0:    00000000    ....    DCD    0
    $t
    i.rmc_sm_act_connected
    rmc_sm_act_connected
        0x011048c4:    b510        ..      PUSH     {r4,lr}
        0x011048c6:    a308        ..      ADR      r3,{pc}+0x22 ; 0x11048e8
        0x011048c8:    a207        ..      ADR      r2,{pc}+0x20 ; 0x11048e8
        0x011048ca:    a108        ..      ADR      r1,{pc}+0x22 ; 0x11048ec
        0x011048cc:    a008        ..      ADR      r0,{pc}+0x24 ; 0x11048f0
        0x011048ce:    f7fcfbeb    ....    BL       $Ven$TT$L$$printk ; 0x11010a8
        0x011048d2:    480f        .H      LDR      r0,[pc,#60] ; [0x1104910] = 0x20005ac0
        0x011048d4:    7b01        .{      LDRB     r1,[r0,#0xc]
        0x011048d6:    2901        .)      CMP      r1,#1
        0x011048d8:    d104        ..      BNE      0x11048e4 ; rmc_sm_act_connected + 32
        0x011048da:    2100        .!      MOVS     r1,#0
        0x011048dc:    7301        .s      STRB     r1,[r0,#0xc]
        0x011048de:    2001        .       MOVS     r0,#1
        0x011048e0:    f7fffe3e    ..>.    BL       pair_led_indication ; 0x1104560
        0x011048e4:    bd10        ..      POP      {r4,pc}
    $d
        0x011048e6:    0000        ..      DCW    0
        0x011048e8:    00000000    ....    DCD    0
        0x011048ec:    00656c62    ble.    DCD    6646882
        0x011048f0:    5d73255b    [%s]    DCD    1567827291
        0x011048f4:    72732520     %sr    DCD    1920148768
        0x011048f8:    735f636d    mc_s    DCD    1935631213
        0x011048fc:    63615f6d    m_ac    DCD    1667325805
        0x01104900:    6f635f74    t_co    DCD    1868783476
        0x01104904:    63656e6e    nnec    DCD    1667591790
        0x01104908:    25646574    ted%    DCD    627336564
        0x0110490c:    00000a73    s...    DCD    2675
        0x01104910:    20005ac0    .Z.     DCD    536894144
    $t
    i.rmc_sm_act_disconnect_conn
    rmc_sm_act_disconnect_conn
        0x01104914:    b510        ..      PUSH     {r4,lr}
        0x01104916:    a308        ..      ADR      r3,{pc}+0x22 ; 0x1104938
        0x01104918:    a207        ..      ADR      r2,{pc}+0x20 ; 0x1104938
        0x0110491a:    a108        ..      ADR      r1,{pc}+0x22 ; 0x110493c
        0x0110491c:    a008        ..      ADR      r0,{pc}+0x24 ; 0x1104940
        0x0110491e:    f7fcfbc3    ....    BL       $Ven$TT$L$$printk ; 0x11010a8
        0x01104922:    4c11        .L      LDR      r4,[pc,#68] ; [0x1104968] = 0x20005ac0
        0x01104924:    6820         h      LDR      r0,[r4,#0]
        0x01104926:    2800        .(      CMP      r0,#0
        0x01104928:    d004        ..      BEQ      0x1104934 ; rmc_sm_act_disconnect_conn + 32
        0x0110492a:    2113        .!      MOVS     r1,#0x13
        0x0110492c:    f7fcfe1a    ....    BL       $Ven$TT$L$$bt_conn_disconnect ; 0x1101564
        0x01104930:    2001        .       MOVS     r0,#1
        0x01104932:    7360        `s      STRB     r0,[r4,#0xd]
        0x01104934:    bd10        ..      POP      {r4,pc}
    $d
        0x01104936:    0000        ..      DCW    0
        0x01104938:    00000000    ....    DCD    0
        0x0110493c:    00656c62    ble.    DCD    6646882
        0x01104940:    5d73255b    [%s]    DCD    1567827291
        0x01104944:    72732520     %sr    DCD    1920148768
        0x01104948:    735f636d    mc_s    DCD    1935631213
        0x0110494c:    63615f6d    m_ac    DCD    1667325805
        0x01104950:    69645f74    t_di    DCD    1768185716
        0x01104954:    6e6f6373    scon    DCD    1852793715
        0x01104958:    7463656e    nect    DCD    1952671086
        0x0110495c:    6e6f635f    _con    DCD    1852793695
        0x01104960:    0a73256e    n%s.    DCD    175318382
        0x01104964:    00000000    ....    DCD    0
        0x01104968:    20005ac0    .Z.     DCD    536894144
    $t
    i.rmc_sm_act_none
    rmc_sm_act_none
        0x0110496c:    4770        pG      BX       lr
    i.rmc_sm_act_send_key
    rmc_sm_act_send_key
        0x0110496e:    b510        ..      PUSH     {r4,lr}
        0x01104970:    f000fb94    ....    BL       send_pending_keycode ; 0x110509c
        0x01104974:    bd10        ..      POP      {r4,pc}
        0x01104976:    0000        ..      MOVS     r0,r0
    i.rmc_sm_act_start_adv
    rmc_sm_act_start_adv
        0x01104978:    b57f        ..      PUSH     {r0-r6,lr}
        0x0110497a:    4c17        .L      LDR      r4,[pc,#92] ; [0x11049d8] = 0x20005ac0
        0x0110497c:    6820         h      LDR      r0,[r4,#0]
        0x0110497e:    2800        .(      CMP      r0,#0
        0x01104980:    d117        ..      BNE      0x11049b2 ; rmc_sm_act_start_adv + 58
        0x01104982:    f7fcfe37    ..7.    BL       $Ven$TT$L$$bt_le_adv_stop ; 0x11015f4
        0x01104986:    4815        .H      LDR      r0,[pc,#84] ; [0x11049dc] = 0x1105f1c
        0x01104988:    2501        .%      MOVS     r5,#1
        0x0110498a:    c807        ..      LDM      r0,{r0-r2}
        0x0110498c:    ae01        ..      ADD      r6,sp,#4
        0x0110498e:    9500        ..      STR      r5,[sp,#0]
        0x01104990:    c607        ..      STM      r6!,{r0-r2}
        0x01104992:    4b13        .K      LDR      r3,[pc,#76] ; [0x11049e0] = 0x20001a4c
        0x01104994:    2204        ."      MOVS     r2,#4
        0x01104996:    4619        .F      MOV      r1,r3
        0x01104998:    3108        .1      ADDS     r1,r1,#8
        0x0110499a:    a801        ..      ADD      r0,sp,#4
        0x0110499c:    f7fcfe30    ..0.    BL       $Ven$TT$L$$bt_le_adv_start ; 0x1101600
        0x011049a0:    0003        ..      MOVS     r3,r0
        0x011049a2:    d007        ..      BEQ      0x11049b4 ; rmc_sm_act_start_adv + 60
        0x011049a4:    a00f        ..      ADR      r0,{pc}+0x40 ; 0x11049e4
        0x011049a6:    9000        ..      STR      r0,[sp,#0]
        0x011049a8:    a20e        ..      ADR      r2,{pc}+0x3c ; 0x11049e4
        0x011049aa:    a10f        ..      ADR      r1,{pc}+0x3e ; 0x11049e8
        0x011049ac:    a00f        ..      ADR      r0,{pc}+0x40 ; 0x11049ec
        0x011049ae:    f7fcfb7b    ..{.    BL       $Ven$TT$L$$printk ; 0x11010a8
        0x011049b2:    bd7f        ..      POP      {r0-r6,pc}
        0x011049b4:    2000        .       MOVS     r0,#0
        0x011049b6:    f7fffdd3    ....    BL       pair_led_indication ; 0x1104560
        0x011049ba:    7325        %s      STRB     r5,[r4,#0xc]
        0x011049bc:    a309        ..      ADR      r3,{pc}+0x28 ; 0x11049e4
        0x011049be:    a209        ..      ADR      r2,{pc}+0x26 ; 0x11049e4
        0x011049c0:    a109        ..      ADR      r1,{pc}+0x28 ; 0x11049e8
        0x011049c2:    a018        ..      ADR      r0,{pc}+0x62 ; 0x1104a24
        0x011049c4:    f7fcfb70    ..p.    BL       $Ven$TT$L$$printk ; 0x11010a8
        0x011049c8:    2001        .       MOVS     r0,#1
        0x011049ca:    f000f967    ..g.    BL       rmc_timer_stop ; 0x1104c9c
        0x011049ce:    2000        .       MOVS     r0,#0
        0x011049d0:    f000f952    ..R.    BL       rmc_timer_start ; 0x1104c78
        0x011049d4:    bd7f        ..      POP      {r0-r6,pc}
    $d
        0x011049d6:    0000        ..      DCW    0
        0x011049d8:    20005ac0    .Z.     DCD    536894144
        0x011049dc:    01105f1c    ._..    DCD    17850140
        0x011049e0:    20001a4c    L..     DCD    536877644
        0x011049e4:    00000000    ....    DCD    0
        0x011049e8:    00656c62    ble.    DCD    6646882
        0x011049ec:    5d73255b    [%s]    DCD    1567827291
        0x011049f0:    55732520     %sU    DCD    1433609504
        0x011049f4:    7269646e    ndir    DCD    1919509614
        0x011049f8:    20746365    ect     DCD    544498533
        0x011049fc:    65766441    Adve    DCD    1702257729
        0x01104a00:    73697472    rtis    DCD    1936290930
        0x01104a04:    20676e69    ing     DCD    543649385
        0x01104a08:    6c696166    fail    DCD    1818845542
        0x01104a0c:    74206465    ed t    DCD    1948279909
        0x01104a10:    7473206f    o st    DCD    1953701999
        0x01104a14:    20747261    art     DCD    544502369
        0x01104a18:    72726528    (err    DCD    1920099624
        0x01104a1c:    29642520     %d)    DCD    694428960
        0x01104a20:    000a7325    %s..    DCD    684837
        0x01104a24:    5d73255b    [%s]    DCD    1567827291
        0x01104a28:    55732520     %sU    DCD    1433609504
        0x01104a2c:    7269646e    ndir    DCD    1919509614
        0x01104a30:    20746365    ect     DCD    544498533
        0x01104a34:    65766441    Adve    DCD    1702257729
        0x01104a38:    73697472    rtis    DCD    1936290930
        0x01104a3c:    20676e69    ing     DCD    543649385
        0x01104a40:    63637573    succ    DCD    1667462515
        0x01104a44:    66737365    essf    DCD    1718842213
        0x01104a48:    796c6c75    ully    DCD    2037148789
        0x01104a4c:    61747320     sta    DCD    1635021600
        0x01104a50:    64657472    rted    DCD    1684370546
        0x01104a54:    000a7325    %s..    DCD    684837
    $t
    i.rmc_sm_act_start_direct_adv
    rmc_sm_act_start_direct_adv
        0x01104a58:    b57f        ..      PUSH     {r0-r6,lr}
        0x01104a5a:    f7fefea3    ....    BL       is_paired ; 0x11037a4
        0x01104a5e:    2500        .%      MOVS     r5,#0
        0x01104a60:    4c1c        .L      LDR      r4,[pc,#112] ; [0x1104ad4] = 0x20005ac0
        0x01104a62:    2800        .(      CMP      r0,#0
        0x01104a64:    d028        (.      BEQ      0x1104ab8 ; rmc_sm_act_start_direct_adv + 96
        0x01104a66:    7ae0        .z      LDRB     r0,[r4,#0xb]
        0x01104a68:    2803        .(      CMP      r0,#3
        0x01104a6a:    d225        %.      BCS      0x1104ab8 ; rmc_sm_act_start_direct_adv + 96
        0x01104a6c:    f7fcfdc2    ....    BL       $Ven$TT$L$$bt_le_adv_stop ; 0x11015f4
        0x01104a70:    4819        .H      LDR      r0,[pc,#100] ; [0x1104ad8] = 0x1105f28
        0x01104a72:    ab01        ..      ADD      r3,sp,#4
        0x01104a74:    c807        ..      LDM      r0,{r0-r2}
        0x01104a76:    c307        ..      STM      r3!,{r0-r2}
        0x01104a78:    4b18        .K      LDR      r3,[pc,#96] ; [0x1104adc] = 0x20001a4c
        0x01104a7a:    2001        .       MOVS     r0,#1
        0x01104a7c:    4619        .F      MOV      r1,r3
        0x01104a7e:    9000        ..      STR      r0,[sp,#0]
        0x01104a80:    2204        ."      MOVS     r2,#4
        0x01104a82:    3108        .1      ADDS     r1,r1,#8
        0x01104a84:    a801        ..      ADD      r0,sp,#4
        0x01104a86:    f7fcfdbb    ....    BL       $Ven$TT$L$$bt_le_adv_start ; 0x1101600
        0x01104a8a:    0003        ..      MOVS     r3,r0
        0x01104a8c:    d007        ..      BEQ      0x1104a9e ; rmc_sm_act_start_direct_adv + 70
        0x01104a8e:    a014        ..      ADR      r0,{pc}+0x52 ; 0x1104ae0
        0x01104a90:    9000        ..      STR      r0,[sp,#0]
        0x01104a92:    a213        ..      ADR      r2,{pc}+0x4e ; 0x1104ae0
        0x01104a94:    a113        ..      ADR      r1,{pc}+0x50 ; 0x1104ae4
        0x01104a96:    a014        ..      ADR      r0,{pc}+0x52 ; 0x1104ae8
        0x01104a98:    f7fcfb06    ....    BL       $Ven$TT$L$$printk ; 0x11010a8
        0x01104a9c:    bd7f        ..      POP      {r0-r6,pc}
        0x01104a9e:    7ae0        .z      LDRB     r0,[r4,#0xb]
        0x01104aa0:    a30f        ..      ADR      r3,{pc}+0x40 ; 0x1104ae0
        0x01104aa2:    1c40        @.      ADDS     r0,r0,#1
        0x01104aa4:    72e0        .r      STRB     r0,[r4,#0xb]
        0x01104aa6:    a20e        ..      ADR      r2,{pc}+0x3a ; 0x1104ae0
        0x01104aa8:    a10e        ..      ADR      r1,{pc}+0x3c ; 0x1104ae4
        0x01104aaa:    a01e        ..      ADR      r0,{pc}+0x7a ; 0x1104b24
        0x01104aac:    f7fcfafc    ....    BL       $Ven$TT$L$$printk ; 0x11010a8
        0x01104ab0:    2001        .       MOVS     r0,#1
        0x01104ab2:    f000f8e1    ....    BL       rmc_timer_start ; 0x1104c78
        0x01104ab6:    bd7f        ..      POP      {r0-r6,pc}
        0x01104ab8:    a309        ..      ADR      r3,{pc}+0x28 ; 0x1104ae0
        0x01104aba:    a209        ..      ADR      r2,{pc}+0x26 ; 0x1104ae0
        0x01104abc:    a109        ..      ADR      r1,{pc}+0x28 ; 0x1104ae4
        0x01104abe:    a027        '.      ADR      r0,{pc}+0x9e ; 0x1104b5c
        0x01104ac0:    f7fcfaf2    ....    BL       $Ven$TT$L$$printk ; 0x11010a8
        0x01104ac4:    f7fcfd96    ....    BL       $Ven$TT$L$$bt_le_adv_stop ; 0x11015f4
        0x01104ac8:    72e5        .r      STRB     r5,[r4,#0xb]
        0x01104aca:    2009        .       MOVS     r0,#9
        0x01104acc:    f000f886    ....    BL       rmc_sm_execute ; 0x1104bdc
        0x01104ad0:    bd7f        ..      POP      {r0-r6,pc}
    $d
        0x01104ad2:    0000        ..      DCW    0
        0x01104ad4:    20005ac0    .Z.     DCD    536894144
        0x01104ad8:    01105f28    (_..    DCD    17850152
        0x01104adc:    20001a4c    L..     DCD    536877644
        0x01104ae0:    00000000    ....    DCD    0
        0x01104ae4:    00656c62    ble.    DCD    6646882
        0x01104ae8:    5d73255b    [%s]    DCD    1567827291
        0x01104aec:    72732520     %sr    DCD    1920148768
        0x01104af0:    6e6f6365    econ    DCD    1852793701
        0x01104af4:    7463656e    nect    DCD    1952671086
        0x01104af8:    20676e69    ing     DCD    543649385
        0x01104afc:    65766441    Adve    DCD    1702257729
        0x01104b00:    73697472    rtis    DCD    1936290930
        0x01104b04:    20676e69    ing     DCD    543649385
        0x01104b08:    6c696166    fail    DCD    1818845542
        0x01104b0c:    74206465    ed t    DCD    1948279909
        0x01104b10:    7473206f    o st    DCD    1953701999
        0x01104b14:    20747261    art     DCD    544502369
        0x01104b18:    72726528    (err    DCD    1920099624
        0x01104b1c:    29642520     %d)    DCD    694428960
        0x01104b20:    000a7325    %s..    DCD    684837
        0x01104b24:    5d73255b    [%s]    DCD    1567827291
        0x01104b28:    72732520     %sr    DCD    1920148768
        0x01104b2c:    6e6f6365    econ    DCD    1852793701
        0x01104b30:    7463656e    nect    DCD    1952671086
        0x01104b34:    20676e69    ing     DCD    543649385
        0x01104b38:    65766441    Adve    DCD    1702257729
        0x01104b3c:    73697472    rtis    DCD    1936290930
        0x01104b40:    20676e69    ing     DCD    543649385
        0x01104b44:    63637573    succ    DCD    1667462515
        0x01104b48:    66737365    essf    DCD    1718842213
        0x01104b4c:    796c6c75    ully    DCD    2037148789
        0x01104b50:    61747320     sta    DCD    1635021600
        0x01104b54:    64657472    rted    DCD    1684370546
        0x01104b58:    000a7325    %s..    DCD    684837
        0x01104b5c:    5d73255b    [%s]    DCD    1567827291
        0x01104b60:    72732520     %sr    DCD    1920148768
        0x01104b64:    735f636d    mc_s    DCD    1935631213
        0x01104b68:    63615f6d    m_ac    DCD    1667325805
        0x01104b6c:    74735f74    t_st    DCD    1953718132
        0x01104b70:    5f747261    art_    DCD    1601466977
        0x01104b74:    65726964    dire    DCD    1701996900
        0x01104b78:    615f7463    ct_a    DCD    1633645667
        0x01104b7c:    73207664    dv s    DCD    1931507300
        0x01104b80:    25706f74    top%    DCD    628125556
        0x01104b84:    00000a73    s...    DCD    2675
    $t
    i.rmc_sm_act_stop_adv
    rmc_sm_act_stop_adv
        0x01104b88:    b510        ..      PUSH     {r4,lr}
        0x01104b8a:    a309        ..      ADR      r3,{pc}+0x26 ; 0x1104bb0
        0x01104b8c:    a208        ..      ADR      r2,{pc}+0x24 ; 0x1104bb0
        0x01104b8e:    a109        ..      ADR      r1,{pc}+0x26 ; 0x1104bb4
        0x01104b90:    a009        ..      ADR      r0,{pc}+0x28 ; 0x1104bb8
        0x01104b92:    f7fcfa89    ....    BL       $Ven$TT$L$$printk ; 0x11010a8
        0x01104b96:    f7fcfd2d    ..-.    BL       $Ven$TT$L$$bt_le_adv_stop ; 0x11015f4
        0x01104b9a:    480f        .H      LDR      r0,[pc,#60] ; [0x1104bd8] = 0x20005ac0
        0x01104b9c:    7b01        .{      LDRB     r1,[r0,#0xc]
        0x01104b9e:    2901        .)      CMP      r1,#1
        0x01104ba0:    d104        ..      BNE      0x1104bac ; rmc_sm_act_stop_adv + 36
        0x01104ba2:    2100        .!      MOVS     r1,#0
        0x01104ba4:    7301        .s      STRB     r1,[r0,#0xc]
        0x01104ba6:    2002        .       MOVS     r0,#2
        0x01104ba8:    f7fffcda    ....    BL       pair_led_indication ; 0x1104560
        0x01104bac:    bd10        ..      POP      {r4,pc}
    $d
        0x01104bae:    0000        ..      DCW    0
        0x01104bb0:    00000000    ....    DCD    0
        0x01104bb4:    00656c62    ble.    DCD    6646882
        0x01104bb8:    5d73255b    [%s]    DCD    1567827291
        0x01104bbc:    72732520     %sr    DCD    1920148768
        0x01104bc0:    735f636d    mc_s    DCD    1935631213
        0x01104bc4:    63615f6d    m_ac    DCD    1667325805
        0x01104bc8:    74735f74    t_st    DCD    1953718132
        0x01104bcc:    615f706f    op_a    DCD    1633644655
        0x01104bd0:    73257664    dv%s    DCD    1931834980
        0x01104bd4:    0000000a    ....    DCD    10
        0x01104bd8:    20005ac0    .Z.     DCD    536894144
    $t
    i.rmc_sm_execute
    rmc_sm_execute
        0x01104bdc:    b57c        |.      PUSH     {r2-r6,lr}
        0x01104bde:    4605        .F      MOV      r5,r0
        0x01104be0:    4c12        .L      LDR      r4,[pc,#72] ; [0x1104c2c] = 0x20001aa0
        0x01104be2:    a111        ..      ADR      r1,{pc}+0x46 ; 0x1104c28
        0x01104be4:    7820         x      LDRB     r0,[r4,#0]
        0x01104be6:    9101        ..      STR      r1,[sp,#4]
        0x01104be8:    9000        ..      STR      r0,[sp,#0]
        0x01104bea:    462b        +F      MOV      r3,r5
        0x01104bec:    a20e        ..      ADR      r2,{pc}+0x3c ; 0x1104c28
        0x01104bee:    a110        ..      ADR      r1,{pc}+0x42 ; 0x1104c30
        0x01104bf0:    a010        ..      ADR      r0,{pc}+0x44 ; 0x1104c34
        0x01104bf2:    f7fcfa59    ..Y.    BL       $Ven$TT$L$$printk ; 0x11010a8
        0x01104bf6:    7821        !x      LDRB     r1,[r4,#0]
        0x01104bf8:    221a        ."      MOVS     r2,#0x1a
        0x01104bfa:    4351        QC      MULS     r1,r2,r1
        0x01104bfc:    4a18        .J      LDR      r2,[pc,#96] ; [0x1104c60] = 0x1105f78
        0x01104bfe:    4628        (F      MOV      r0,r5
        0x01104c00:    1889        ..      ADDS     r1,r1,r2
        0x01104c02:    006a        j.      LSLS     r2,r5,#1
        0x01104c04:    188b        ..      ADDS     r3,r1,r2
        0x01104c06:    5c89        .\      LDRB     r1,[r1,r2]
        0x01104c08:    785b        [x      LDRB     r3,[r3,#1]
        0x01104c0a:    4a15        .J      LDR      r2,[pc,#84] ; [0x1104c60] = 0x1105f78
        0x01104c0c:    7021        !p      STRB     r1,[r4,#0]
        0x01104c0e:    0099        ..      LSLS     r1,r3,#2
        0x01104c10:    3250        P2      ADDS     r2,r2,#0x50
        0x01104c12:    5852        RX      LDR      r2,[r2,r1]
        0x01104c14:    2a00        .*      CMP      r2,#0
        0x01104c16:    d002        ..      BEQ      0x1104c1e ; rmc_sm_execute + 66
        0x01104c18:    2100        .!      MOVS     r1,#0
        0x01104c1a:    4790        .G      BLX      r2
        0x01104c1c:    bd7c        |.      POP      {r2-r6,pc}
        0x01104c1e:    2100        .!      MOVS     r1,#0
        0x01104c20:    f7fffea4    ....    BL       rmc_sm_act_none ; 0x110496c
        0x01104c24:    bd7c        |.      POP      {r2-r6,pc}
    $d
        0x01104c26:    0000        ..      DCW    0
        0x01104c28:    00000000    ....    DCD    0
        0x01104c2c:    20001aa0    ...     DCD    536877728
        0x01104c30:    00006d73    sm..    DCD    28019
        0x01104c34:    5d73255b    [%s]    DCD    1567827291
        0x01104c38:    72732520     %sr    DCD    1920148768
        0x01104c3c:    735f636d    mc_s    DCD    1935631213
        0x01104c40:    78655f6d    m_ex    DCD    2019909485
        0x01104c44:    74756365    ecut    DCD    1953850213
        0x01104c48:    76652065    e ev    DCD    1986338917
        0x01104c4c:    3d746e65    ent=    DCD    1031040613
        0x01104c50:    73206425    %d s    DCD    1931502629
        0x01104c54:    65746174    tate    DCD    1702125940
        0x01104c58:    2564253d    =%d%    DCD    627320125
        0x01104c5c:    00000a73    s...    DCD    2675
        0x01104c60:    01105f78    x_..    DCD    17850232
    $t
    i.rmc_sm_state_is_activing
    rmc_sm_state_is_activing
        0x01104c64:    4803        .H      LDR      r0,[pc,#12] ; [0x1104c74] = 0x20001aa0
        0x01104c66:    7800        .x      LDRB     r0,[r0,#0]
        0x01104c68:    2802        .(      CMP      r0,#2
        0x01104c6a:    d001        ..      BEQ      0x1104c70 ; rmc_sm_state_is_activing + 12
        0x01104c6c:    2001        .       MOVS     r0,#1
        0x01104c6e:    4770        pG      BX       lr
        0x01104c70:    2000        .       MOVS     r0,#0
        0x01104c72:    4770        pG      BX       lr
    $d
        0x01104c74:    20001aa0    ...     DCD    536877728
    $t
    i.rmc_timer_start
    rmc_timer_start
        0x01104c78:    212c        ,!      MOVS     r1,#0x2c
        0x01104c7a:    4a05        .J      LDR      r2,[pc,#20] ; [0x1104c90] = 0x20005ad0
        0x01104c7c:    4341        AC      MULS     r1,r0,r1
        0x01104c7e:    1889        ..      ADDS     r1,r1,r2
        0x01104c80:    b510        ..      PUSH     {r4,lr}
        0x01104c82:    4a04        .J      LDR      r2,[pc,#16] ; [0x1104c94] = 0x20001aa4
        0x01104c84:    0080        ..      LSLS     r0,r0,#2
        0x01104c86:    5812        .X      LDR      r2,[r2,r0]
        0x01104c88:    4803        .H      LDR      r0,[pc,#12] ; [0x1104c98] = 0x200009cc
        0x01104c8a:    f7fcfbed    ....    BL       $Ven$TT$L$$k_delayed_work_submit_to_queue ; 0x1101468
        0x01104c8e:    bd10        ..      POP      {r4,pc}
    $d
        0x01104c90:    20005ad0    .Z.     DCD    536894160
        0x01104c94:    20001aa4    ...     DCD    536877732
        0x01104c98:    200009cc    ...     DCD    536873420
    $t
    i.rmc_timer_stop
    rmc_timer_stop
        0x01104c9c:    212c        ,!      MOVS     r1,#0x2c
        0x01104c9e:    4348        HC      MULS     r0,r1,r0
        0x01104ca0:    4902        .I      LDR      r1,[pc,#8] ; [0x1104cac] = 0x20005ad0
        0x01104ca2:    b510        ..      PUSH     {r4,lr}
        0x01104ca4:    1840        @.      ADDS     r0,r0,r1
        0x01104ca6:    f7fcfcb1    ....    BL       $Ven$TT$L$$k_delayed_work_cancel ; 0x110160c
        0x01104caa:    bd10        ..      POP      {r4,pc}
    $d
        0x01104cac:    20005ad0    .Z.     DCD    536894160
    $t
    i.rx_stack_analyze
    rx_stack_analyze
        0x01104cb0:    b5fe        ..      PUSH     {r1-r7,lr}
        0x01104cb2:    2505        .%      MOVS     r5,#5
        0x01104cb4:    022d        -.      LSLS     r5,r5,#8
        0x01104cb6:    4910        .I      LDR      r1,[pc,#64] ; [0x1104cf8] = 0x200043b8
        0x01104cb8:    2400        .$      MOVS     r4,#0
        0x01104cba:    a60c        ..      ADR      r6,{pc}+0x32 ; 0x1104cec
        0x01104cbc:    4620         F      MOV      r0,r4
        0x01104cbe:    5c0a        .\      LDRB     r2,[r1,r0]
        0x01104cc0:    2aaa        .*      CMP      r2,#0xaa
        0x01104cc2:    d103        ..      BNE      0x1104ccc ; rx_stack_analyze + 28
        0x01104cc4:    1c40        @.      ADDS     r0,r0,#1
        0x01104cc6:    1c64        d.      ADDS     r4,r4,#1
        0x01104cc8:    42a8        .B      CMP      r0,r5
        0x01104cca:    d3f8        ..      BCC      0x1104cbe ; rx_stack_analyze + 14
        0x01104ccc:    1b2f        /.      SUBS     r7,r5,r4
        0x01104cce:    2064        d       MOVS     r0,#0x64
        0x01104cd0:    4378        xC      MULS     r0,r7,r0
        0x01104cd2:    4629        )F      MOV      r1,r5
        0x01104cd4:    f7fcfb20    .. .    BL       $Ven$TT$L$$__aeabi_uidivmod ; 0x1101318
        0x01104cd8:    9002        ..      STR      r0,[sp,#8]
        0x01104cda:    4623        #F      MOV      r3,r4
        0x01104cdc:    462a        *F      MOV      r2,r5
        0x01104cde:    4631        1F      MOV      r1,r6
        0x01104ce0:    9700        ..      STR      r7,[sp,#0]
        0x01104ce2:    9501        ..      STR      r5,[sp,#4]
        0x01104ce4:    a005        ..      ADR      r0,{pc}+0x18 ; 0x1104cfc
        0x01104ce6:    f7fcf9df    ....    BL       $Ven$TT$L$$printk ; 0x11010a8
        0x01104cea:    bdfe        ..      POP      {r1-r7,pc}
    $d
        0x01104cec:    73207872    rx s    DCD    1931507826
        0x01104cf0:    6b636174    tack    DCD    1801675124
        0x01104cf4:    00000000    ....    DCD    0
        0x01104cf8:    200043b8    .C.     DCD    536888248
        0x01104cfc:    28207325    %s (    DCD    673215269
        0x01104d00:    6c616572    real    DCD    1818322290
        0x01104d04:    7a697320     siz    DCD    2053731104
        0x01104d08:    75252065    e %u    DCD    1965367397
        0x01104d0c:    75093a29    ):.u    DCD    1963538985
        0x01104d10:    6573756e    nuse    DCD    1702065518
        0x01104d14:    75252064    d %u    DCD    1965367396
        0x01104d18:    61737509    .usa    DCD    1634956553
        0x01104d1c:    25206567    ge %    DCD    622880103
        0x01104d20:    202f2075    u /     DCD    539959413
        0x01104d24:    28207525    %u (    DCD    673215781
        0x01104d28:    25207525    %u %    DCD    622884133
        0x01104d2c:    000a2925    %)..    DCD    665893
    $t
    i.sc_ccc_cfg_changed
    sc_ccc_cfg_changed
        0x01104d30:    b510        ..      PUSH     {r4,lr}
        0x01104d32:    a002        ..      ADR      r0,{pc}+0xa ; 0x1104d3c
        0x01104d34:    f7fcf9b8    ....    BL       $Ven$TT$L$$printk ; 0x11010a8
        0x01104d38:    bd10        ..      POP      {r4,pc}
    $d
        0x01104d3a:    0000        ..      DCW    0
        0x01104d3c:    5f636363    ccc_    DCD    1600349027
        0x01104d40:    5f676663    cfg_    DCD    1600611939
        0x01104d44:    756c6176    valu    DCD    1970037110
        0x01104d48:    78302065    e 0x    DCD    2016419941
        0x01104d4c:    78343025    %04x    DCD    2016686117
        0x01104d50:    0000000a    ....    DCD    10
    $t
    i.security_changed
    security_changed
        0x01104d54:    b510        ..      PUSH     {r4,lr}
        0x01104d56:    b08c        ..      SUB      sp,sp,#0x30
        0x01104d58:    2200        ."      MOVS     r2,#0
        0x01104d5a:    460c        .F      MOV      r4,r1
        0x01104d5c:    9202        ..      STR      r2,[sp,#8]
        0x01104d5e:    9203        ..      STR      r2,[sp,#0xc]
        0x01104d60:    9204        ..      STR      r2,[sp,#0x10]
        0x01104d62:    f7fcfbd5    ....    BL       $Ven$TT$L$$bt_conn_get_dst ; 0x1101510
        0x01104d66:    221b        ."      MOVS     r2,#0x1b
        0x01104d68:    a905        ..      ADD      r1,sp,#0x14
        0x01104d6a:    f7fdfe2d    ..-.    BL       bt_addr_le_to_str ; 0x11029c8
        0x01104d6e:    a00b        ..      ADR      r0,{pc}+0x2e ; 0x1104d9c
        0x01104d70:    9001        ..      STR      r0,[sp,#4]
        0x01104d72:    ab05        ..      ADD      r3,sp,#0x14
        0x01104d74:    a209        ..      ADR      r2,{pc}+0x28 ; 0x1104d9c
        0x01104d76:    a10a        ..      ADR      r1,{pc}+0x2a ; 0x1104da0
        0x01104d78:    9400        ..      STR      r4,[sp,#0]
        0x01104d7a:    a00a        ..      ADR      r0,{pc}+0x2a ; 0x1104da4
        0x01104d7c:    f7fcf994    ....    BL       $Ven$TT$L$$printk ; 0x11010a8
        0x01104d80:    4912        .I      LDR      r1,[pc,#72] ; [0x1104dcc] = 0x20005ac0
        0x01104d82:    2001        .       MOVS     r0,#1
        0x01104d84:    7388        .s      STRB     r0,[r1,#0xe]
        0x01104d86:    2003        .       MOVS     r0,#3
        0x01104d88:    4669        iF      MOV      r1,sp
        0x01104d8a:    7248        Hr      STRB     r0,[r1,#9]
        0x01104d8c:    2002        .       MOVS     r0,#2
        0x01104d8e:    9003        ..      STR      r0,[sp,#0xc]
        0x01104d90:    2164        d!      MOVS     r1,#0x64
        0x01104d92:    a802        ..      ADD      r0,sp,#8
        0x01104d94:    f000f8fe    ....    BL       send_msg ; 0x1104f94
        0x01104d98:    b00c        ..      ADD      sp,sp,#0x30
        0x01104d9a:    bd10        ..      POP      {r4,pc}
    $d
        0x01104d9c:    00000000    ....    DCD    0
        0x01104da0:    00656c62    ble.    DCD    6646882
        0x01104da4:    5d73255b    [%s]    DCD    1567827291
        0x01104da8:    53732520     %sS    DCD    1400055072
        0x01104dac:    72756365    ecur    DCD    1920295781
        0x01104db0:    20797469    ity     DCD    544830569
        0x01104db4:    6e616863    chan    DCD    1851877475
        0x01104db8:    3a646567    ged:    DCD    979658087
        0x01104dbc:    20732520     %s     DCD    544417056
        0x01104dc0:    6576656c    leve    DCD    1702258028
        0x01104dc4:    7525206c    l %u    DCD    1965367404
        0x01104dc8:    000a7325    %s..    DCD    684837
        0x01104dcc:    20005ac0    .Z.     DCD    536894144
    $t
    i.select_fast_blink_period
    select_fast_blink_period
        0x01104dd0:    b510        ..      PUSH     {r4,lr}
        0x01104dd2:    4c09        .L      LDR      r4,[pc,#36] ; [0x1104df8] = 0xffff
        0x01104dd4:    4603        .F      MOV      r3,r0
        0x01104dd6:    4620         F      MOV      r0,r4
        0x01104dd8:    2100        .!      MOVS     r1,#0
        0x01104dda:    008a        ..      LSLS     r2,r1,#2
        0x01104ddc:    18d2        ..      ADDS     r2,r2,r3
        0x01104dde:    6c52        Rl      LDR      r2,[r2,#0x44]
        0x01104de0:    2a00        .*      CMP      r2,#0
        0x01104de2:    d002        ..      BEQ      0x1104dea ; select_fast_blink_period + 26
        0x01104de4:    4282        .B      CMP      r2,r0
        0x01104de6:    d200        ..      BCS      0x1104dea ; select_fast_blink_period + 26
        0x01104de8:    4610        .F      MOV      r0,r2
        0x01104dea:    1c49        I.      ADDS     r1,r1,#1
        0x01104dec:    2904        .)      CMP      r1,#4
        0x01104dee:    dbf4        ..      BLT      0x1104dda ; select_fast_blink_period + 10
        0x01104df0:    42a0        .B      CMP      r0,r4
        0x01104df2:    d100        ..      BNE      0x1104df6 ; select_fast_blink_period + 38
        0x01104df4:    2000        .       MOVS     r0,#0
        0x01104df6:    bd10        ..      POP      {r4,pc}
    $d
        0x01104df8:    0000ffff    ....    DCD    65535
    $t
    i.send_ble_keycode
    send_ble_keycode
        0x01104dfc:    b5f8        ..      PUSH     {r3-r7,lr}
        0x01104dfe:    4605        .F      MOV      r5,r0
        0x01104e00:    f7ffff30    ..0.    BL       rmc_sm_state_is_activing ; 0x1104c64
        0x01104e04:    4e22        "N      LDR      r6,[pc,#136] ; [0x1104e90] = 0x20001a90
        0x01104e06:    2800        .(      CMP      r0,#0
        0x01104e08:    d009        ..      BEQ      0x1104e1e ; send_ble_keycode + 34
        0x01104e0a:    a022        ".      ADR      r0,{pc}+0x8a ; 0x1104e94
        0x01104e0c:    60f5        .`      STR      r5,[r6,#0xc]
        0x01104e0e:    9000        ..      STR      r0,[sp,#0]
        0x01104e10:    462b        +F      MOV      r3,r5
        0x01104e12:    a220         .      ADR      r2,{pc}+0x82 ; 0x1104e94
        0x01104e14:    a120         .      ADR      r1,{pc}+0x84 ; 0x1104e98
        0x01104e16:    a022        ".      ADR      r0,{pc}+0x8a ; 0x1104ea0
        0x01104e18:    f7fcf946    ..F.    BL       $Ven$TT$L$$printk ; 0x11010a8
        0x01104e1c:    bdf8        ..      POP      {r3-r7,pc}
        0x01104e1e:    b2a8        ..      UXTH     r0,r5
        0x01104e20:    f7fcfe82    ....    BL       acts_get_ble_keycode ; 0x1101b28
        0x01104e24:    4604        .F      MOV      r4,r0
        0x01104e26:    28ff        .(      CMP      r0,#0xff
        0x01104e28:    d0f8        ..      BEQ      0x1104e1c ; send_ble_keycode + 32
        0x01104e2a:    2000        .       MOVS     r0,#0
        0x01104e2c:    60f0        .`      STR      r0,[r6,#0xc]
        0x01104e2e:    00a8        ..      LSLS     r0,r5,#2
        0x01104e30:    4d23        #M      LDR      r5,[pc,#140] ; [0x1104ec0] = 0x224
        0x01104e32:    d517        ..      BPL      0x1104e64 ; send_ble_keycode + 104
        0x01104e34:    4620         F      MOV      r0,r4
        0x01104e36:    f7fef9fb    ....    BL       hid_app_remote_report_event ; 0x1103230
        0x01104e3a:    0600        ..      LSLS     r0,r0,#24
        0x01104e3c:    0e00        ..      LSRS     r0,r0,#24
        0x01104e3e:    d107        ..      BNE      0x1104e50 ; send_ble_keycode + 84
        0x01104e40:    a014        ..      ADR      r0,{pc}+0x54 ; 0x1104e94
        0x01104e42:    9000        ..      STR      r0,[sp,#0]
        0x01104e44:    4623        #F      MOV      r3,r4
        0x01104e46:    a213        ..      ADR      r2,{pc}+0x4e ; 0x1104e94
        0x01104e48:    a113        ..      ADR      r1,{pc}+0x50 ; 0x1104e98
        0x01104e4a:    a01e        ..      ADR      r0,{pc}+0x7a ; 0x1104ec4
        0x01104e4c:    f7fcf92c    ..,.    BL       $Ven$TT$L$$printk ; 0x11010a8
        0x01104e50:    42ac        .B      CMP      r4,r5
        0x01104e52:    d1e3        ..      BNE      0x1104e1c ; send_ble_keycode + 32
        0x01104e54:    a025        %.      ADR      r0,{pc}+0x98 ; 0x1104eec
        0x01104e56:    f7fcf927    ..'.    BL       $Ven$TT$L$$printk ; 0x11010a8
        0x01104e5a:    f000fb81    ....    BL       stop_audio_playback ; 0x1105560
        0x01104e5e:    f000fb07    ....    BL       start_audio_playback ; 0x1105470
        0x01104e62:    bdf8        ..      POP      {r3-r7,pc}
        0x01104e64:    2000        .       MOVS     r0,#0
        0x01104e66:    f7fef9e3    ....    BL       hid_app_remote_report_event ; 0x1103230
        0x01104e6a:    0600        ..      LSLS     r0,r0,#24
        0x01104e6c:    0e00        ..      LSRS     r0,r0,#24
        0x01104e6e:    d107        ..      BNE      0x1104e80 ; send_ble_keycode + 132
        0x01104e70:    a008        ..      ADR      r0,{pc}+0x24 ; 0x1104e94
        0x01104e72:    9000        ..      STR      r0,[sp,#0]
        0x01104e74:    4623        #F      MOV      r3,r4
        0x01104e76:    a207        ..      ADR      r2,{pc}+0x1e ; 0x1104e94
        0x01104e78:    a107        ..      ADR      r1,{pc}+0x20 ; 0x1104e98
        0x01104e7a:    a025        %.      ADR      r0,{pc}+0x96 ; 0x1104f10
        0x01104e7c:    f7fcf914    ....    BL       $Ven$TT$L$$printk ; 0x11010a8
        0x01104e80:    42ac        .B      CMP      r4,r5
        0x01104e82:    d1ee        ..      BNE      0x1104e62 ; send_ble_keycode + 102
        0x01104e84:    f000fb6c    ..l.    BL       stop_audio_playback ; 0x1105560
        0x01104e88:    f7fffcb0    ....    BL       reset_stroage ; 0x11047ec
        0x01104e8c:    bdf8        ..      POP      {r3-r7,pc}
    $d
        0x01104e8e:    0000        ..      DCW    0
        0x01104e90:    20001a90    ...     DCD    536877712
        0x01104e94:    00000000    ....    DCD    0
        0x01104e98:    75706e69    inpu    DCD    1970302569
        0x01104e9c:    00000074    t...    DCD    116
        0x01104ea0:    5d73255b    [%s]    DCD    1567827291
        0x01104ea4:    70732520     %sp    DCD    1886594336
        0x01104ea8:    69646e65    endi    DCD    1768189541
        0x01104eac:    6b5f676e    ng_k    DCD    1801414510
        0x01104eb0:    3a207965    ey :    DCD    975206757
        0x01104eb4:    25783020     0x%    DCD    628633632
        0x01104eb8:    0a732578    x%s.    DCD    175318392
        0x01104ebc:    00000000    ....    DCD    0
        0x01104ec0:    00000224    $...    DCD    548
        0x01104ec4:    5d73255b    [%s]    DCD    1567827291
        0x01104ec8:    53732520     %sS    DCD    1400055072
        0x01104ecc:    20646e65    end     DCD    543452773
        0x01104ed0:    5f656c62    ble_    DCD    1600482402
        0x01104ed4:    5f79656b    key_    DCD    1601791339
        0x01104ed8:    65646f63    code    DCD    1701080931
        0x01104edc:    78303a20     :0x    DCD    2016426528
        0x01104ee0:    64207825    %x d    DCD    1679849509
        0x01104ee4:    216e776f    own!    DCD    560887663
        0x01104ee8:    000a7325    %s..    DCD    684837
        0x01104eec:    2079656b    key     DCD    544826731
        0x01104ef0:    6e776f64    down    DCD    1853321060
        0x01104ef4:    206f7420     to     DCD    544175136
        0x01104ef8:    72617473    star    DCD    1918989427
        0x01104efc:    75612074    t au    DCD    1969299572
        0x01104f00:    206f6964    dio     DCD    544172388
        0x01104f04:    79616c70    play    DCD    2036427888
        0x01104f08:    6b636162    back    DCD    1801675106
        0x01104f0c:    0000000a    ....    DCD    10
        0x01104f10:    5d73255b    [%s]    DCD    1567827291
        0x01104f14:    53732520     %sS    DCD    1400055072
        0x01104f18:    20646e65    end     DCD    543452773
        0x01104f1c:    5f656c62    ble_    DCD    1600482402
        0x01104f20:    5f79656b    key_    DCD    1601791339
        0x01104f24:    65646f63    code    DCD    1701080931
        0x01104f28:    78303a20     :0x    DCD    2016426528
        0x01104f2c:    75207825    %x u    DCD    1965062181
        0x01104f30:    73252170    p!%s    DCD    1931813232
        0x01104f34:    0000000a    ....    DCD    10
    $t
    i.send_ir_keycode
    send_ir_keycode
        0x01104f38:    b5f8        ..      PUSH     {r3-r7,lr}
        0x01104f3a:    4d15        .M      LDR      r5,[pc,#84] ; [0x1104f90] = 0x20001a90
        0x01104f3c:    4606        .F      MOV      r6,r0
        0x01104f3e:    68a8        .h      LDR      r0,[r5,#8]
        0x01104f40:    2800        .(      CMP      r0,#0
        0x01104f42:    d017        ..      BEQ      0x1104f74 ; send_ir_keycode + 60
        0x01104f44:    b2b0        ..      UXTH     r0,r6
        0x01104f46:    f7fcfdff    ....    BL       acts_get_ir_keycode ; 0x1101b48
        0x01104f4a:    4604        .F      MOV      r4,r0
        0x01104f4c:    28ff        .(      CMP      r0,#0xff
        0x01104f4e:    d011        ..      BEQ      0x1104f74 ; send_ir_keycode + 60
        0x01104f50:    f7fffe88    ....    BL       rmc_sm_state_is_activing ; 0x1104c64
        0x01104f54:    27ff        .'      MOVS     r7,#0xff
        0x01104f56:    2800        .(      CMP      r0,#0
        0x01104f58:    d00d        ..      BEQ      0x1104f76 ; send_ir_keycode + 62
        0x01104f5a:    00b0        ..      LSLS     r0,r6,#2
        0x01104f5c:    d510        ..      BPL      0x1104f80 ; send_ir_keycode + 72
        0x01104f5e:    8868        h.      LDRH     r0,[r5,#2]
        0x01104f60:    42a0        .B      CMP      r0,r4
        0x01104f62:    d001        ..      BEQ      0x1104f68 ; send_ir_keycode + 48
        0x01104f64:    f7fefa1c    ....    BL       ir_btn_led_indication ; 0x11033a0
        0x01104f68:    2201        ."      MOVS     r2,#1
        0x01104f6a:    4621        !F      MOV      r1,r4
        0x01104f6c:    68a8        .h      LDR      r0,[r5,#8]
        0x01104f6e:    f7fefaf1    ....    BL       irc_device_send_key ; 0x1103554
        0x01104f72:    806c        l.      STRH     r4,[r5,#2]
        0x01104f74:    bdf8        ..      POP      {r3-r7,pc}
        0x01104f76:    68a8        .h      LDR      r0,[r5,#8]
        0x01104f78:    f7fefafb    ....    BL       irc_device_state_get ; 0x1103572
        0x01104f7c:    2800        .(      CMP      r0,#0
        0x01104f7e:    d0f9        ..      BEQ      0x1104f74 ; send_ir_keycode + 60
        0x01104f80:    2200        ."      MOVS     r2,#0
        0x01104f82:    4621        !F      MOV      r1,r4
        0x01104f84:    68a8        .h      LDR      r0,[r5,#8]
        0x01104f86:    f7fefae5    ....    BL       irc_device_send_key ; 0x1103554
        0x01104f8a:    806f        o.      STRH     r7,[r5,#2]
        0x01104f8c:    bdf8        ..      POP      {r3-r7,pc}
    $d
        0x01104f8e:    0000        ..      DCW    0
        0x01104f90:    20001a90    ...     DCD    536877712
    $t
    i.send_msg
    send_msg
        0x01104f94:    b538        8.      PUSH     {r3-r5,lr}
        0x01104f96:    4605        .F      MOV      r5,r0
        0x01104f98:    2900        .)      CMP      r1,#0
        0x01104f9a:    d00f        ..      BEQ      0x1104fbc ; send_msg + 40
        0x01104f9c:    480d        .H      LDR      r0,[pc,#52] ; [0x1104fd4] = 0x200018d4
        0x01104f9e:    f7fcfa7b    ..{.    BL       $Ven$TT$L$$net_buf_alloc ; 0x1101498
        0x01104fa2:    0004        ..      MOVS     r4,r0
        0x01104fa4:    d00c        ..      BEQ      0x1104fc0 ; send_msg + 44
        0x01104fa6:    220c        ."      MOVS     r2,#0xc
        0x01104fa8:    4629        )F      MOV      r1,r5
        0x01104faa:    68a0        .h      LDR      r0,[r4,#8]
        0x01104fac:    f7fbff6e    ..n.    BL       __aeabi_memcpy ; 0x1100e8c
        0x01104fb0:    4621        !F      MOV      r1,r4
        0x01104fb2:    4809        .H      LDR      r0,[pc,#36] ; [0x1104fd8] = 0x20001a00
        0x01104fb4:    f7fcfb30    ..0.    BL       $Ven$TT$L$$net_buf_put ; 0x1101618
        0x01104fb8:    2001        .       MOVS     r0,#1
        0x01104fba:    bd38        8.      POP      {r3-r5,pc}
        0x01104fbc:    4807        .H      LDR      r0,[pc,#28] ; [0x1104fdc] = 0x200018ac
        0x01104fbe:    e7ee        ..      B        0x1104f9e ; send_msg + 10
        0x01104fc0:    a007        ..      ADR      r0,{pc}+0x20 ; 0x1104fe0
        0x01104fc2:    9000        ..      STR      r0,[sp,#0]
        0x01104fc4:    786b        kx      LDRB     r3,[r5,#1]
        0x01104fc6:    a206        ..      ADR      r2,{pc}+0x1a ; 0x1104fe0
        0x01104fc8:    a106        ..      ADR      r1,{pc}+0x1c ; 0x1104fe4
        0x01104fca:    a007        ..      ADR      r0,{pc}+0x1e ; 0x1104fe8
        0x01104fcc:    f7fcf86c    ..l.    BL       $Ven$TT$L$$printk ; 0x11010a8
        0x01104fd0:    2000        .       MOVS     r0,#0
        0x01104fd2:    bd38        8.      POP      {r3-r5,pc}
    $d
        0x01104fd4:    200018d4    ...     DCD    536877268
        0x01104fd8:    20001a00    ...     DCD    536877568
        0x01104fdc:    200018ac    ...     DCD    536877228
        0x01104fe0:    00000000    ....    DCD    0
        0x01104fe4:    0067736d    msg.    DCD    6779757
        0x01104fe8:    5d73255b    [%s]    DCD    1567827291
        0x01104fec:    64732520     %sd    DCD    1685267744
        0x01104ff0:    20706f72    rop     DCD    544239474
        0x01104ff4:    2067736d    msg     DCD    543650669
        0x01104ff8:    65707974    type    DCD    1701869940
        0x01104ffc:    6425203a    : %d    DCD    1680154682
        0x01105000:    000a7325    %s..    DCD    684837
    $t
    i.send_pcm_to_i2s
    send_pcm_to_i2s
        0x01105004:    b5f3        ..      PUSH     {r0,r1,r4-r7,lr}
        0x01105006:    4821        !H      LDR      r0,[pc,#132] ; [0x110508c] = 0x20001af8
        0x01105008:    2400        .$      MOVS     r4,#0
        0x0110500a:    6802        .h      LDR      r2,[r0,#0]
        0x0110500c:    4820         H      LDR      r0,[pc,#128] ; [0x1105090] = 0x20001ad4
        0x0110500e:    4e1d        .N      LDR      r6,[pc,#116] ; [0x1105084] = 0x20005ccc
        0x01105010:    6881        .h      LDR      r1,[r0,#8]
        0x01105012:    4d1d        .M      LDR      r5,[pc,#116] ; [0x1105088] = 0x20005f4c
        0x01105014:    b081        ..      SUB      sp,sp,#4
        0x01105016:    428a        .B      CMP      r2,r1
        0x01105018:    d931        1.      BLS      0x110507e ; send_pcm_to_i2s + 122
        0x0110501a:    9802        ..      LDR      r0,[sp,#8]
        0x0110501c:    08c0        ..      LSRS     r0,r0,#3
        0x0110501e:    9000        ..      STR      r0,[sp,#0]
        0x01105020:    481c        .H      LDR      r0,[pc,#112] ; [0x1105094] = 0x20001b00
        0x01105022:    6800        .h      LDR      r0,[r0,#0]
        0x01105024:    2800        .(      CMP      r0,#0
        0x01105026:    d009        ..      BEQ      0x110503c ; send_pcm_to_i2s + 56
        0x01105028:    4a1b        .J      LDR      r2,[pc,#108] ; [0x1105098] = 0x20001afc
        0x0110502a:    6847        Gh      LDR      r7,[r0,#4]
        0x0110502c:    6812        .h      LDR      r2,[r2,#0]
        0x0110502e:    683f        ?h      LDR      r7,[r7,#0]
        0x01105030:    1851        Q.      ADDS     r1,r2,r1
        0x01105032:    0309        ..      LSLS     r1,r1,#12
        0x01105034:    0b09        ..      LSRS     r1,r1,#12
        0x01105036:    4632        2F      MOV      r2,r6
        0x01105038:    9b00        ..      LDR      r3,[sp,#0]
        0x0110503a:    47b8        .G      BLX      r7
        0x0110503c:    4f14        .O      LDR      r7,[pc,#80] ; [0x1105090] = 0x20001ad4
        0x0110503e:    9800        ..      LDR      r0,[sp,#0]
        0x01105040:    68b9        .h      LDR      r1,[r7,#8]
        0x01105042:    1808        ..      ADDS     r0,r1,r0
        0x01105044:    60b8        .`      STR      r0,[r7,#8]
        0x01105046:    8838        8.      LDRH     r0,[r7,#0]
        0x01105048:    0041        A.      LSLS     r1,r0,#1
        0x0110504a:    9800        ..      LDR      r0,[sp,#0]
        0x0110504c:    f7fcf964    ..d.    BL       $Ven$TT$L$$__aeabi_uidivmod ; 0x1101318
        0x01105050:    b2c0        ..      UXTB     r0,r0
        0x01105052:    9000        ..      STR      r0,[sp,#0]
        0x01105054:    e00b        ..      B        0x110506e ; send_pcm_to_i2s + 106
        0x01105056:    883a        :.      LDRH     r2,[r7,#0]
        0x01105058:    4629        )F      MOV      r1,r5
        0x0110505a:    4630        0F      MOV      r0,r6
        0x0110505c:    f7fcfb06    ....    BL       ASC_III_Decoder ; 0x110166c
        0x01105060:    8839        9.      LDRH     r1,[r7,#0]
        0x01105062:    0040        @.      LSLS     r0,r0,#1
        0x01105064:    0049        I.      LSLS     r1,r1,#1
        0x01105066:    1945        E.      ADDS     r5,r0,r5
        0x01105068:    198e        ..      ADDS     r6,r1,r6
        0x0110506a:    9800        ..      LDR      r0,[sp,#0]
        0x0110506c:    1c64        d.      ADDS     r4,r4,#1
        0x0110506e:    4284        .B      CMP      r4,r0
        0x01105070:    d3f1        ..      BCC      0x1105056 ; send_pcm_to_i2s + 82
        0x01105072:    4805        .H      LDR      r0,[pc,#20] ; [0x1105088] = 0x20005f4c
        0x01105074:    9a02        ..      LDR      r2,[sp,#8]
        0x01105076:    9901        ..      LDR      r1,[sp,#4]
        0x01105078:    f7fdfeb6    ....    BL       convert_mono_to_stereo ; 0x1102de8
        0x0110507c:    bdfe        ..      POP      {r1-r7,pc}
        0x0110507e:    f000fa6f    ..o.    BL       stop_audio_playback ; 0x1105560
        0x01105082:    bdfe        ..      POP      {r1-r7,pc}
    $d
        0x01105084:    20005ccc    .\.     DCD    536894668
        0x01105088:    20005f4c    L_.     DCD    536895308
        0x0110508c:    20001af8    ...     DCD    536877816
        0x01105090:    20001ad4    ...     DCD    536877780
        0x01105094:    20001b00    ...     DCD    536877824
        0x01105098:    20001afc    ...     DCD    536877820
    $t
    i.send_pending_keycode
    send_pending_keycode
        0x0110509c:    b510        ..      PUSH     {r4,lr}
        0x0110509e:    4809        .H      LDR      r0,[pc,#36] ; [0x11050c4] = 0x20001a90
        0x011050a0:    68c0        .h      LDR      r0,[r0,#0xc]
        0x011050a2:    0081        ..      LSLS     r1,r0,#2
        0x011050a4:    d502        ..      BPL      0x11050ac ; send_pending_keycode + 16
        0x011050a6:    f7fffea9    ....    BL       send_ble_keycode ; 0x1104dfc
        0x011050aa:    bd10        ..      POP      {r4,pc}
        0x011050ac:    b280        ..      UXTH     r0,r0
        0x011050ae:    f7fcfd3b    ..;.    BL       acts_get_ble_keycode ; 0x1101b28
        0x011050b2:    28ff        .(      CMP      r0,#0xff
        0x011050b4:    d0f9        ..      BEQ      0x11050aa ; send_pending_keycode + 14
        0x011050b6:    f7fef8bb    ....    BL       hid_app_remote_report_event ; 0x1103230
        0x011050ba:    2000        .       MOVS     r0,#0
        0x011050bc:    f7fef8b8    ....    BL       hid_app_remote_report_event ; 0x1103230
        0x011050c0:    bd10        ..      POP      {r4,pc}
    $d
        0x011050c2:    0000        ..      DCW    0
        0x011050c4:    20001a90    ...     DCD    536877712
    $t
    i.set_led_status
    set_led_status
        0x011050c8:    b5f8        ..      PUSH     {r3-r7,lr}
        0x011050ca:    4614        .F      MOV      r4,r2
        0x011050cc:    460e        .F      MOV      r6,r1
        0x011050ce:    4605        .F      MOV      r5,r0
        0x011050d0:    f7fbfec2    ....    BL       _arch_irq_lock_s ; 0x1100e58
        0x011050d4:    4607        .F      MOV      r7,r0
        0x011050d6:    2e00        ..      CMP      r6,#0
        0x011050d8:    d00a        ..      BEQ      0x11050f0 ; set_led_status + 40
        0x011050da:    2e01        ..      CMP      r6,#1
        0x011050dc:    d00d        ..      BEQ      0x11050fa ; set_led_status + 50
        0x011050de:    a02b        +.      ADR      r0,{pc}+0xae ; 0x110518c
        0x011050e0:    9000        ..      STR      r0,[sp,#0]
        0x011050e2:    4633        3F      MOV      r3,r6
        0x011050e4:    a229        ).      ADR      r2,{pc}+0xa8 ; 0x110518c
        0x011050e6:    a12a        *.      ADR      r1,{pc}+0xaa ; 0x1105190
        0x011050e8:    a02a        *.      ADR      r0,{pc}+0xac ; 0x1105194
        0x011050ea:    f7fbffdd    ....    BL       $Ven$TT$L$$printk ; 0x11010a8
        0x011050ee:    bdf8        ..      POP      {r3-r7,pc}
        0x011050f0:    4621        !F      MOV      r1,r4
        0x011050f2:    4628        (F      MOV      r0,r5
        0x011050f4:    f000f85c    ..\.    BL       set_on_state ; 0x11051b0
        0x011050f8:    e007        ..      B        0x110510a ; set_led_status + 66
        0x011050fa:    4621        !F      MOV      r1,r4
        0x011050fc:    4628        (F      MOV      r0,r5
        0x011050fe:    f7fdfdd5    ....    BL       clear_on_state ; 0x1102cac
        0x01105102:    6c28        (l      LDR      r0,[r5,#0x40]
        0x01105104:    2800        .(      CMP      r0,#0
        0x01105106:    d000        ..      BEQ      0x110510a ; set_led_status + 66
        0x01105108:    2600        .&      MOVS     r6,#0
        0x0110510a:    462c        ,F      MOV      r4,r5
        0x0110510c:    3420         4      ADDS     r4,r4,#0x20
        0x0110510e:    7726        &w      STRB     r6,[r4,#0x1c]
        0x01105110:    2e00        ..      CMP      r6,#0
        0x01105112:    d002        ..      BEQ      0x110511a ; set_led_status + 82
        0x01105114:    2e01        ..      CMP      r6,#1
        0x01105116:    d134        4.      BNE      0x1105182 ; set_led_status + 186
        0x01105118:    e020         .      B        0x110515c ; set_led_status + 148
        0x0110511a:    4628        (F      MOV      r0,r5
        0x0110511c:    f7fffe58    ..X.    BL       select_fast_blink_period ; 0x1104dd0
        0x01105120:    0006        ..      MOVS     r6,r0
        0x01105122:    d00f        ..      BEQ      0x1105144 ; set_led_status + 124
        0x01105124:    2000        .       MOVS     r0,#0
        0x01105126:    7620         v      STRB     r0,[r4,#0x18]
        0x01105128:    7ea0        .~      LDRB     r0,[r4,#0x1a]
        0x0110512a:    28ff        .(      CMP      r0,#0xff
        0x0110512c:    d029        ).      BEQ      0x1105182 ; set_led_status + 186
        0x0110512e:    7e60        `~      LDRB     r0,[r4,#0x19]
        0x01105130:    2102        .!      MOVS     r1,#2
        0x01105132:    f7fcfa77    ..w.    BL       $Ven$TT$L$$acts_pinmux_set ; 0x1101624
        0x01105136:    0873        s.      LSRS     r3,r6,#1
        0x01105138:    7ea1        .~      LDRB     r1,[r4,#0x1a]
        0x0110513a:    4632        2F      MOV      r2,r6
        0x0110513c:    6828        (h      LDR      r0,[r5,#0]
        0x0110513e:    f7fffac7    ....    BL       pwm_pin_set_cycles ; 0x11046d0
        0x01105142:    e01e        ..      B        0x1105182 ; set_led_status + 186
        0x01105144:    7ea0        .~      LDRB     r0,[r4,#0x1a]
        0x01105146:    28ff        .(      CMP      r0,#0xff
        0x01105148:    d01b        ..      BEQ      0x1105182 ; set_led_status + 186
        0x0110514a:    7e60        `~      LDRB     r0,[r4,#0x19]
        0x0110514c:    2102        .!      MOVS     r1,#2
        0x0110514e:    f7fcfa69    ..i.    BL       $Ven$TT$L$$acts_pinmux_set ; 0x1101624
        0x01105152:    2309        .#      MOVS     r3,#9
        0x01105154:    7ea1        .~      LDRB     r1,[r4,#0x1a]
        0x01105156:    220a        ."      MOVS     r2,#0xa
        0x01105158:    6828        (h      LDR      r0,[r5,#0]
        0x0110515a:    e7f0        ..      B        0x110513e ; set_led_status + 118
        0x0110515c:    7ea1        .~      LDRB     r1,[r4,#0x1a]
        0x0110515e:    29ff        .)      CMP      r1,#0xff
        0x01105160:    d00f        ..      BEQ      0x1105182 ; set_led_status + 186
        0x01105162:    2300        .#      MOVS     r3,#0
        0x01105164:    220a        ."      MOVS     r2,#0xa
        0x01105166:    6828        (h      LDR      r0,[r5,#0]
        0x01105168:    f7fffab2    ....    BL       pwm_pin_set_cycles ; 0x11046d0
        0x0110516c:    7ee0        .~      LDRB     r0,[r4,#0x1b]
        0x0110516e:    2800        .(      CMP      r0,#0
        0x01105170:    7e60        `~      LDRB     r0,[r4,#0x19]
        0x01105172:    d002        ..      BEQ      0x110517a ; set_led_status + 178
        0x01105174:    2101        .!      MOVS     r1,#1
        0x01105176:    0249        I.      LSLS     r1,r1,#9
        0x01105178:    e001        ..      B        0x110517e ; set_led_status + 182
        0x0110517a:    21ff        .!      MOVS     r1,#0xff
        0x0110517c:    3101        .1      ADDS     r1,#1
        0x0110517e:    f7fcfa51    ..Q.    BL       $Ven$TT$L$$acts_pinmux_set ; 0x1101624
        0x01105182:    4638        8F      MOV      r0,r7
        0x01105184:    f7fbfe6c    ..l.    BL       _arch_irq_unlock_s ; 0x1100e60
        0x01105188:    bdf8        ..      POP      {r3-r7,pc}
    $d
        0x0110518a:    0000        ..      DCW    0
        0x0110518c:    00000000    ....    DCD    0
        0x01105190:    0064656c    led.    DCD    6579564
        0x01105194:    5d73255b    [%s]    DCD    1567827291
        0x01105198:    75732520     %su    DCD    1970480416
        0x0110519c:    776f6b6e    nkow    DCD    2003790702
        0x011051a0:    7473206e    n st    DCD    1953701998
        0x011051a4:    20657461    ate     DCD    543519841
        0x011051a8:    73256425    %d%s    DCD    1931830309
        0x011051ac:    0000000a    ....    DCD    10
    $t
    i.set_on_state
    set_on_state
        0x011051b0:    b530        0.      PUSH     {r4,r5,lr}
        0x011051b2:    000d        ..      MOVS     r5,r1
        0x011051b4:    4604        .F      MOV      r4,r0
        0x011051b6:    d00d        ..      BEQ      0x11051d4 ; set_on_state + 36
        0x011051b8:    f7fdff04    ....    BL       find_blink_period ; 0x1102fc4
        0x011051bc:    2800        .(      CMP      r0,#0
        0x011051be:    da08        ..      BGE      0x11051d2 ; set_on_state + 34
        0x011051c0:    2200        ."      MOVS     r2,#0
        0x011051c2:    0090        ..      LSLS     r0,r2,#2
        0x011051c4:    1900        ..      ADDS     r0,r0,r4
        0x011051c6:    6c40        @l      LDR      r0,[r0,#0x44]
        0x011051c8:    2800        .(      CMP      r0,#0
        0x011051ca:    d006        ..      BEQ      0x11051da ; set_on_state + 42
        0x011051cc:    1c52        R.      ADDS     r2,r2,#1
        0x011051ce:    2a04        .*      CMP      r2,#4
        0x011051d0:    dbf7        ..      BLT      0x11051c2 ; set_on_state + 18
        0x011051d2:    bd30        0.      POP      {r4,r5,pc}
        0x011051d4:    2110        .!      MOVS     r1,#0x10
        0x011051d6:    6c20         l      LDR      r0,[r4,#0x40]
        0x011051d8:    e005        ..      B        0x11051e6 ; set_on_state + 54
        0x011051da:    0090        ..      LSLS     r0,r2,#2
        0x011051dc:    1900        ..      ADDS     r0,r0,r4
        0x011051de:    6445        Ed      STR      r5,[r0,#0x44]
        0x011051e0:    2101        .!      MOVS     r1,#1
        0x011051e2:    6c20         l      LDR      r0,[r4,#0x40]
        0x011051e4:    4091        .@      LSLS     r1,r1,r2
        0x011051e6:    4308        .C      ORRS     r0,r0,r1
        0x011051e8:    6420         d      STR      r0,[r4,#0x40]
        0x011051ea:    bd30        0.      POP      {r4,r5,pc}
    i.set_sd_data
    set_sd_data
        0x011051ec:    b5f0        ..      PUSH     {r4-r7,lr}
        0x011051ee:    27cb        .'      MOVS     r7,#0xcb
        0x011051f0:    2100        .!      MOVS     r1,#0
        0x011051f2:    4e13        .N      LDR      r6,[pc,#76] ; [0x1105240] = 0x20001a94
        0x011051f4:    023f        ?.      LSLS     r7,r7,#8
        0x011051f6:    4a13        .J      LDR      r2,[pc,#76] ; [0x1105244] = 0x20001a54
        0x011051f8:    240e        .$      MOVS     r4,#0xe
        0x011051fa:    00c8        ..      LSLS     r0,r1,#3
        0x011051fc:    5c13        .\      LDRB     r3,[r2,r0]
        0x011051fe:    2b09        .+      CMP      r3,#9
        0x01105200:    d114        ..      BNE      0x110522c ; set_sd_data + 64
        0x01105202:    8833        3.      LDRH     r3,[r6,#0]
        0x01105204:    1bdd        ..      SUBS     r5,r3,r7
        0x01105206:    002b        +.      MOVS     r3,r5
        0x01105208:    f7fcfbff    ....    BL       __ARM_common_switch8 ; 0x1101a0a
    $d
        0x0110520c:    0c0a0405    ....    DCD    201982981
        0x01105210:    00101816    ....    DCD    1054742
    $t
        0x01105214:    a30c        ..      ADR      r3,{pc}+0x34 ; 0x1105248
        0x01105216:    1880        ..      ADDS     r0,r0,r2
        0x01105218:    6043        C`      STR      r3,[r0,#4]
        0x0110521a:    2308        .#      MOVS     r3,#8
        0x0110521c:    7043        Cp      STRB     r3,[r0,#1]
        0x0110521e:    e005        ..      B        0x110522c ; set_sd_data + 64
        0x01105220:    a30c        ..      ADR      r3,{pc}+0x34 ; 0x1105254
        0x01105222:    e000        ..      B        0x1105226 ; set_sd_data + 58
        0x01105224:    a30f        ..      ADR      r3,{pc}+0x40 ; 0x1105264
        0x01105226:    1880        ..      ADDS     r0,r0,r2
        0x01105228:    6043        C`      STR      r3,[r0,#4]
        0x0110522a:    7044        Dp      STRB     r4,[r0,#1]
        0x0110522c:    1c49        I.      ADDS     r1,r1,#1
        0x0110522e:    b2c9        ..      UXTB     r1,r1
        0x01105230:    2904        .)      CMP      r1,#4
        0x01105232:    d3e2        ..      BCC      0x11051fa ; set_sd_data + 14
        0x01105234:    8037        7.      STRH     r7,[r6,#0]
        0x01105236:    bdf0        ..      POP      {r4-r7,pc}
        0x01105238:    a30e        ..      ADR      r3,{pc}+0x3c ; 0x1105274
        0x0110523a:    e7f4        ..      B        0x1105226 ; set_sd_data + 58
        0x0110523c:    a311        ..      ADR      r3,{pc}+0x48 ; 0x1105284
        0x0110523e:    e7f2        ..      B        0x1105226 ; set_sd_data + 58
    $d
        0x01105240:    20001a94    ...     DCD    536877716
        0x01105244:    20001a54    T..     DCD    536877652
        0x01105248:    69627543    Cubi    DCD    1768060227
        0x0110524c:    454c4265    eBLE    DCD    1162625637
        0x01105250:    00000000    ....    DCD    0
        0x01105254:    5f454c42    BLE_    DCD    1598377026
        0x01105258:    5f434d52    RMC_    DCD    1598246226
        0x0110525c:    54534554    TEST    DCD    1414743380
        0x01105260:    0000315f    _1..    DCD    12639
        0x01105264:    5f454c42    BLE_    DCD    1598377026
        0x01105268:    5f434d52    RMC_    DCD    1598246226
        0x0110526c:    54534554    TEST    DCD    1414743380
        0x01105270:    0000325f    _2..    DCD    12895
        0x01105274:    5f454c42    BLE_    DCD    1598377026
        0x01105278:    5f434d52    RMC_    DCD    1598246226
        0x0110527c:    54534554    TEST    DCD    1414743380
        0x01105280:    0000335f    _3..    DCD    13151
        0x01105284:    5f454c42    BLE_    DCD    1598377026
        0x01105288:    5f434d52    RMC_    DCD    1598246226
        0x0110528c:    54534554    TEST    DCD    1414743380
        0x01105290:    0000345f    _4..    DCD    13407
    $t
    i.shell_cmd_reboot
    shell_cmd_reboot
        0x01105294:    b538        8.      PUSH     {r3-r5,lr}
        0x01105296:    460c        .F      MOV      r4,r1
        0x01105298:    2802        .(      CMP      r0,#2
        0x0110529a:    da02        ..      BGE      0x11052a2 ; shell_cmd_reboot + 14
        0x0110529c:    2015        .       MOVS     r0,#0x15
        0x0110529e:    43c0        .C      MVNS     r0,r0
        0x011052a0:    bd38        8.      POP      {r3-r5,pc}
        0x011052a2:    a017        ..      ADR      r0,{pc}+0x5e ; 0x1105300
        0x011052a4:    9000        ..      STR      r0,[sp,#0]
        0x011052a6:    2505        .%      MOVS     r5,#5
        0x011052a8:    02ad        ..      LSLS     r5,r5,#10
        0x011052aa:    a215        ..      ADR      r2,{pc}+0x56 ; 0x1105300
        0x011052ac:    a115        ..      ADR      r1,{pc}+0x58 ; 0x1105304
        0x011052ae:    a017        ..      ADR      r0,{pc}+0x5e ; 0x110530c
        0x011052b0:    6863        ch      LDR      r3,[r4,#4]
        0x011052b2:    f7fbfef9    ....    BL       $Ven$TT$L$$printk ; 0x11010a8
        0x011052b6:    a01c        ..      ADR      r0,{pc}+0x72 ; 0x1105328
        0x011052b8:    6861        ah      LDR      r1,[r4,#4]
        0x011052ba:    f7fcf869    ..i.    BL       $Ven$TT$L$$strcmp ; 0x1101390
        0x011052be:    2800        .(      CMP      r0,#0
        0x011052c0:    d011        ..      BEQ      0x11052e6 ; shell_cmd_reboot + 82
        0x011052c2:    a01a        ..      ADR      r0,{pc}+0x6a ; 0x110532c
        0x011052c4:    6861        ah      LDR      r1,[r4,#4]
        0x011052c6:    f7fcf863    ..c.    BL       $Ven$TT$L$$strcmp ; 0x1101390
        0x011052ca:    2800        .(      CMP      r0,#0
        0x011052cc:    d006        ..      BEQ      0x11052dc ; shell_cmd_reboot + 72
        0x011052ce:    a018        ..      ADR      r0,{pc}+0x62 ; 0x1105330
        0x011052d0:    6861        ah      LDR      r1,[r4,#4]
        0x011052d2:    f7fcf85d    ..].    BL       $Ven$TT$L$$strcmp ; 0x1101390
        0x011052d6:    2800        .(      CMP      r0,#0
        0x011052d8:    d003        ..      BEQ      0x11052e2 ; shell_cmd_reboot + 78
        0x011052da:    e004        ..      B        0x11052e6 ; shell_cmd_reboot + 82
        0x011052dc:    2509        .%      MOVS     r5,#9
        0x011052de:    026d        m.      LSLS     r5,r5,#9
        0x011052e0:    e001        ..      B        0x11052e6 ; shell_cmd_reboot + 82
        0x011052e2:    2501        .%      MOVS     r5,#1
        0x011052e4:    032d        -.      LSLS     r5,r5,#12
        0x011052e6:    a006        ..      ADR      r0,{pc}+0x1a ; 0x1105300
        0x011052e8:    9000        ..      STR      r0,[sp,#0]
        0x011052ea:    462b        +F      MOV      r3,r5
        0x011052ec:    a204        ..      ADR      r2,{pc}+0x14 ; 0x1105300
        0x011052ee:    a105        ..      ADR      r1,{pc}+0x16 ; 0x1105304
        0x011052f0:    a011        ..      ADR      r0,{pc}+0x48 ; 0x1105338
        0x011052f2:    f7fbfed9    ....    BL       $Ven$TT$L$$printk ; 0x11010a8
        0x011052f6:    4628        (F      MOV      r0,r5
        0x011052f8:    f000fa16    ....    BL       sys_pm_reboot ; 0x1105728
        0x011052fc:    2000        .       MOVS     r0,#0
        0x011052fe:    bd38        8.      POP      {r3-r5,pc}
    $d
        0x01105300:    00000000    ....    DCD    0
        0x01105304:    6c656873    shel    DCD    1818585203
        0x01105308:    0000006c    l...    DCD    108
        0x0110530c:    5d73255b    [%s]    DCD    1567827291
        0x01105310:    72732520     %sr    DCD    1920148768
        0x01105314:    6f6f6265    eboo    DCD    1869570661
        0x01105318:    79742074    t ty    DCD    2037653620
        0x0110531c:    203a6570    pe:     DCD    540697968
        0x01105320:    73257325    %s%s    DCD    1931834149
        0x01105324:    0000000a    ....    DCD    10
        0x01105328:    00707061    app.    DCD    7368801
        0x0110532c:    006d7464    dtm.    DCD    7173220
        0x01105330:    75666461    adfu    DCD    1969644641
        0x01105334:    00000000    ....    DCD    0
        0x01105338:    5d73255b    [%s]    DCD    1567827291
        0x0110533c:    72732520     %sr    DCD    1920148768
        0x01105340:    6f6f6265    eboo    DCD    1869570661
        0x01105344:    79742074    t ty    DCD    2037653620
        0x01105348:    203a6570    pe:     DCD    540697968
        0x0110534c:    73256425    %d%s    DCD    1931830309
        0x01105350:    0000000a    ....    DCD    10
    $t
    i.shell_set_bt_addr
    shell_set_bt_addr
        0x01105354:    b53e        >.      PUSH     {r1-r5,lr}
        0x01105356:    460c        .F      MOV      r4,r1
        0x01105358:    2802        .(      CMP      r0,#2
        0x0110535a:    da02        ..      BGE      0x1105362 ; shell_set_bt_addr + 14
        0x0110535c:    2015        .       MOVS     r0,#0x15
        0x0110535e:    43c0        .C      MVNS     r0,r0
        0x01105360:    bd3e        >.      POP      {r1-r5,pc}
        0x01105362:    a901        ..      ADD      r1,sp,#4
        0x01105364:    6860        `h      LDR      r0,[r4,#4]
        0x01105366:    f000f999    ....    BL       str2bt_addr ; 0x110569c
        0x0110536a:    0005        ..      MOVS     r5,r0
        0x0110536c:    d009        ..      BEQ      0x1105382 ; shell_set_bt_addr + 46
        0x0110536e:    a00b        ..      ADR      r0,{pc}+0x2e ; 0x110539c
        0x01105370:    9000        ..      STR      r0,[sp,#0]
        0x01105372:    462b        +F      MOV      r3,r5
        0x01105374:    a209        ..      ADR      r2,{pc}+0x28 ; 0x110539c
        0x01105376:    a10a        ..      ADR      r1,{pc}+0x2a ; 0x11053a0
        0x01105378:    a00b        ..      ADR      r0,{pc}+0x30 ; 0x11053a8
        0x0110537a:    f7fbfe95    ....    BL       $Ven$TT$L$$printk ; 0x11010a8
        0x0110537e:    4628        (F      MOV      r0,r5
        0x01105380:    bd3e        >.      POP      {r1-r5,pc}
        0x01105382:    6860        `h      LDR      r0,[r4,#4]
        0x01105384:    f7fbff74    ..t.    BL       $Ven$TT$L$$strlen ; 0x1101270
        0x01105388:    4602        .F      MOV      r2,r0
        0x0110538a:    a010        ..      ADR      r0,{pc}+0x42 ; 0x11053cc
        0x0110538c:    6861        ah      LDR      r1,[r4,#4]
        0x0110538e:    f7fcf8c5    ....    BL       $Ven$TT$L$$nvram_config_set_factory ; 0x110151c
        0x01105392:    2800        .(      CMP      r0,#0
        0x01105394:    dbf4        ..      BLT      0x1105380 ; shell_set_bt_addr + 44
        0x01105396:    2000        .       MOVS     r0,#0
        0x01105398:    bd3e        >.      POP      {r1-r5,pc}
    $d
        0x0110539a:    0000        ..      DCW    0
        0x0110539c:    00000000    ....    DCD    0
        0x011053a0:    6c656873    shel    DCD    1818585203
        0x011053a4:    0000006c    l...    DCD    108
        0x011053a8:    5d73255b    [%s]    DCD    1567827291
        0x011053ac:    49732520     %sI    DCD    1232282912
        0x011053b0:    6c61766e    nval    DCD    1818326638
        0x011053b4:    61206469    id a    DCD    1629512809
        0x011053b8:    65726464    ddre    DCD    1701995620
        0x011053bc:    28207373    ss (    DCD    673215347
        0x011053c0:    20727265    err     DCD    544371301
        0x011053c4:    25296425    %d)%    DCD    623469605
        0x011053c8:    00000a73    s...    DCD    2675
        0x011053cc:    415f5442    BT_A    DCD    1096766530
        0x011053d0:    00524444    DDR.    DCD    5391428
    $t
    i.smp_reset_new
    smp_reset_new
        0x011053d4:    b5f8        ..      PUSH     {r3-r7,lr}
        0x011053d6:    4606        .F      MOV      r6,r0
        0x011053d8:    4604        .F      MOV      r4,r0
        0x011053da:    36a0        .6      ADDS     r6,r6,#0xa0
        0x011053dc:    6805        .h      LDR      r5,[r0,#0]
        0x011053de:    4630        0F      MOV      r0,r6
        0x011053e0:    f7fcf8f6    ....    BL       $Ven$TT$L$$atomic_get ; 0x11015d0
        0x011053e4:    1280        ..      ASRS     r0,r0,#10
        0x011053e6:    07c0        ..      LSLS     r0,r0,#31
        0x011053e8:    0fc0        ..      LSRS     r0,r0,#31
        0x011053ea:    d008        ..      BEQ      0x11053fe ; smp_reset_new + 42
        0x011053ec:    4914        .I      LDR      r1,[pc,#80] ; [0x1105440] = 0x20000bfc
        0x011053ee:    6820         h      LDR      r0,[r4,#0]
        0x011053f0:    6809        .h      LDR      r1,[r1,#0]
        0x011053f2:    6f00        .o      LDR      r0,[r0,#0x70]
        0x011053f4:    2390        .#      MOVS     r3,#0x90
        0x011053f6:    684f        Oh      LDR      r7,[r1,#4]
        0x011053f8:    4602        .F      MOV      r2,r0
        0x011053fa:    2109        .!      MOVS     r1,#9
        0x011053fc:    47b8        .G      BLX      r7
        0x011053fe:    4620         F      MOV      r0,r4
        0x01105400:    30ff        .0      ADDS     r0,r0,#0xff
        0x01105402:    307d        }0      ADDS     r0,r0,#0x7d
        0x01105404:    f7fcf902    ....    BL       $Ven$TT$L$$k_delayed_work_cancel ; 0x110160c
        0x01105408:    2000        .       MOVS     r0,#0
        0x0110540a:    7130        0q      STRB     r0,[r6,#4]
        0x0110540c:    4601        .F      MOV      r1,r0
        0x0110540e:    4620         F      MOV      r0,r4
        0x01105410:    309c        .0      ADDS     r0,r0,#0x9c
        0x01105412:    4604        .F      MOV      r4,r0
        0x01105414:    f7fcf90c    ....    BL       $Ven$TT$L$$atomic_set ; 0x1101630
        0x01105418:    2100        .!      MOVS     r1,#0
        0x0110541a:    4630        0F      MOV      r0,r6
        0x0110541c:    f7fcf908    ....    BL       $Ven$TT$L$$atomic_set ; 0x1101630
        0x01105420:    7a69        iz      LDRB     r1,[r5,#9]
        0x01105422:    7a28        (z      LDRB     r0,[r5,#8]
        0x01105424:    4281        .B      CMP      r1,r0
        0x01105426:    d000        ..      BEQ      0x110542a ; smp_reset_new + 86
        0x01105428:    7268        hr      STRB     r0,[r5,#9]
        0x0110542a:    78e8        .x      LDRB     r0,[r5,#3]
        0x0110542c:    2800        .(      CMP      r0,#0
        0x0110542e:    d004        ..      BEQ      0x110543a ; smp_reset_new + 102
        0x01105430:    2101        .!      MOVS     r1,#1
        0x01105432:    4620         F      MOV      r0,r4
        0x01105434:    f7fcfeb4    ....    BL       atomic_set_bit ; 0x11021a0
        0x01105438:    bdf8        ..      POP      {r3-r7,pc}
        0x0110543a:    210b        .!      MOVS     r1,#0xb
        0x0110543c:    e7f9        ..      B        0x1105432 ; smp_reset_new + 94
    $d
        0x0110543e:    0000        ..      DCW    0
        0x01105440:    20000bfc    ...     DCD    536873980
    $t
    i.start_audio_capture
    start_audio_capture
        0x01105444:    b510        ..      PUSH     {r4,lr}
        0x01105446:    4808        .H      LDR      r0,[pc,#32] ; [0x1105468] = 0x20001a41
        0x01105448:    7800        .x      LDRB     r0,[r0,#0]
        0x0110544a:    2800        .(      CMP      r0,#0
        0x0110544c:    d00b        ..      BEQ      0x1105466 ; start_audio_capture + 34
        0x0110544e:    4807        .H      LDR      r0,[pc,#28] ; [0x110546c] = 0x20001af0
        0x01105450:    2101        .!      MOVS     r1,#1
        0x01105452:    71c1        .q      STRB     r1,[r0,#7]
        0x01105454:    7101        .q      STRB     r1,[r0,#4]
        0x01105456:    2100        .!      MOVS     r1,#0
        0x01105458:    7141        Aq      STRB     r1,[r0,#5]
        0x0110545a:    2104        .!      MOVS     r1,#4
        0x0110545c:    7181        .q      STRB     r1,[r0,#6]
        0x0110545e:    381c        .8      SUBS     r0,r0,#0x1c
        0x01105460:    68c0        .h      LDR      r0,[r0,#0xc]
        0x01105462:    f7fdfa1f    ....    BL       audioin_start_record ; 0x11028a4
        0x01105466:    bd10        ..      POP      {r4,pc}
    $d
        0x01105468:    20001a41    A..     DCD    536877633
        0x0110546c:    20001af0    ...     DCD    536877808
    $t
    i.start_audio_playback
    start_audio_playback
        0x01105470:    237d        }#      MOVS     r3,#0x7d
        0x01105472:    b510        ..      PUSH     {r4,lr}
        0x01105474:    021b        ..      LSLS     r3,r3,#8
        0x01105476:    2201        ."      MOVS     r2,#1
        0x01105478:    2110        .!      MOVS     r1,#0x10
        0x0110547a:    1098        ..      ASRS     r0,r3,#2
        0x0110547c:    f7fcf972    ..r.    BL       ASC_III_Decoder_Init ; 0x1101764
        0x01105480:    0400        ..      LSLS     r0,r0,#16
        0x01105482:    4c08        .L      LDR      r4,[pc,#32] ; [0x11054a4] = 0x20001ad4
        0x01105484:    0c00        ..      LSRS     r0,r0,#16
        0x01105486:    8020         .      STRH     r0,[r4,#0]
        0x01105488:    d008        ..      BEQ      0x110549c ; start_audio_playback + 44
        0x0110548a:    2105        .!      MOVS     r1,#5
        0x0110548c:    01c9        ..      LSLS     r1,r1,#7
        0x0110548e:    4806        .H      LDR      r0,[pc,#24] ; [0x11054a8] = 0x200026c4
        0x01105490:    f7fffdb8    ....    BL       send_pcm_to_i2s ; 0x1105004
        0x01105494:    6860        `h      LDR      r0,[r4,#4]
        0x01105496:    f7fdf853    ..S.    BL       audio_out_start_playback ; 0x1102540
        0x0110549a:    bd10        ..      POP      {r4,pc}
        0x0110549c:    a003        ..      ADR      r0,{pc}+0x10 ; 0x11054ac
        0x0110549e:    f7fbfe03    ....    BL       $Ven$TT$L$$printk ; 0x11010a8
        0x011054a2:    bd10        ..      POP      {r4,pc}
    $d
        0x011054a4:    20001ad4    ...     DCD    536877780
        0x011054a8:    200026c4    .&.     DCD    536880836
        0x011054ac:    5f435341    ASC_    DCD    1598247745
        0x011054b0:    6f636544    Deco    DCD    1868784964
        0x011054b4:    5f726564    der_    DCD    1601332580
        0x011054b8:    74696e49    Init    DCD    1953066569
        0x011054bc:    72726520     err    DCD    1920099616
        0x011054c0:    2120726f    or !    DCD    555774575
        0x011054c4:    0000000a    ....    DCD    10
    $t
    i.start_i2s_tx_dma
    start_i2s_tx_dma
        0x011054c8:    b538        8.      PUSH     {r3-r5,lr}
        0x011054ca:    6801        .h      LDR      r1,[r0,#0]
        0x011054cc:    6880        .h      LDR      r0,[r0,#8]
        0x011054ce:    68cc        .h      LDR      r4,[r1,#0xc]
        0x011054d0:    6800        .h      LDR      r0,[r0,#0]
        0x011054d2:    2101        .!      MOVS     r1,#1
        0x011054d4:    6842        Bh      LDR      r2,[r0,#4]
        0x011054d6:    5661        aV      LDRSB    r1,[r4,r1]
        0x011054d8:    6952        Ri      LDR      r2,[r2,#0x14]
        0x011054da:    4790        .G      BLX      r2
        0x011054dc:    2800        .(      CMP      r0,#0
        0x011054de:    d009        ..      BEQ      0x11054f4 ; start_i2s_tx_dma + 44
        0x011054e0:    a006        ..      ADR      r0,{pc}+0x1c ; 0x11054fc
        0x011054e2:    9000        ..      STR      r0,[sp,#0]
        0x011054e4:    2301        .#      MOVS     r3,#1
        0x011054e6:    56e3        .V      LDRSB    r3,[r4,r3]
        0x011054e8:    a204        ..      ADR      r2,{pc}+0x14 ; 0x11054fc
        0x011054ea:    a105        ..      ADR      r1,{pc}+0x16 ; 0x1105500
        0x011054ec:    a006        ..      ADR      r0,{pc}+0x1c ; 0x1105508
        0x011054ee:    f7fbfddb    ....    BL       $Ven$TT$L$$printk ; 0x11010a8
        0x011054f2:    bd38        8.      POP      {r3-r5,pc}
        0x011054f4:    a00b        ..      ADR      r0,{pc}+0x30 ; 0x1105524
        0x011054f6:    f7fbfdd7    ....    BL       $Ven$TT$L$$printk ; 0x11010a8
        0x011054fa:    bd38        8.      POP      {r3-r5,pc}
    $d
        0x011054fc:    00000000    ....    DCD    0
        0x01105500:    69647561    audi    DCD    1768191329
        0x01105504:    0000006f    o...    DCD    111
        0x01105508:    5d73255b    [%s]    DCD    1567827291
        0x0110550c:    64732520     %sd    DCD    1685267744
        0x01105510:    6425616d    ma%d    DCD    1680171373
        0x01105514:    61747320     sta    DCD    1635021600
        0x01105518:    65207472    rt e    DCD    1696625778
        0x0110551c:    726f7272    rror    DCD    1919906418
        0x01105520:    000a7325    %s..    DCD    684837
        0x01105524:    72617473    star    DCD    1918989427
        0x01105528:    32695f74    t_i2    DCD    845766516
        0x0110552c:    78745f73    s_tx    DCD    2020892531
        0x01105530:    616d645f    _dma    DCD    1634559071
        0x01105534:    00000a20     ...    DCD    2592
    $t
    i.stop_audio_capture
    stop_audio_capture
        0x01105538:    b510        ..      PUSH     {r4,lr}
        0x0110553a:    4807        .H      LDR      r0,[pc,#28] ; [0x1105558] = 0x20001a41
        0x0110553c:    7800        .x      LDRB     r0,[r0,#0]
        0x0110553e:    2800        .(      CMP      r0,#0
        0x01105540:    d008        ..      BEQ      0x1105554 ; stop_audio_capture + 28
        0x01105542:    4806        .H      LDR      r0,[pc,#24] ; [0x110555c] = 0x20001af0
        0x01105544:    2101        .!      MOVS     r1,#1
        0x01105546:    7141        Aq      STRB     r1,[r0,#5]
        0x01105548:    2100        .!      MOVS     r1,#0
        0x0110554a:    7101        .q      STRB     r1,[r0,#4]
        0x0110554c:    381c        .8      SUBS     r0,r0,#0x1c
        0x0110554e:    68c0        .h      LDR      r0,[r0,#0xc]
        0x01105550:    f7fdf9f6    ....    BL       audioin_stop_record ; 0x1102940
        0x01105554:    bd10        ..      POP      {r4,pc}
    $d
        0x01105556:    0000        ..      DCW    0
        0x01105558:    20001a41    A..     DCD    536877633
        0x0110555c:    20001af0    ...     DCD    536877808
    $t
    i.stop_audio_playback
    stop_audio_playback
        0x01105560:    b510        ..      PUSH     {r4,lr}
        0x01105562:    4c03        .L      LDR      r4,[pc,#12] ; [0x1105570] = 0x20001ad4
        0x01105564:    6860        `h      LDR      r0,[r4,#4]
        0x01105566:    f7fdf813    ....    BL       audio_out_stop_playback ; 0x1102590
        0x0110556a:    2000        .       MOVS     r0,#0
        0x0110556c:    60a0        .`      STR      r0,[r4,#8]
        0x0110556e:    bd10        ..      POP      {r4,pc}
    $d
        0x01105570:    20001ad4    ...     DCD    536877780
    $t
    i.stop_i2s_tx_dma
    stop_i2s_tx_dma
        0x01105574:    b510        ..      PUSH     {r4,lr}
        0x01105576:    6801        .h      LDR      r1,[r0,#0]
        0x01105578:    6880        .h      LDR      r0,[r0,#8]
        0x0110557a:    68ca        .h      LDR      r2,[r1,#0xc]
        0x0110557c:    6800        .h      LDR      r0,[r0,#0]
        0x0110557e:    2101        .!      MOVS     r1,#1
        0x01105580:    5651        QV      LDRSB    r1,[r2,r1]
        0x01105582:    6842        Bh      LDR      r2,[r0,#4]
        0x01105584:    6992        .i      LDR      r2,[r2,#0x18]
        0x01105586:    4790        .G      BLX      r2
        0x01105588:    a001        ..      ADR      r0,{pc}+8 ; 0x1105590
        0x0110558a:    f7fbfd8d    ....    BL       $Ven$TT$L$$printk ; 0x11010a8
        0x0110558e:    bd10        ..      POP      {r4,pc}
    $d
        0x01105590:    706f7473    stop    DCD    1886352499
        0x01105594:    7332695f    _i2s    DCD    1932683615
        0x01105598:    5f78745f    _tx_    DCD    1601729631
        0x0110559c:    20616d64    dma     DCD    543255908
        0x011055a0:    0000000a    ....    DCD    10
    $t
    i.storage_clear
    storage_clear
        0x011055a4:    b510        ..      PUSH     {r4,lr}
        0x011055a6:    b0a4        ..      SUB      sp,sp,#0x90
        0x011055a8:    a405        ..      ADR      r4,{pc}+0x18 ; 0x11055c0
        0x011055aa:    2190        .!      MOVS     r1,#0x90
        0x011055ac:    4668        hF      MOV      r0,sp
        0x011055ae:    f7fbfc86    ....    BL       __aeabi_memclr ; 0x1100ebe
        0x011055b2:    2290        ."      MOVS     r2,#0x90
        0x011055b4:    4669        iF      MOV      r1,sp
        0x011055b6:    4620         F      MOV      r0,r4
        0x011055b8:    f7fbffa4    ....    BL       $Ven$TT$L$$nvram_config_set ; 0x1101504
        0x011055bc:    b024        $.      ADD      sp,sp,#0x90
        0x011055be:    bd10        ..      POP      {r4,pc}
    $d
        0x011055c0:    4b5f5442    BT_K    DCD    1264538690
        0x011055c4:    00535945    EYS.    DCD    5462341
    $t
    i.storage_init
    storage_init
        0x011055c8:    b510        ..      PUSH     {r4,lr}
        0x011055ca:    4802        .H      LDR      r0,[pc,#8] ; [0x11055d4] = 0x1106020
        0x011055cc:    f7fcf836    ..6.    BL       $Ven$TT$L$$bt_storage_register ; 0x110163c
        0x011055d0:    2000        .       MOVS     r0,#0
        0x011055d2:    bd10        ..      POP      {r4,pc}
    $d
        0x011055d4:    01106020     `..    DCD    17850400
    $t
    i.storage_read
    storage_read
        0x011055d8:    b570        p.      PUSH     {r4-r6,lr}
        0x011055da:    2400        .$      MOVS     r4,#0
        0x011055dc:    4616        .F      MOV      r6,r2
        0x011055de:    4605        .F      MOV      r5,r0
        0x011055e0:    2900        .)      CMP      r1,#0
        0x011055e2:    d004        ..      BEQ      0x11055ee ; storage_read + 22
        0x011055e4:    2901        .)      CMP      r1,#1
        0x011055e6:    d004        ..      BEQ      0x11055f2 ; storage_read + 26
        0x011055e8:    2909        .)      CMP      r1,#9
        0x011055ea:    d10d        ..      BNE      0x1105608 ; storage_read + 48
        0x011055ec:    e003        ..      B        0x11055f6 ; storage_read + 30
        0x011055ee:    a00c        ..      ADR      r0,{pc}+0x32 ; 0x1105620
        0x011055f0:    e002        ..      B        0x11055f8 ; storage_read + 32
        0x011055f2:    a00d        ..      ADR      r0,{pc}+0x36 ; 0x1105628
        0x011055f4:    e000        ..      B        0x11055f8 ; storage_read + 32
        0x011055f6:    a00f        ..      ADR      r0,{pc}+0x3e ; 0x1105634
        0x011055f8:    2800        .(      CMP      r0,#0
        0x011055fa:    d005        ..      BEQ      0x1105608 ; storage_read + 48
        0x011055fc:    461a        .F      MOV      r2,r3
        0x011055fe:    4631        1F      MOV      r1,r6
        0x01105600:    f7fbff74    ..t.    BL       $Ven$TT$L$$nvram_config_get ; 0x11014ec
        0x01105604:    0004        ..      MOVS     r4,r0
        0x01105606:    d409        ..      BMI      0x110561c ; storage_read + 68
        0x01105608:    2d00        .-      CMP      r5,#0
        0x0110560a:    d006        ..      BEQ      0x110561a ; storage_read + 66
        0x0110560c:    4631        1F      MOV      r1,r6
        0x0110560e:    4628        (F      MOV      r0,r5
        0x01105610:    f7fcfca6    ....    BL       addr_match_bt_keys ; 0x1101f60
        0x01105614:    2800        .(      CMP      r0,#0
        0x01105616:    d100        ..      BNE      0x110561a ; storage_read + 66
        0x01105618:    2400        .$      MOVS     r4,#0
        0x0110561a:    4620         F      MOV      r0,r4
        0x0110561c:    bd70        p.      POP      {r4-r6,pc}
    $d
        0x0110561e:    0000        ..      DCW    0
        0x01105620:    415f5442    BT_A    DCD    1096766530
        0x01105624:    00524444    DDR.    DCD    5391428
        0x01105628:    41434f4c    LOCA    DCD    1094930252
        0x0110562c:    52495f4c    L_IR    DCD    1380540236
        0x01105630:    0000004b    K...    DCD    75
        0x01105634:    4b5f5442    BT_K    DCD    1264538690
        0x01105638:    00535945    EYS.    DCD    5462341
    $t
    i.storage_write
    storage_write
        0x0110563c:    b5f0        ..      PUSH     {r4-r7,lr}
        0x0110563e:    2400        .$      MOVS     r4,#0
        0x01105640:    b0a5        ..      SUB      sp,sp,#0x94
        0x01105642:    461d        .F      MOV      r5,r3
        0x01105644:    4616        .F      MOV      r6,r2
        0x01105646:    2900        .)      CMP      r1,#0
        0x01105648:    d004        ..      BEQ      0x1105654 ; storage_write + 24
        0x0110564a:    2901        .)      CMP      r1,#1
        0x0110564c:    d004        ..      BEQ      0x1105658 ; storage_write + 28
        0x0110564e:    2909        .)      CMP      r1,#9
        0x01105650:    d119        ..      BNE      0x1105686 ; storage_write + 74
        0x01105652:    e001        ..      B        0x1105658 ; storage_write + 28
        0x01105654:    a70d        ..      ADR      r7,{pc}+0x38 ; 0x110568c
        0x01105656:    e00e        ..      B        0x1105676 ; storage_write + 58
        0x01105658:    a70e        ..      ADR      r7,{pc}+0x3c ; 0x1105694
        0x0110565a:    2290        ."      MOVS     r2,#0x90
        0x0110565c:    4669        iF      MOV      r1,sp
        0x0110565e:    4638        8F      MOV      r0,r7
        0x01105660:    f7fbff44    ..D.    BL       $Ven$TT$L$$nvram_config_get ; 0x11014ec
        0x01105664:    0004        ..      MOVS     r4,r0
        0x01105666:    d406        ..      BMI      0x1105676 ; storage_write + 58
        0x01105668:    2290        ."      MOVS     r2,#0x90
        0x0110566a:    4631        1F      MOV      r1,r6
        0x0110566c:    4668        hF      MOV      r0,sp
        0x0110566e:    f7fbfecb    ....    BL       $Ven$TT$L$$memcmp ; 0x1101408
        0x01105672:    2800        .(      CMP      r0,#0
        0x01105674:    d007        ..      BEQ      0x1105686 ; storage_write + 74
        0x01105676:    2f00        ./      CMP      r7,#0
        0x01105678:    d005        ..      BEQ      0x1105686 ; storage_write + 74
        0x0110567a:    462a        *F      MOV      r2,r5
        0x0110567c:    4631        1F      MOV      r1,r6
        0x0110567e:    4638        8F      MOV      r0,r7
        0x01105680:    f7fbff40    ..@.    BL       $Ven$TT$L$$nvram_config_set ; 0x1101504
        0x01105684:    4604        .F      MOV      r4,r0
        0x01105686:    4620         F      MOV      r0,r4
        0x01105688:    b025        %.      ADD      sp,sp,#0x94
        0x0110568a:    bdf0        ..      POP      {r4-r7,pc}
    $d
        0x0110568c:    415f5442    BT_A    DCD    1096766530
        0x01105690:    00524444    DDR.    DCD    5391428
        0x01105694:    4b5f5442    BT_K    DCD    1264538690
        0x01105698:    00535945    EYS.    DCD    5462341
    $t
    i.str2bt_addr
    str2bt_addr
        0x0110569c:    b5fe        ..      PUSH     {r1-r7,lr}
        0x0110569e:    460d        .F      MOV      r5,r1
        0x011056a0:    4606        .F      MOV      r6,r0
        0x011056a2:    f7fbfde5    ....    BL       $Ven$TT$L$$strlen ; 0x1101270
        0x011056a6:    2811        .(      CMP      r0,#0x11
        0x011056a8:    d12a        *.      BNE      0x1105700 ; str2bt_addr + 100
        0x011056aa:    2405        .$      MOVS     r4,#5
        0x011056ac:    2001        .       MOVS     r0,#1
        0x011056ae:    9001        ..      STR      r0,[sp,#4]
        0x011056b0:    e035        5.      B        0x110571e ; str2bt_addr + 130
        0x011056b2:    2103        .!      MOVS     r1,#3
        0x011056b4:    f7fbfe78    ..x.    BL       $Ven$TT$L$$__aeabi_idivmod ; 0x11013a8
        0x011056b8:    2900        .)      CMP      r1,#0
        0x011056ba:    d00c        ..      BEQ      0x11056d6 ; str2bt_addr + 58
        0x011056bc:    2f3a        :/      CMP      r7,#0x3a
        0x011056be:    d00c        ..      BEQ      0x11056da ; str2bt_addr + 62
        0x011056c0:    5d28        (]      LDRB     r0,[r5,r4]
        0x011056c2:    0100        ..      LSLS     r0,r0,#4
        0x011056c4:    5528        (U      STRB     r0,[r5,r4]
        0x011056c6:    7830        0x      LDRB     r0,[r6,#0]
        0x011056c8:    4602        .F      MOV      r2,r0
        0x011056ca:    3830        08      SUBS     r0,r0,#0x30
        0x011056cc:    2809        .(      CMP      r0,#9
        0x011056ce:    d806        ..      BHI      0x11056de ; str2bt_addr + 66
        0x011056d0:    4669        iF      MOV      r1,sp
        0x011056d2:    7008        .p      STRB     r0,[r1,#0]
        0x011056d4:    e011        ..      B        0x11056fa ; str2bt_addr + 94
        0x011056d6:    2f3a        :/      CMP      r7,#0x3a
        0x011056d8:    d112        ..      BNE      0x1105700 ; str2bt_addr + 100
        0x011056da:    1e64        d.      SUBS     r4,r4,#1
        0x011056dc:    e01b        ..      B        0x1105716 ; str2bt_addr + 122
        0x011056de:    4610        .F      MOV      r0,r2
        0x011056e0:    3861        a8      SUBS     r0,r0,#0x61
        0x011056e2:    2805        .(      CMP      r0,#5
        0x011056e4:    d802        ..      BHI      0x11056ec ; str2bt_addr + 80
        0x011056e6:    4668        hF      MOV      r0,sp
        0x011056e8:    3a57        W:      SUBS     r2,r2,#0x57
        0x011056ea:    e005        ..      B        0x11056f8 ; str2bt_addr + 92
        0x011056ec:    4610        .F      MOV      r0,r2
        0x011056ee:    3841        A8      SUBS     r0,r0,#0x41
        0x011056f0:    2805        .(      CMP      r0,#5
        0x011056f2:    d808        ..      BHI      0x1105706 ; str2bt_addr + 106
        0x011056f4:    4668        hF      MOV      r0,sp
        0x011056f6:    3a37        7:      SUBS     r2,r2,#0x37
        0x011056f8:    7002        .p      STRB     r2,[r0,#0]
        0x011056fa:    2000        .       MOVS     r0,#0
        0x011056fc:    2800        .(      CMP      r0,#0
        0x011056fe:    da05        ..      BGE      0x110570c ; str2bt_addr + 112
        0x01105700:    2015        .       MOVS     r0,#0x15
        0x01105702:    43c0        .C      MVNS     r0,r0
        0x01105704:    bdfe        ..      POP      {r1-r7,pc}
        0x01105706:    2015        .       MOVS     r0,#0x15
        0x01105708:    43c0        .C      MVNS     r0,r0
        0x0110570a:    e7f7        ..      B        0x11056fc ; str2bt_addr + 96
        0x0110570c:    4669        iF      MOV      r1,sp
        0x0110570e:    5d28        (]      LDRB     r0,[r5,r4]
        0x01105710:    7809        .x      LDRB     r1,[r1,#0]
        0x01105712:    4308        .C      ORRS     r0,r0,r1
        0x01105714:    5528        (U      STRB     r0,[r5,r4]
        0x01105716:    9801        ..      LDR      r0,[sp,#4]
        0x01105718:    1c40        @.      ADDS     r0,r0,#1
        0x0110571a:    1c76        v.      ADDS     r6,r6,#1
        0x0110571c:    9001        ..      STR      r0,[sp,#4]
        0x0110571e:    7837        7x      LDRB     r7,[r6,#0]
        0x01105720:    2f00        ./      CMP      r7,#0
        0x01105722:    d1c6        ..      BNE      0x11056b2 ; str2bt_addr + 22
        0x01105724:    2000        .       MOVS     r0,#0
        0x01105726:    bdfe        ..      POP      {r1-r7,pc}
    i.sys_pm_reboot
    sys_pm_reboot
        0x01105728:    b51f        ..      PUSH     {r0-r4,lr}
        0x0110572a:    4605        .F      MOV      r5,r0
        0x0110572c:    a015        ..      ADR      r0,{pc}+0x58 ; 0x1105784
        0x0110572e:    9000        ..      STR      r0,[sp,#0]
        0x01105730:    462b        +F      MOV      r3,r5
        0x01105732:    a214        ..      ADR      r2,{pc}+0x52 ; 0x1105784
        0x01105734:    a114        ..      ADR      r1,{pc}+0x54 ; 0x1105788
        0x01105736:    a016        ..      ADR      r0,{pc}+0x5a ; 0x1105790
        0x01105738:    f7fbfcb6    ....    BL       $Ven$TT$L$$printk ; 0x11010a8
        0x0110573c:    a01d        ..      ADR      r0,{pc}+0x78 ; 0x11057b4
        0x0110573e:    f7fdfbc9    ....    BL       device_get_binding ; 0x1102ed4
        0x01105742:    0004        ..      MOVS     r4,r0
        0x01105744:    d016        ..      BEQ      0x1105774 ; sys_pm_reboot + 76
        0x01105746:    2064        d       MOVS     r0,#0x64
        0x01105748:    9001        ..      STR      r0,[sp,#4]
        0x0110574a:    2000        .       MOVS     r0,#0
        0x0110574c:    4669        iF      MOV      r1,sp
        0x0110574e:    7208        .r      STRB     r0,[r1,#8]
        0x01105750:    f7fbfb82    ....    BL       _arch_irq_lock_s ; 0x1100e58
        0x01105754:    481a        .H      LDR      r0,[pc,#104] ; [0x11057c0] = 0x40004038
        0x01105756:    491b        .I      LDR      r1,[pc,#108] ; [0x11057c4] = 0x544f4252
        0x01105758:    6001        .`      STR      r1,[r0,#0]
        0x0110575a:    0a29        ).      LSRS     r1,r5,#8
        0x0110575c:    0209        ..      LSLS     r1,r1,#8
        0x0110575e:    6041        A`      STR      r1,[r0,#4]
        0x01105760:    6862        bh      LDR      r2,[r4,#4]
        0x01105762:    4620         F      MOV      r0,r4
        0x01105764:    68d2        .h      LDR      r2,[r2,#0xc]
        0x01105766:    a901        ..      ADD      r1,sp,#4
        0x01105768:    4790        .G      BLX      r2
        0x0110576a:    6861        ah      LDR      r1,[r4,#4]
        0x0110576c:    4620         F      MOV      r0,r4
        0x0110576e:    6809        .h      LDR      r1,[r1,#0]
        0x01105770:    4788        .G      BLX      r1
        0x01105772:    e7fe        ..      B        0x1105772 ; sys_pm_reboot + 74
        0x01105774:    a303        ..      ADR      r3,{pc}+0x10 ; 0x1105784
        0x01105776:    a203        ..      ADR      r2,{pc}+0xe ; 0x1105784
        0x01105778:    a103        ..      ADR      r1,{pc}+0x10 ; 0x1105788
        0x0110577a:    a013        ..      ADR      r0,{pc}+0x4e ; 0x11057c8
        0x0110577c:    f7fbfc94    ....    BL       $Ven$TT$L$$printk ; 0x11010a8
        0x01105780:    e7fe        ..      B        0x1105780 ; sys_pm_reboot + 88
    $d
        0x01105782:    0000        ..      DCW    0
        0x01105784:    00000000    ....    DCD    0
        0x01105788:    65776f70    powe    DCD    1702326128
        0x0110578c:    00000072    r...    DCD    114
        0x01105790:    5d73255b    [%s]    DCD    1567827291
        0x01105794:    73732520     %ss    DCD    1936925984
        0x01105798:    65747379    yste    DCD    1702130553
        0x0110579c:    6572206d    m re    DCD    1701978221
        0x011057a0:    746f6f62    boot    DCD    1953460066
        0x011057a4:    7974202c    , ty    DCD    2037653548
        0x011057a8:    25206570    pe %    DCD    622880112
        0x011057ac:    73252164    d!%s    DCD    1931813220
        0x011057b0:    0000000a    ....    DCD    10
        0x011057b4:    43544157    WATC    DCD    1129595223
        0x011057b8:    474f4448    HDOG    DCD    1196377160
        0x011057bc:    00000000    ....    DCD    0
        0x011057c0:    40004038    8@.@    DCD    1073758264
        0x011057c4:    544f4252    RBOT    DCD    1414480466
        0x011057c8:    5d73255b    [%s]    DCD    1567827291
        0x011057cc:    63732520     %sc    DCD    1668490528
        0x011057d0:    6f6e6e61    anno    DCD    1869508193
        0x011057d4:    6f662074    t fo    DCD    1868963956
        0x011057d8:    20646e75    und     DCD    543452789
        0x011057dc:    63746177    watc    DCD    1668571511
        0x011057e0:    676f6468    hdog    DCD    1735353448
        0x011057e4:    76656420     dev    DCD    1986356256
        0x011057e8:    2c656369    ice,    DCD    744842089
        0x011057ec:    69616620     fai    DCD    1767990816
        0x011057f0:    2064656c    led     DCD    543450476
        0x011057f4:    72206f74    to r    DCD    1914728308
        0x011057f8:    6f6f6265    eboo    DCD    1869570661
        0x011057fc:    0a732574    t%s.    DCD    175318388
        0x01105800:    00000000    ....    DCD    0
    $t
    i.sys_version_get
    sys_version_get
        0x01105804:    b50e        ..      PUSH     {r1-r3,lr}
        0x01105806:    220a        ."      MOVS     r2,#0xa
        0x01105808:    2116        .!      MOVS     r1,#0x16
        0x0110580a:    2001        .       MOVS     r0,#1
        0x0110580c:    9202        ..      STR      r2,[sp,#8]
        0x0110580e:    9101        ..      STR      r1,[sp,#4]
        0x01105810:    9000        ..      STR      r0,[sp,#0]
        0x01105812:    2313        .#      MOVS     r3,#0x13
        0x01105814:    a203        ..      ADR      r2,{pc}+0x10 ; 0x1105824
        0x01105816:    2110        .!      MOVS     r1,#0x10
        0x01105818:    4808        .H      LDR      r0,[pc,#32] ; [0x110583c] = 0x20001ac4
        0x0110581a:    f7fbff15    ....    BL       $Ven$TT$L$$snprintf_rom ; 0x1101648
        0x0110581e:    4807        .H      LDR      r0,[pc,#28] ; [0x110583c] = 0x20001ac4
        0x01105820:    bd0e        ..      POP      {r1-r3,pc}
    $d
        0x01105822:    0000        ..      DCW    0
        0x01105824:    2e302e32    2.0.    DCD    774909490
        0x01105828:    252e3030    00.%    DCD    623783984
        0x0110582c:    25643230    02d%    DCD    627323440
        0x01105830:    25643230    02d%    DCD    627323440
        0x01105834:    25643230    02d%    DCD    627323440
        0x01105838:    00643230    02d.    DCD    6566448
        0x0110583c:    20001ac4    ...     DCD    536877764
    $t
    i.system_app_timer_event_handle
    system_app_timer_event_handle
        0x01105840:    b508        ..      PUSH     {r3,lr}
        0x01105842:    0003        ..      MOVS     r3,r0
        0x01105844:    f7fcf8e1    ....    BL       __ARM_common_switch8 ; 0x1101a0a
    $d
        0x01105848:    08060406    ....    DCD    134611974
        0x0110584c:    271c160a    ...'    DCD    656152074
    $t
        0x01105850:    2006        .       MOVS     r0,#6
        0x01105852:    e012        ..      B        0x110587a ; system_app_timer_event_handle + 58
        0x01105854:    2007        .       MOVS     r0,#7
        0x01105856:    e010        ..      B        0x110587a ; system_app_timer_event_handle + 58
        0x01105858:    2008        .       MOVS     r0,#8
        0x0110585a:    e00e        ..      B        0x110587a ; system_app_timer_event_handle + 58
        0x0110585c:    f7fffa02    ....    BL       rmc_sm_state_is_activing ; 0x1104c64
        0x01105860:    2800        .(      CMP      r0,#0
        0x01105862:    d106        ..      BNE      0x1105872 ; system_app_timer_event_handle + 50
        0x01105864:    f000f986    ....    BL       update_battry_value ; 0x1105b74
        0x01105868:    f7fdf888    ....    BL       bas_notify ; 0x110297c
        0x0110586c:    2003        .       MOVS     r0,#3
        0x0110586e:    f7fffa03    ....    BL       rmc_timer_start ; 0x1104c78
        0x01105872:    bd08        ..      POP      {r3,pc}
        0x01105874:    f7feffdc    ....    BL       rmc_clear_pair_info ; 0x1104830
        0x01105878:    200b        .       MOVS     r0,#0xb
        0x0110587a:    f7fff9af    ....    BL       rmc_sm_execute ; 0x1104bdc
        0x0110587e:    bd08        ..      POP      {r3,pc}
        0x01105880:    a309        ..      ADR      r3,{pc}+0x28 ; 0x11058a8
        0x01105882:    a209        ..      ADR      r2,{pc}+0x26 ; 0x11058a8
        0x01105884:    a109        ..      ADR      r1,{pc}+0x28 ; 0x11058ac
        0x01105886:    a00b        ..      ADR      r0,{pc}+0x2e ; 0x11058b4
        0x01105888:    f7fbfc0e    ....    BL       $Ven$TT$L$$printk ; 0x11010a8
        0x0110588c:    2009        .       MOVS     r0,#9
        0x0110588e:    0240        @.      LSLS     r0,r0,#9
        0x01105890:    f7ffff4a    ..J.    BL       sys_pm_reboot ; 0x1105728
        0x01105894:    bd08        ..      POP      {r3,pc}
        0x01105896:    a104        ..      ADR      r1,{pc}+0x12 ; 0x11058a8
        0x01105898:    4603        .F      MOV      r3,r0
        0x0110589a:    9100        ..      STR      r1,[sp,#0]
        0x0110589c:    a202        ..      ADR      r2,{pc}+0xc ; 0x11058a8
        0x0110589e:    a103        ..      ADR      r1,{pc}+0xe ; 0x11058ac
        0x011058a0:    a00c        ..      ADR      r0,{pc}+0x34 ; 0x11058d4
        0x011058a2:    f7fbfc01    ....    BL       $Ven$TT$L$$printk ; 0x11010a8
        0x011058a6:    bd08        ..      POP      {r3,pc}
    $d
        0x011058a8:    00000000    ....    DCD    0
        0x011058ac:    656d6974    time    DCD    1701669236
        0x011058b0:    00000072    r...    DCD    114
        0x011058b4:    5d73255b    [%s]    DCD    1567827291
        0x011058b8:    65732520     %se    DCD    1702044960
        0x011058bc:    7265746e    nter    DCD    1919251566
        0x011058c0:    746e6920     int    DCD    1953392928
        0x011058c4:    6368206f    o hc    DCD    1667768431
        0x011058c8:    6f6d2069    i mo    DCD    1869422697
        0x011058cc:    73256564    de%s    DCD    1931830628
        0x011058d0:    0000000a    ....    DCD    10
        0x011058d4:    5d73255b    [%s]    DCD    1567827291
        0x011058d8:    65732520     %se    DCD    1702044960
        0x011058dc:    726f7272    rror    DCD    1919906418
        0x011058e0:    6b6e7520     unk    DCD    1802401056
        0x011058e4:    206e776f    own     DCD    544110447
        0x011058e8:    656d6974    time    DCD    1701669236
        0x011058ec:    76652072    r ev    DCD    1986338930
        0x011058f0:    20746e65    ent     DCD    544501349
        0x011058f4:    73256425    %d%s    DCD    1931830309
        0x011058f8:    0000000a    ....    DCD    10
    $t
    i.system_audio_event_handle
    system_audio_event_handle
        0x011058fc:    b5f8        ..      PUSH     {r3-r7,lr}
        0x011058fe:    4604        .F      MOV      r4,r0
        0x01105900:    4d16        .M      LDR      r5,[pc,#88] ; [0x110595c] = 0x20002bc4
        0x01105902:    f7fff9af    ....    BL       rmc_sm_state_is_activing ; 0x1104c64
        0x01105906:    2800        .(      CMP      r0,#0
        0x01105908:    d105        ..      BNE      0x1105916 ; system_audio_event_handle + 26
        0x0110590a:    f7fcff1d    ....    BL       audio_send_start_flag ; 0x1102748
        0x0110590e:    f7fcfcab    ....    BL       audio_need_drop_buffer ; 0x1102268
        0x01105912:    2800        .(      CMP      r0,#0
        0x01105914:    d003        ..      BEQ      0x110591e ; system_audio_event_handle + 34
        0x01105916:    4620         F      MOV      r0,r4
        0x01105918:    f7fefe48    ..H.    BL       pcm_buffer_free ; 0x11045ac
        0x0110591c:    bdf8        ..      POP      {r3-r7,pc}
        0x0110591e:    4629        )F      MOV      r1,r5
        0x01105920:    4620         F      MOV      r0,r4
        0x01105922:    f7fcfc75    ..u.    BL       audio_encode ; 0x1102210
        0x01105926:    4605        .F      MOV      r5,r0
        0x01105928:    480d        .H      LDR      r0,[pc,#52] ; [0x1105960] = 0x20001ad4
        0x0110592a:    6981        .i      LDR      r1,[r0,#0x18]
        0x0110592c:    1949        I.      ADDS     r1,r1,r5
        0x0110592e:    6181        .a      STR      r1,[r0,#0x18]
        0x01105930:    4620         F      MOV      r0,r4
        0x01105932:    f7fefe3b    ..;.    BL       pcm_buffer_free ; 0x11045ac
        0x01105936:    2400        .$      MOVS     r4,#0
        0x01105938:    4e08        .N      LDR      r6,[pc,#32] ; [0x110595c] = 0x20002bc4
        0x0110593a:    e009        ..      B        0x1105950 ; system_audio_event_handle + 84
        0x0110593c:    1930        0.      ADDS     r0,r6,r4
        0x0110593e:    4607        .F      MOV      r7,r0
        0x01105940:    f7fdfca8    ....    BL       hid_app_voice_report_event ; 0x1103294
        0x01105944:    4638        8F      MOV      r0,r7
        0x01105946:    2114        .!      MOVS     r1,#0x14
        0x01105948:    f000fa40    ..@.    BL       write_data_to_storage ; 0x1105dcc
        0x0110594c:    3414        .4      ADDS     r4,r4,#0x14
        0x0110594e:    b2a4        ..      UXTH     r4,r4
        0x01105950:    42ac        .B      CMP      r4,r5
        0x01105952:    d3f3        ..      BCC      0x110593c ; system_audio_event_handle + 64
        0x01105954:    f7fcff46    ..F.    BL       audio_send_stop_flag ; 0x11027e4
        0x01105958:    bdf8        ..      POP      {r3-r7,pc}
    $d
        0x0110595a:    0000        ..      DCW    0
        0x0110595c:    20002bc4    .+.     DCD    536882116
        0x01105960:    20001ad4    ...     DCD    536877780
    $t
    i.system_ble_event_handle
    system_ble_event_handle
        0x01105964:    b510        ..      PUSH     {r4,lr}
        0x01105966:    4a03        .J      LDR      r2,[pc,#12] ; [0x1105974] = 0x20005ac0
        0x01105968:    2100        .!      MOVS     r1,#0
        0x0110596a:    72d1        .r      STRB     r1,[r2,#0xb]
        0x0110596c:    b2c0        ..      UXTB     r0,r0
        0x0110596e:    f7fff935    ..5.    BL       rmc_sm_execute ; 0x1104bdc
        0x01105972:    bd10        ..      POP      {r4,pc}
    $d
        0x01105974:    20005ac0    .Z.     DCD    536894144
    $t
    i.system_input_event_handle
    system_input_event_handle
        0x01105978:    b510        ..      PUSH     {r4,lr}
        0x0110597a:    4604        .F      MOV      r4,r0
        0x0110597c:    2000        .       MOVS     r0,#0
        0x0110597e:    f7fff92d    ..-.    BL       rmc_sm_execute ; 0x1104bdc
        0x01105982:    4621        !F      MOV      r1,r4
        0x01105984:    a005        ..      ADR      r0,{pc}+0x18 ; 0x110599c
        0x01105986:    f7fbfb8f    ....    BL       $Ven$TT$L$$printk ; 0x11010a8
        0x0110598a:    4620         F      MOV      r0,r4
        0x0110598c:    f7fdfe02    ....    BL       is_need_deliver_to_app ; 0x1103594
        0x01105990:    2800        .(      CMP      r0,#0
        0x01105992:    d002        ..      BEQ      0x110599a ; system_input_event_handle + 34
        0x01105994:    4620         F      MOV      r0,r4
        0x01105996:    f7fffa31    ..1.    BL       send_ble_keycode ; 0x1104dfc
        0x0110599a:    bd10        ..      POP      {r4,pc}
    $d
        0x0110599c:    5f79656b    key_    DCD    1601791339
        0x011059a0:    6e657665    even    DCD    1852143205
        0x011059a4:    73692074    t is    DCD    1936269428
        0x011059a8:    0a782520     %x.    DCD    175645984
        0x011059ac:    00000000    ....    DCD    0
    $t
    i.timer_acts_callback_set
    timer_acts_callback_set
        0x011059b0:    6880        .h      LDR      r0,[r0,#8]
        0x011059b2:    6001        .`      STR      r1,[r0,#0]
        0x011059b4:    4770        pG      BX       lr
        0x011059b6:    0000        ..      MOVS     r0,r0
    i.timer_acts_config_irq
    timer_acts_config_irq
        0x011059b8:    b510        ..      PUSH     {r4,lr}
        0x011059ba:    6800        .h      LDR      r0,[r0,#0]
        0x011059bc:    4909        .I      LDR      r1,[pc,#36] ; [0x11059e4] = 0x20001740
        0x011059be:    68c4        .h      LDR      r4,[r0,#0xc]
        0x011059c0:    6960        `i      LDR      r0,[r4,#0x14]
        0x011059c2:    00c2        ..      LSLS     r2,r0,#3
        0x011059c4:    4808        .H      LDR      r0,[pc,#32] ; [0x11059e8] = 0x200059b0
        0x011059c6:    5081        .P      STR      r1,[r0,r2]
        0x011059c8:    6962        bi      LDR      r2,[r4,#0x14]
        0x011059ca:    4908        .I      LDR      r1,[pc,#32] ; [0x11059ec] = 0x1105a19
        0x011059cc:    00d2        ..      LSLS     r2,r2,#3
        0x011059ce:    1810        ..      ADDS     r0,r2,r0
        0x011059d0:    6041        A`      STR      r1,[r0,#4]
        0x011059d2:    2200        ."      MOVS     r2,#0
        0x011059d4:    2101        .!      MOVS     r1,#1
        0x011059d6:    6960        `i      LDR      r0,[r4,#0x14]
        0x011059d8:    f7fbfb96    ....    BL       $Ven$TT$L$$_irq_priority_set ; 0x1101108
        0x011059dc:    6960        `i      LDR      r0,[r4,#0x14]
        0x011059de:    f7fbfbcf    ....    BL       $Ven$TT$L$$_arch_irq_enable ; 0x1101180
        0x011059e2:    bd10        ..      POP      {r4,pc}
    $d
        0x011059e4:    20001740    @..     DCD    536876864
        0x011059e8:    200059b0    .Y.     DCD    536893872
        0x011059ec:    01105a19    .Z..    DCD    17848857
    $t
    i.timer_acts_init
    timer_acts_init
        0x011059f0:    b570        p.      PUSH     {r4-r6,lr}
        0x011059f2:    4606        .F      MOV      r6,r0
        0x011059f4:    6800        .h      LDR      r0,[r0,#0]
        0x011059f6:    2522        "%      MOVS     r5,#0x22
        0x011059f8:    68c4        .h      LDR      r4,[r0,#0xc]
        0x011059fa:    68a0        .h      LDR      r0,[r4,#8]
        0x011059fc:    f7fbfda6    ....    BL       $Ven$TT$L$$acts_clock_peripheral_enable ; 0x110154c
        0x01105a00:    6921        !i      LDR      r1,[r4,#0x10]
        0x01105a02:    6860        `h      LDR      r0,[r4,#4]
        0x01105a04:    4308        .C      ORRS     r0,r0,r1
        0x01105a06:    68e1        .h      LDR      r1,[r4,#0xc]
        0x01105a08:    6008        .`      STR      r0,[r1,#0]
        0x01105a0a:    6a21        !j      LDR      r1,[r4,#0x20]
        0x01105a0c:    4630        0F      MOV      r0,r6
        0x01105a0e:    4788        .G      BLX      r1
        0x01105a10:    6820         h      LDR      r0,[r4,#0]
        0x01105a12:    6005        .`      STR      r5,[r0,#0]
        0x01105a14:    2000        .       MOVS     r0,#0
        0x01105a16:    bd70        p.      POP      {r4-r6,pc}
    i.timer_acts_isr
    timer_acts_isr
        0x01105a18:    b5f8        ..      PUSH     {r3-r7,lr}
        0x01105a1a:    4605        .F      MOV      r5,r0
        0x01105a1c:    6800        .h      LDR      r0,[r0,#0]
        0x01105a1e:    68ae        .h      LDR      r6,[r5,#8]
        0x01105a20:    68c4        .h      LDR      r4,[r0,#0xc]
        0x01105a22:    4628        (F      MOV      r0,r5
        0x01105a24:    69e1        .i      LDR      r1,[r4,#0x1c]
        0x01105a26:    f7fcf80d    ....    BL       _ms_to_cycle ; 0x1101a44
        0x01105a2a:    9000        ..      STR      r0,[sp,#0]
        0x01105a2c:    6820         h      LDR      r0,[r4,#0]
        0x01105a2e:    6801        .h      LDR      r1,[r0,#0]
        0x01105a30:    2201        ."      MOVS     r2,#1
        0x01105a32:    4311        .C      ORRS     r1,r1,r2
        0x01105a34:    6001        .`      STR      r1,[r0,#0]
        0x01105a36:    69e0        .i      LDR      r0,[r4,#0x1c]
        0x01105a38:    2800        .(      CMP      r0,#0
        0x01105a3a:    d004        ..      BEQ      0x1105a46 ; timer_acts_isr + 46
        0x01105a3c:    4628        (F      MOV      r0,r5
        0x01105a3e:    9900        ..      LDR      r1,[sp,#0]
        0x01105a40:    f000f832    ..2.    BL       timer_reload ; 0x1105aa8
        0x01105a44:    e002        ..      B        0x1105a4c ; timer_acts_isr + 52
        0x01105a46:    6821        !h      LDR      r1,[r4,#0]
        0x01105a48:    2000        .       MOVS     r0,#0
        0x01105a4a:    6008        .`      STR      r0,[r1,#0]
        0x01105a4c:    6831        1h      LDR      r1,[r6,#0]
        0x01105a4e:    2900        .)      CMP      r1,#0
        0x01105a50:    d001        ..      BEQ      0x1105a56 ; timer_acts_isr + 62
        0x01105a52:    4628        (F      MOV      r0,r5
        0x01105a54:    4788        .G      BLX      r1
        0x01105a56:    bdf8        ..      POP      {r3-r7,pc}
    i.timer_acts_start
    timer_acts_start
        0x01105a58:    b538        8.      PUSH     {r3-r5,lr}
        0x01105a5a:    4605        .F      MOV      r5,r0
        0x01105a5c:    6800        .h      LDR      r0,[r0,#0]
        0x01105a5e:    68c0        .h      LDR      r0,[r0,#0xc]
        0x01105a60:    61c2        .a      STR      r2,[r0,#0x1c]
        0x01105a62:    6181        .a      STR      r1,[r0,#0x18]
        0x01105a64:    4628        (F      MOV      r0,r5
        0x01105a66:    f7fbffed    ....    BL       _ms_to_cycle ; 0x1101a44
        0x01105a6a:    9000        ..      STR      r0,[sp,#0]
        0x01105a6c:    f7fbf9f4    ....    BL       _arch_irq_lock_s ; 0x1100e58
        0x01105a70:    4604        .F      MOV      r4,r0
        0x01105a72:    4628        (F      MOV      r0,r5
        0x01105a74:    9900        ..      LDR      r1,[sp,#0]
        0x01105a76:    f000f817    ....    BL       timer_reload ; 0x1105aa8
        0x01105a7a:    4620         F      MOV      r0,r4
        0x01105a7c:    f7fbf9f0    ....    BL       _arch_irq_unlock_s ; 0x1100e60
        0x01105a80:    2000        .       MOVS     r0,#0
        0x01105a82:    bd38        8.      POP      {r3-r5,pc}
    i.timer_acts_stop
    timer_acts_stop
        0x01105a84:    b510        ..      PUSH     {r4,lr}
        0x01105a86:    6800        .h      LDR      r0,[r0,#0]
        0x01105a88:    68c4        .h      LDR      r4,[r0,#0xc]
        0x01105a8a:    f7fbf9e5    ....    BL       _arch_irq_lock_s ; 0x1100e58
        0x01105a8e:    6822        "h      LDR      r2,[r4,#0]
        0x01105a90:    2100        .!      MOVS     r1,#0
        0x01105a92:    6011        .`      STR      r1,[r2,#0]
        0x01105a94:    f7fbf9e4    ....    BL       _arch_irq_unlock_s ; 0x1100e60
        0x01105a98:    2000        .       MOVS     r0,#0
        0x01105a9a:    bd10        ..      POP      {r4,pc}
    i.timer_acts_user_data_get
    timer_acts_user_data_get
        0x01105a9c:    6880        .h      LDR      r0,[r0,#8]
        0x01105a9e:    6840        @h      LDR      r0,[r0,#4]
        0x01105aa0:    4770        pG      BX       lr
    i.timer_acts_user_data_set
    timer_acts_user_data_set
        0x01105aa2:    6880        .h      LDR      r0,[r0,#8]
        0x01105aa4:    6041        A`      STR      r1,[r0,#4]
        0x01105aa6:    4770        pG      BX       lr
    i.timer_reload
    timer_reload
        0x01105aa8:    b510        ..      PUSH     {r4,lr}
        0x01105aaa:    6800        .h      LDR      r0,[r0,#0]
        0x01105aac:    68c0        .h      LDR      r0,[r0,#0xc]
        0x01105aae:    6802        .h      LDR      r2,[r0,#0]
        0x01105ab0:    6051        Q`      STR      r1,[r2,#4]
        0x01105ab2:    6802        .h      LDR      r2,[r0,#0]
        0x01105ab4:    2326        &#      MOVS     r3,#0x26
        0x01105ab6:    6814        .h      LDR      r4,[r2,#0]
        0x01105ab8:    6051        Q`      STR      r1,[r2,#4]
        0x01105aba:    6800        .h      LDR      r0,[r0,#0]
        0x01105abc:    6003        .`      STR      r3,[r0,#0]
        0x01105abe:    bd10        ..      POP      {r4,pc}
    i.uart_acts_resume_device_from_suspend
    uart_acts_resume_device_from_suspend
        0x01105ac0:    b570        p.      PUSH     {r4-r6,lr}
        0x01105ac2:    6884        .h      LDR      r4,[r0,#8]
        0x01105ac4:    4605        .F      MOV      r5,r0
        0x01105ac6:    68a0        .h      LDR      r0,[r4,#8]
        0x01105ac8:    f7fbfc7a    ..z.    BL       $Ven$TT$L$$acts_reset_peripheral ; 0x11013c0
        0x01105acc:    6860        `h      LDR      r0,[r4,#4]
        0x01105ace:    f7fbfd3d    ..=.    BL       $Ven$TT$L$$acts_clock_peripheral_enable ; 0x110154c
        0x01105ad2:    6828        (h      LDR      r0,[r5,#0]
        0x01105ad4:    6921        !i      LDR      r1,[r4,#0x10]
        0x01105ad6:    68c0        .h      LDR      r0,[r0,#0xc]
        0x01105ad8:    6800        .h      LDR      r0,[r0,#0]
        0x01105ada:    6101        .a      STR      r1,[r0,#0x10]
        0x01105adc:    6829        )h      LDR      r1,[r5,#0]
        0x01105ade:    68e0        .h      LDR      r0,[r4,#0xc]
        0x01105ae0:    68c9        .h      LDR      r1,[r1,#0xc]
        0x01105ae2:    6809        .h      LDR      r1,[r1,#0]
        0x01105ae4:    6008        .`      STR      r0,[r1,#0]
        0x01105ae6:    2000        .       MOVS     r0,#0
        0x01105ae8:    bd70        p.      POP      {r4-r6,pc}
    i.uart_acts_suspend_device
    uart_acts_suspend_device
        0x01105aea:    b510        ..      PUSH     {r4,lr}
        0x01105aec:    6802        .h      LDR      r2,[r0,#0]
        0x01105aee:    6881        .h      LDR      r1,[r0,#8]
        0x01105af0:    68d2        .h      LDR      r2,[r2,#0xc]
        0x01105af2:    6812        .h      LDR      r2,[r2,#0]
        0x01105af4:    6812        .h      LDR      r2,[r2,#0]
        0x01105af6:    60ca        .`      STR      r2,[r1,#0xc]
        0x01105af8:    6800        .h      LDR      r0,[r0,#0]
        0x01105afa:    68c0        .h      LDR      r0,[r0,#0xc]
        0x01105afc:    6800        .h      LDR      r0,[r0,#0]
        0x01105afe:    6900        .i      LDR      r0,[r0,#0x10]
        0x01105b00:    6108        .a      STR      r0,[r1,#0x10]
        0x01105b02:    6848        Hh      LDR      r0,[r1,#4]
        0x01105b04:    f7fbfd28    ..(.    BL       $Ven$TT$L$$acts_clock_peripheral_disable ; 0x1101558
        0x01105b08:    2000        .       MOVS     r0,#0
        0x01105b0a:    bd10        ..      POP      {r4,pc}
    i.uart_console_init_new
    uart_console_init_new
        0x01105b0c:    b510        ..      PUSH     {r4,lr}
        0x01105b0e:    4a05        .J      LDR      r2,[pc,#20] ; [0x1105b24] = 0x20000228
        0x01105b10:    a102        ..      ADR      r1,{pc}+0xc ; 0x1105b1c
        0x01105b12:    6011        .`      STR      r1,[r2,#0]
        0x01105b14:    f7fbfd9e    ....    BL       $Ven$TT$L$$uart_console_init ; 0x1101654
        0x01105b18:    bd10        ..      POP      {r4,pc}
    $d
        0x01105b1a:    0000        ..      DCW    0
        0x01105b1c:    54524155    UART    DCD    1414676821
        0x01105b20:    0000305f    _0..    DCD    12383
        0x01105b24:    20000228    (..     DCD    536871464
    $t
    i.uart_device_ctrl
    uart_device_ctrl
        0x01105b28:    b510        ..      PUSH     {r4,lr}
        0x01105b2a:    2901        .)      CMP      r1,#1
        0x01105b2c:    d104        ..      BNE      0x1105b38 ; uart_device_ctrl + 16
        0x01105b2e:    6811        .h      LDR      r1,[r2,#0]
        0x01105b30:    2903        .)      CMP      r1,#3
        0x01105b32:    d003        ..      BEQ      0x1105b3c ; uart_device_ctrl + 20
        0x01105b34:    2901        .)      CMP      r1,#1
        0x01105b36:    d004        ..      BEQ      0x1105b42 ; uart_device_ctrl + 26
        0x01105b38:    2000        .       MOVS     r0,#0
        0x01105b3a:    bd10        ..      POP      {r4,pc}
        0x01105b3c:    f7ffffd5    ....    BL       uart_acts_suspend_device ; 0x1105aea
        0x01105b40:    bd10        ..      POP      {r4,pc}
        0x01105b42:    f7ffffbd    ....    BL       uart_acts_resume_device_from_suspend ; 0x1105ac0
        0x01105b46:    bd10        ..      POP      {r4,pc}
    i.update_adckey_map
    update_adckey_map
        0x01105b48:    b5f7        ..      PUSH     {r0-r2,r4-r7,lr}
        0x01105b4a:    4616        .F      MOV      r6,r2
        0x01105b4c:    460d        .F      MOV      r5,r1
        0x01105b4e:    2400        .$      MOVS     r4,#0
        0x01105b50:    e00d        ..      B        0x1105b6e ; update_adckey_map + 38
        0x01105b52:    4620         F      MOV      r0,r4
        0x01105b54:    2106        .!      MOVS     r1,#6
        0x01105b56:    4348        HC      MULS     r0,r1,r0
        0x01105b58:    4607        .F      MOV      r7,r0
        0x01105b5a:    5be8        .[      LDRH     r0,[r5,r7]
        0x01105b5c:    9900        ..      LDR      r1,[sp,#0]
        0x01105b5e:    4348        HC      MULS     r0,r1,r0
        0x01105b60:    217d        }!      MOVS     r1,#0x7d
        0x01105b62:    00c9        ..      LSLS     r1,r1,#3
        0x01105b64:    f7fbfc20    .. .    BL       $Ven$TT$L$$__aeabi_idivmod ; 0x11013a8
        0x01105b68:    1979        y.      ADDS     r1,r7,r5
        0x01105b6a:    8048        H.      STRH     r0,[r1,#2]
        0x01105b6c:    1c64        d.      ADDS     r4,r4,#1
        0x01105b6e:    42b4        .B      CMP      r4,r6
        0x01105b70:    dbef        ..      BLT      0x1105b52 ; update_adckey_map + 10
        0x01105b72:    bdfe        ..      POP      {r1-r7,pc}
    i.update_battry_value
    update_battry_value
        0x01105b74:    b570        p.      PUSH     {r4-r6,lr}
        0x01105b76:    b088        ..      SUB      sp,sp,#0x20
        0x01105b78:    a028        (.      ADR      r0,{pc}+0xa4 ; 0x1105c1c
        0x01105b7a:    f7fdf9ab    ....    BL       device_get_binding ; 0x1102ed4
        0x01105b7e:    0004        ..      MOVS     r4,r0
        0x01105b80:    d032        2.      BEQ      0x1105be8 ; update_battry_value + 116
        0x01105b82:    a906        ..      ADD      r1,sp,#0x18
        0x01105b84:    9103        ..      STR      r1,[sp,#0xc]
        0x01105b86:    2104        .!      MOVS     r1,#4
        0x01105b88:    2000        .       MOVS     r0,#0
        0x01105b8a:    9104        ..      STR      r1,[sp,#0x10]
        0x01105b8c:    9002        ..      STR      r0,[sp,#8]
        0x01105b8e:    4669        iF      MOV      r1,sp
        0x01105b90:    7508        .u      STRB     r0,[r1,#0x14]
        0x01105b92:    a802        ..      ADD      r0,sp,#8
        0x01105b94:    9000        ..      STR      r0,[sp,#0]
        0x01105b96:    2001        .       MOVS     r0,#1
        0x01105b98:    7108        .q      STRB     r0,[r1,#4]
        0x01105b9a:    6861        ah      LDR      r1,[r4,#4]
        0x01105b9c:    4620         F      MOV      r0,r4
        0x01105b9e:    6809        .h      LDR      r1,[r1,#0]
        0x01105ba0:    4788        .G      BLX      r1
        0x01105ba2:    6862        bh      LDR      r2,[r4,#4]
        0x01105ba4:    4620         F      MOV      r0,r4
        0x01105ba6:    6892        .h      LDR      r2,[r2,#8]
        0x01105ba8:    4669        iF      MOV      r1,sp
        0x01105baa:    4790        .G      BLX      r2
        0x01105bac:    9903        ..      LDR      r1,[sp,#0xc]
        0x01105bae:    9803        ..      LDR      r0,[sp,#0xc]
        0x01105bb0:    7849        Ix      LDRB     r1,[r1,#1]
        0x01105bb2:    7800        .x      LDRB     r0,[r0,#0]
        0x01105bb4:    0209        ..      LSLS     r1,r1,#8
        0x01105bb6:    1840        @.      ADDS     r0,r0,r1
        0x01105bb8:    21e1        .!      MOVS     r1,#0xe1
        0x01105bba:    0289        ..      LSLS     r1,r1,#10
        0x01105bbc:    4348        HC      MULS     r0,r1,r0
        0x01105bbe:    0c00        ..      LSRS     r0,r0,#16
        0x01105bc0:    4d18        .M      LDR      r5,[pc,#96] ; [0x1105c24] = 0x20001ac0
        0x01105bc2:    217d        }!      MOVS     r1,#0x7d
        0x01105bc4:    0109        ..      LSLS     r1,r1,#4
        0x01105bc6:    8068        h.      STRH     r0,[r5,#2]
        0x01105bc8:    4288        .B      CMP      r0,r1
        0x01105bca:    d801        ..      BHI      0x1105bd0 ; update_battry_value + 92
        0x01105bcc:    f7fdffac    ....    BL       low_power_led_indication ; 0x1103b28
        0x01105bd0:    8868        h.      LDRH     r0,[r5,#2]
        0x01105bd2:    26e1        .&      MOVS     r6,#0xe1
        0x01105bd4:    00f6        ..      LSLS     r6,r6,#3
        0x01105bd6:    42b0        .B      CMP      r0,r6
        0x01105bd8:    d801        ..      BHI      0x1105bde ; update_battry_value + 106
        0x01105bda:    f000f851    ..Q.    BL       very_low_power_handler ; 0x1105c80
        0x01105bde:    8868        h.      LDRH     r0,[r5,#2]
        0x01105be0:    42b0        .B      CMP      r0,r6
        0x01105be2:    d809        ..      BHI      0x1105bf8 ; update_battry_value + 132
        0x01105be4:    806e        n.      STRH     r6,[r5,#2]
        0x01105be6:    e00b        ..      B        0x1105c00 ; update_battry_value + 140
        0x01105be8:    a30f        ..      ADR      r3,{pc}+0x40 ; 0x1105c28
        0x01105bea:    a20f        ..      ADR      r2,{pc}+0x3e ; 0x1105c28
        0x01105bec:    a10f        ..      ADR      r1,{pc}+0x40 ; 0x1105c2c
        0x01105bee:    a011        ..      ADR      r0,{pc}+0x46 ; 0x1105c34
        0x01105bf0:    f7fbfa5a    ..Z.    BL       $Ven$TT$L$$printk ; 0x11010a8
        0x01105bf4:    b008        ..      ADD      sp,sp,#0x20
        0x01105bf6:    bd70        p.      POP      {r4-r6,pc}
        0x01105bf8:    4916        .I      LDR      r1,[pc,#88] ; [0x1105c54] = 0xcb2
        0x01105bfa:    4288        .B      CMP      r0,r1
        0x01105bfc:    d300        ..      BCC      0x1105c00 ; update_battry_value + 140
        0x01105bfe:    8069        i.      STRH     r1,[r5,#2]
        0x01105c00:    8868        h.      LDRH     r0,[r5,#2]
        0x01105c02:    2164        d!      MOVS     r1,#0x64
        0x01105c04:    1b80        ..      SUBS     r0,r0,r6
        0x01105c06:    4348        HC      MULS     r0,r1,r0
        0x01105c08:    4913        .I      LDR      r1,[pc,#76] ; [0x1105c58] = 0x5aa
        0x01105c0a:    f7fbfbcd    ....    BL       $Ven$TT$L$$__aeabi_idivmod ; 0x11013a8
        0x01105c0e:    7028        (p      STRB     r0,[r5,#0]
        0x01105c10:    6861        ah      LDR      r1,[r4,#4]
        0x01105c12:    4620         F      MOV      r0,r4
        0x01105c14:    6849        Ih      LDR      r1,[r1,#4]
        0x01105c16:    4788        .G      BLX      r1
        0x01105c18:    e7ec        ..      B        0x1105bf4 ; update_battry_value + 128
    $d
        0x01105c1a:    0000        ..      DCW    0
        0x01105c1c:    5f434441    ADC_    DCD    1598243905
        0x01105c20:    00000030    0...    DCD    48
        0x01105c24:    20001ac0    ...     DCD    536877760
        0x01105c28:    00000000    ....    DCD    0
        0x01105c2c:    74746162    batt    DCD    1953784162
        0x01105c30:    00797265    ery.    DCD    7959141
        0x01105c34:    5d73255b    [%s]    DCD    1567827291
        0x01105c38:    63732520     %sc    DCD    1668490528
        0x01105c3c:    6f6e6e61    anno    DCD    1869508193
        0x01105c40:    6f662074    t fo    DCD    1868963956
        0x01105c44:    20646e75    und     DCD    543452789
        0x01105c48:    20636461    adc     DCD    543384673
        0x01105c4c:    25766564    dev%    DCD    628516196
        0x01105c50:    00000a73    s...    DCD    2675
        0x01105c54:    00000cb2    ....    DCD    3250
        0x01105c58:    000005aa    ....    DCD    1450
    $t
    i.update_conn_param_new
    update_conn_param_new
        0x01105c5c:    b510        ..      PUSH     {r4,lr}
        0x01105c5e:    4601        .F      MOV      r1,r0
        0x01105c60:    78c0        .x      LDRB     r0,[r0,#3]
        0x01105c62:    3174        t1      ADDS     r1,r1,#0x74
        0x01105c64:    2800        .(      CMP      r0,#0
        0x01105c66:    d005        ..      BEQ      0x1105c74 ; update_conn_param_new + 24
        0x01105c68:    4803        .H      LDR      r0,[pc,#12] ; [0x1105c78] = 0x20000274
        0x01105c6a:    6802        .h      LDR      r2,[r0,#0]
        0x01105c6c:    4803        .H      LDR      r0,[pc,#12] ; [0x1105c7c] = 0x200009cc
        0x01105c6e:    f7fbfbfb    ....    BL       $Ven$TT$L$$k_delayed_work_submit_to_queue ; 0x1101468
        0x01105c72:    bd10        ..      POP      {r4,pc}
        0x01105c74:    2200        ."      MOVS     r2,#0
        0x01105c76:    e7f9        ..      B        0x1105c6c ; update_conn_param_new + 16
    $d
        0x01105c78:    20000274    t..     DCD    536871540
        0x01105c7c:    200009cc    ...     DCD    536873420
    $t
    i.very_low_power_handler
    very_low_power_handler
        0x01105c80:    b51f        ..      PUSH     {r0-r4,lr}
        0x01105c82:    2000        .       MOVS     r0,#0
        0x01105c84:    9001        ..      STR      r0,[sp,#4]
        0x01105c86:    9002        ..      STR      r0,[sp,#8]
        0x01105c88:    9003        ..      STR      r0,[sp,#0xc]
        0x01105c8a:    a00f        ..      ADR      r0,{pc}+0x3e ; 0x1105cc8
        0x01105c8c:    f7fdf922    ..".    BL       device_get_binding ; 0x1102ed4
        0x01105c90:    0004        ..      MOVS     r4,r0
        0x01105c92:    d00f        ..      BEQ      0x1105cb4 ; very_low_power_handler + 52
        0x01105c94:    a30e        ..      ADR      r3,{pc}+0x3c ; 0x1105cd0
        0x01105c96:    a20e        ..      ADR      r2,{pc}+0x3a ; 0x1105cd0
        0x01105c98:    a10e        ..      ADR      r1,{pc}+0x3c ; 0x1105cd4
        0x01105c9a:    a010        ..      ADR      r0,{pc}+0x42 ; 0x1105cdc
        0x01105c9c:    f7fbfa04    ....    BL       $Ven$TT$L$$printk ; 0x11010a8
        0x01105ca0:    4819        .H      LDR      r0,[pc,#100] ; [0x1105d08] = 0x1105fe4
        0x01105ca2:    6060        ``      STR      r0,[r4,#4]
        0x01105ca4:    2002        .       MOVS     r0,#2
        0x01105ca6:    4669        iF      MOV      r1,sp
        0x01105ca8:    7148        Hq      STRB     r0,[r1,#5]
        0x01105caa:    2164        d!      MOVS     r1,#0x64
        0x01105cac:    a801        ..      ADD      r0,sp,#4
        0x01105cae:    f7fff971    ..q.    BL       send_msg ; 0x1104f94
        0x01105cb2:    bd1f        ..      POP      {r0-r4,pc}
        0x01105cb4:    a006        ..      ADR      r0,{pc}+0x1c ; 0x1105cd0
        0x01105cb6:    9000        ..      STR      r0,[sp,#0]
        0x01105cb8:    a303        ..      ADR      r3,{pc}+0x10 ; 0x1105cc8
        0x01105cba:    a205        ..      ADR      r2,{pc}+0x16 ; 0x1105cd0
        0x01105cbc:    a105        ..      ADR      r1,{pc}+0x18 ; 0x1105cd4
        0x01105cbe:    a013        ..      ADR      r0,{pc}+0x4e ; 0x1105d0c
        0x01105cc0:    f7fbf9f2    ....    BL       $Ven$TT$L$$printk ; 0x11010a8
        0x01105cc4:    bd1f        ..      POP      {r0-r4,pc}
    $d
        0x01105cc6:    0000        ..      DCW    0
        0x01105cc8:    69707378    xspi    DCD    1768977272
        0x01105ccc:    726f6e5f    _nor    DCD    1919905375
        0x01105cd0:    00000000    ....    DCD    0
        0x01105cd4:    74746162    batt    DCD    1953784162
        0x01105cd8:    00797265    ery.    DCD    7959141
        0x01105cdc:    5d73255b    [%s]    DCD    1567827291
        0x01105ce0:    65732520     %se    DCD    1702044960
        0x01105ce4:    7265746e    nter    DCD    1919251566
        0x01105ce8:    746e6920     int    DCD    1953392928
        0x01105cec:    6576206f    o ve    DCD    1702240367
        0x01105cf0:    6c5f7972    ry_l    DCD    1818196338
        0x01105cf4:    705f776f    ow_p    DCD    1885304687
        0x01105cf8:    7265776f    ower    DCD    1919252335
        0x01105cfc:    6e61685f    _han    DCD    1851877471
        0x01105d00:    72656c64    dler    DCD    1919249508
        0x01105d04:    000a7325    %s..    DCD    684837
        0x01105d08:    01105fe4    ._..    DCD    17850340
        0x01105d0c:    5d73255b    [%s]    DCD    1567827291
        0x01105d10:    63732520     %sc    DCD    1668490528
        0x01105d14:    6f6e6e61    anno    DCD    1869508193
        0x01105d18:    6f662074    t fo    DCD    1868963956
        0x01105d1c:    20646e75    und     DCD    543452789
        0x01105d20:    69766564    devi    DCD    1769366884
        0x01105d24:    27206563    ce '    DCD    656434531
        0x01105d28:    25277325    %s'%    DCD    623342373
        0x01105d2c:    00000a73    s...    DCD    2675
    $t
    i.wp_ctrl_ccc_cfg_changed
    wp_ctrl_ccc_cfg_changed
        0x01105d30:    2901        .)      CMP      r1,#1
        0x01105d32:    d00b        ..      BEQ      0x1105d4c ; wp_ctrl_ccc_cfg_changed + 28
        0x01105d34:    2000        .       MOVS     r0,#0
        0x01105d36:    4a07        .J      LDR      r2,[pc,#28] ; [0x1105d54] = 0x200020d8
        0x01105d38:    7050        Pp      STRB     r0,[r2,#1]
        0x01105d3a:    6891        .h      LDR      r1,[r2,#8]
        0x01105d3c:    2900        .)      CMP      r1,#0
        0x01105d3e:    d007        ..      BEQ      0x1105d50 ; wp_ctrl_ccc_cfg_changed + 32
        0x01105d40:    7812        .x      LDRB     r2,[r2,#0]
        0x01105d42:    2a00        .*      CMP      r2,#0
        0x01105d44:    d004        ..      BEQ      0x1105d50 ; wp_ctrl_ccc_cfg_changed + 32
        0x01105d46:    2800        .(      CMP      r0,#0
        0x01105d48:    d002        ..      BEQ      0x1105d50 ; wp_ctrl_ccc_cfg_changed + 32
        0x01105d4a:    4708        .G      BX       r1
        0x01105d4c:    2001        .       MOVS     r0,#1
        0x01105d4e:    e7f2        ..      B        0x1105d36 ; wp_ctrl_ccc_cfg_changed + 6
        0x01105d50:    4770        pG      BX       lr
    $d
        0x01105d52:    0000        ..      DCW    0
        0x01105d54:    200020d8    . .     DCD    536879320
    $t
    i.wp_register_rx_notify_enabled_cb
    wp_register_rx_notify_enabled_cb
        0x01105d58:    4901        .I      LDR      r1,[pc,#4] ; [0x1105d60] = 0x200020d8
        0x01105d5a:    6088        .`      STR      r0,[r1,#8]
        0x01105d5c:    4770        pG      BX       lr
    $d
        0x01105d5e:    0000        ..      DCW    0
        0x01105d60:    200020d8    . .     DCD    536879320
    $t
    i.wp_rx_ccc_cfg_changed
    wp_rx_ccc_cfg_changed
        0x01105d64:    2901        .)      CMP      r1,#1
        0x01105d66:    d00b        ..      BEQ      0x1105d80 ; wp_rx_ccc_cfg_changed + 28
        0x01105d68:    2000        .       MOVS     r0,#0
        0x01105d6a:    4a07        .J      LDR      r2,[pc,#28] ; [0x1105d88] = 0x200020d8
        0x01105d6c:    7010        .p      STRB     r0,[r2,#0]
        0x01105d6e:    6891        .h      LDR      r1,[r2,#8]
        0x01105d70:    2900        .)      CMP      r1,#0
        0x01105d72:    d007        ..      BEQ      0x1105d84 ; wp_rx_ccc_cfg_changed + 32
        0x01105d74:    2800        .(      CMP      r0,#0
        0x01105d76:    d005        ..      BEQ      0x1105d84 ; wp_rx_ccc_cfg_changed + 32
        0x01105d78:    7850        Px      LDRB     r0,[r2,#1]
        0x01105d7a:    2800        .(      CMP      r0,#0
        0x01105d7c:    d002        ..      BEQ      0x1105d84 ; wp_rx_ccc_cfg_changed + 32
        0x01105d7e:    4708        .G      BX       r1
        0x01105d80:    2001        .       MOVS     r0,#1
        0x01105d82:    e7f2        ..      B        0x1105d6a ; wp_rx_ccc_cfg_changed + 6
        0x01105d84:    4770        pG      BX       lr
    $d
        0x01105d86:    0000        ..      DCW    0
        0x01105d88:    200020d8    . .     DCD    536879320
    $t
    i.wp_send_input_report
    wp_send_input_report
        0x01105d8c:    b570        p.      PUSH     {r4-r6,lr}
        0x01105d8e:    4605        .F      MOV      r5,r0
        0x01105d90:    461c        .F      MOV      r4,r3
        0x01105d92:    2004        .       MOVS     r0,#4
        0x01105d94:    4b0c        .K      LDR      r3,[pc,#48] ; [0x1105dc8] = 0x200020d8
        0x01105d96:    43c0        .C      MVNS     r0,r0
        0x01105d98:    2901        .)      CMP      r1,#1
        0x01105d9a:    d00c        ..      BEQ      0x1105db6 ; wp_send_input_report + 42
        0x01105d9c:    2902        .)      CMP      r1,#2
        0x01105d9e:    d109        ..      BNE      0x1105db4 ; wp_send_input_report + 40
        0x01105da0:    7819        .x      LDRB     r1,[r3,#0]
        0x01105da2:    2900        .)      CMP      r1,#0
        0x01105da4:    d006        ..      BEQ      0x1105db4 ; wp_send_input_report + 40
        0x01105da6:    4908        .I      LDR      r1,[pc,#32] ; [0x1105dc8] = 0x200020d8
        0x01105da8:    4613        .F      MOV      r3,r2
        0x01105daa:    4622        "F      MOV      r2,r4
        0x01105dac:    3134        41      ADDS     r1,r1,#0x34
        0x01105dae:    4628        (F      MOV      r0,r5
        0x01105db0:    f7fbfb90    ....    BL       $Ven$TT$L$$bt_gatt_notify ; 0x11014d4
        0x01105db4:    bd70        p.      POP      {r4-r6,pc}
        0x01105db6:    7859        Yx      LDRB     r1,[r3,#1]
        0x01105db8:    2900        .)      CMP      r1,#0
        0x01105dba:    d0fb        ..      BEQ      0x1105db4 ; wp_send_input_report + 40
        0x01105dbc:    4902        .I      LDR      r1,[pc,#8] ; [0x1105dc8] = 0x200020d8
        0x01105dbe:    4613        .F      MOV      r3,r2
        0x01105dc0:    4622        "F      MOV      r2,r4
        0x01105dc2:    3198        .1      ADDS     r1,r1,#0x98
        0x01105dc4:    4628        (F      MOV      r0,r5
        0x01105dc6:    e7f3        ..      B        0x1105db0 ; wp_send_input_report + 36
    $d
        0x01105dc8:    200020d8    . .     DCD    536879320
    $t
    i.write_data_to_storage
    write_data_to_storage
        0x01105dcc:    b570        p.      PUSH     {r4-r6,lr}
        0x01105dce:    4c0b        .L      LDR      r4,[pc,#44] ; [0x1105dfc] = 0x20001af8
        0x01105dd0:    4602        .F      MOV      r2,r0
        0x01105dd2:    68a0        .h      LDR      r0,[r4,#8]
        0x01105dd4:    460d        .F      MOV      r5,r1
        0x01105dd6:    2800        .(      CMP      r0,#0
        0x01105dd8:    d00e        ..      BEQ      0x1105df8 ; write_data_to_storage + 44
        0x01105dda:    6823        #h      LDR      r3,[r4,#0]
        0x01105ddc:    6861        ah      LDR      r1,[r4,#4]
        0x01105dde:    6846        Fh      LDR      r6,[r0,#4]
        0x01105de0:    18c9        ..      ADDS     r1,r1,r3
        0x01105de2:    0309        ..      LSLS     r1,r1,#12
        0x01105de4:    6876        vh      LDR      r6,[r6,#4]
        0x01105de6:    0b09        ..      LSRS     r1,r1,#12
        0x01105de8:    462b        +F      MOV      r3,r5
        0x01105dea:    47b0        .G      BLX      r6
        0x01105dec:    6820         h      LDR      r0,[r4,#0]
        0x01105dee:    1941        A.      ADDS     r1,r0,r5
        0x01105df0:    a003        ..      ADR      r0,{pc}+0x10 ; 0x1105e00
        0x01105df2:    6021        !`      STR      r1,[r4,#0]
        0x01105df4:    f7fbf958    ..X.    BL       $Ven$TT$L$$printk ; 0x11010a8
        0x01105df8:    bd70        p.      POP      {r4-r6,pc}
    $d
        0x01105dfa:    0000        ..      DCW    0
        0x01105dfc:    20001af8    ...     DCD    536877816
        0x01105e00:    69647561    audi    DCD    1768191329
        0x01105e04:    69665f6f    o_fi    DCD    1768316783
        0x01105e08:    735f656c    le_s    DCD    1935631724
        0x01105e0c:    20657a69    ize     DCD    543521385
        0x01105e10:    30207369    is 0    DCD    807433065
        0x01105e14:    0a782578    x%x.    DCD    175646072
        0x01105e18:    00000000    ....    DCD    0
    $t
    i.write_ota
    write_ota
        0x01105e1c:    b5ff        ..      PUSH     {r0-r7,lr}
        0x01105e1e:    4816        .H      LDR      r0,[pc,#88] ; [0x1105e78] = 0x20001bd8
        0x01105e20:    460d        .F      MOV      r5,r1
        0x01105e22:    1a08        ..      SUBS     r0,r1,r0
        0x01105e24:    b083        ..      SUB      sp,sp,#0xc
        0x01105e26:    461e        .F      MOV      r6,r3
        0x01105e28:    2114        .!      MOVS     r1,#0x14
        0x01105e2a:    f7fbfabd    ....    BL       $Ven$TT$L$$__aeabi_idivmod ; 0x11013a8
        0x01105e2e:    b2c4        ..      UXTB     r4,r0
        0x01105e30:    9803        ..      LDR      r0,[sp,#0xc]
        0x01105e32:    f7fbfc15    ....    BL       $Ven$TT$L$$bt_gatt_get_mtu ; 0x1101660
        0x01105e36:    990c        ..      LDR      r1,[sp,#0x30]
        0x01105e38:    1ec0        ..      SUBS     r0,r0,#3
        0x01105e3a:    1989        ..      ADDS     r1,r1,r6
        0x01105e3c:    4288        .B      CMP      r0,r1
        0x01105e3e:    da03        ..      BGE      0x1105e48 ; write_ota + 44
        0x01105e40:    2006        .       MOVS     r0,#6
        0x01105e42:    43c0        .C      MVNS     r0,r0
        0x01105e44:    b007        ..      ADD      sp,sp,#0x1c
        0x01105e46:    bdf0        ..      POP      {r4-r7,pc}
        0x01105e48:    480b        .H      LDR      r0,[pc,#44] ; [0x1105e78] = 0x20001bd8
        0x01105e4a:    3808        .8      SUBS     r0,r0,#8
        0x01105e4c:    6847        Gh      LDR      r7,[r0,#4]
        0x01105e4e:    2f00        ./      CMP      r7,#0
        0x01105e50:    d010        ..      BEQ      0x1105e74 ; write_ota + 88
        0x01105e52:    2c02        .,      CMP      r4,#2
        0x01105e54:    d005        ..      BEQ      0x1105e62 ; write_ota + 70
        0x01105e56:    2c05        .,      CMP      r4,#5
        0x01105e58:    d003        ..      BEQ      0x1105e62 ; write_ota + 70
        0x01105e5a:    2c08        .,      CMP      r4,#8
        0x01105e5c:    d001        ..      BEQ      0x1105e62 ; write_ota + 70
        0x01105e5e:    2c0b        .,      CMP      r4,#0xb
        0x01105e60:    d108        ..      BNE      0x1105e74 ; write_ota + 88
        0x01105e62:    9805        ..      LDR      r0,[sp,#0x14]
        0x01105e64:    9502        ..      STR      r5,[sp,#8]
        0x01105e66:    9001        ..      STR      r0,[sp,#4]
        0x01105e68:    9600        ..      STR      r6,[sp,#0]
        0x01105e6a:    2201        ."      MOVS     r2,#1
        0x01105e6c:    4621        !F      MOV      r1,r4
        0x01105e6e:    9b0c        ..      LDR      r3,[sp,#0x30]
        0x01105e70:    9803        ..      LDR      r0,[sp,#0xc]
        0x01105e72:    47b8        .G      BLX      r7
        0x01105e74:    4630        0F      MOV      r0,r6
        0x01105e76:    e7e5        ..      B        0x1105e44 ; write_ota + 40
    $d
        0x01105e78:    20001bd8    ...     DCD    536878040
    $t
    i.write_wp_ctrl
    write_wp_ctrl
        0x01105e7c:    b570        p.      PUSH     {r4-r6,lr}
        0x01105e7e:    461c        .F      MOV      r4,r3
        0x01105e80:    9804        ..      LDR      r0,[sp,#0x10]
        0x01105e82:    4613        .F      MOV      r3,r2
        0x01105e84:    25ff        .%      MOVS     r5,#0xff
        0x01105e86:    68c9        .h      LDR      r1,[r1,#0xc]
        0x01105e88:    1902        ..      ADDS     r2,r0,r4
        0x01105e8a:    3501        .5      ADDS     r5,#1
        0x01105e8c:    42aa        .B      CMP      r2,r5
        0x01105e8e:    d902        ..      BLS      0x1105e96 ; write_wp_ctrl + 26
        0x01105e90:    2006        .       MOVS     r0,#6
        0x01105e92:    43c0        .C      MVNS     r0,r0
        0x01105e94:    bd70        p.      POP      {r4-r6,pc}
        0x01105e96:    1808        ..      ADDS     r0,r1,r0
        0x01105e98:    4622        "F      MOV      r2,r4
        0x01105e9a:    4619        .F      MOV      r1,r3
        0x01105e9c:    f7fafff6    ....    BL       __aeabi_memcpy ; 0x1100e8c
        0x01105ea0:    2100        .!      MOVS     r1,#0
        0x01105ea2:    e001        ..      B        0x1105ea8 ; write_wp_ctrl + 44
        0x01105ea4:    1c49        I.      ADDS     r1,r1,#1
        0x01105ea6:    b2c9        ..      UXTB     r1,r1
        0x01105ea8:    42a1        .B      CMP      r1,r4
        0x01105eaa:    d3fb        ..      BCC      0x1105ea4 ; write_wp_ctrl + 40
        0x01105eac:    f7fefc9e    ....    BL       reset_stroage ; 0x11047ec
        0x01105eb0:    a002        ..      ADR      r0,{pc}+0xc ; 0x1105ebc
        0x01105eb2:    f7fbf8f9    ....    BL       $Ven$TT$L$$printk ; 0x11010a8
        0x01105eb6:    4620         F      MOV      r0,r4
        0x01105eb8:    bd70        p.      POP      {r4-r6,pc}
    $d
        0x01105eba:    0000        ..      DCW    0
        0x01105ebc:    65736572    rese    DCD    1702061426
        0x01105ec0:    6f632074    t co    DCD    1868767348
        0x01105ec4:    20746e75    unt     DCD    544501365
        0x01105ec8:    20646e61    and     DCD    543452769
        0x01105ecc:    72617473    star    DCD    1918989427
        0x01105ed0:    65732074    t se    DCD    1702043764
        0x01105ed4:    6420646e    nd d    DCD    1679844462
        0x01105ed8:    0a617461    ata.    DCD    174158945
        0x01105edc:    00000000    ....    DCD    0
    $t
    i.write_wp_tx
    write_wp_tx
        0x01105ee0:    b570        p.      PUSH     {r4-r6,lr}
        0x01105ee2:    461c        .F      MOV      r4,r3
        0x01105ee4:    9804        ..      LDR      r0,[sp,#0x10]
        0x01105ee6:    4613        .F      MOV      r3,r2
        0x01105ee8:    25ff        .%      MOVS     r5,#0xff
        0x01105eea:    68c9        .h      LDR      r1,[r1,#0xc]
        0x01105eec:    1902        ..      ADDS     r2,r0,r4
        0x01105eee:    3501        .5      ADDS     r5,#1
        0x01105ef0:    42aa        .B      CMP      r2,r5
        0x01105ef2:    d902        ..      BLS      0x1105efa ; write_wp_tx + 26
        0x01105ef4:    2006        .       MOVS     r0,#6
        0x01105ef6:    43c0        .C      MVNS     r0,r0
        0x01105ef8:    bd70        p.      POP      {r4-r6,pc}
        0x01105efa:    1808        ..      ADDS     r0,r1,r0
        0x01105efc:    4622        "F      MOV      r2,r4
        0x01105efe:    4619        .F      MOV      r1,r3
        0x01105f00:    f7faffc4    ....    BL       __aeabi_memcpy ; 0x1100e8c
        0x01105f04:    4802        .H      LDR      r0,[pc,#8] ; [0x1105f10] = 0x200020d8
        0x01105f06:    6841        Ah      LDR      r1,[r0,#4]
        0x01105f08:    1909        ..      ADDS     r1,r1,r4
        0x01105f0a:    6041        A`      STR      r1,[r0,#4]
        0x01105f0c:    4620         F      MOV      r0,r4
        0x01105f0e:    bd70        p.      POP      {r4-r6,pc}
    $d
        0x01105f10:    200020d8    . .     DCD    536879320
    $d.realdata
    .constdata
    dis_val_pnp
        0x01105f14:    002b5402    .T+.    DCD    2839554
        0x01105f18:    00000016    ....    DCD    22
    <Data5>
        0x01105f1c:    00300003    ..0.    DCD    3145731
        0x01105f20:    00000060    `...    DCD    96
        0x01105f24:    00000000    ....    DCD    0
    <Data6>
        0x01105f28:    00200003    .. .    DCD    2097155
        0x01105f2c:    00000022    "...    DCD    34
        0x01105f30:    00000000    ....    DCD    0
    .constdata
    acts_key_maps
        0x01105f34:    020e0002    ....    DCD    34471938
        0x01105f38:    0003004e    N...    DCD    196686
        0x01105f3c:    001400e9    ....    DCD    1310953
        0x01105f40:    00ea0004    ....    DCD    15335428
        0x01105f44:    00050010    ....    DCD    327696
        0x01105f48:    00180030    0...    DCD    1572912
        0x01105f4c:    00450006    ..E.    DCD    4521990
        0x01105f50:    00070015    ....    DCD    458773
        0x01105f54:    00160043    C...    DCD    1441859
        0x01105f58:    00410008    ..A.    DCD    4259848
        0x01105f5c:    00090055    U...    DCD    589909
        0x01105f60:    00470044    D.G.    DCD    4653124
        0x01105f64:    0042000a    ..B.    DCD    4325386
        0x01105f68:    000b0046    F...    DCD    720966
        0x01105f6c:    00400224    $.@.    DCD    4194852
        0x01105f70:    0223000c    ..#.    DCD    35848204
        0x01105f74:    0000004f    O...    DCD    79
    .constdata
    rmc_State_table
        0x01105f78:    01020201    ....    DCD    16908801
        0x01105f7c:    05020502    ....    DCD    84018434
        0x01105f80:    02000000    ....    DCD    33554432
        0x01105f84:    02010300    ....    DCD    33620736
        0x01105f88:    00000000    ....    DCD    0
        0x01105f8c:    01010101    ....    DCD    16843009
        0x01105f90:    00010000    ....    DCD    65536
        0x01105f94:    05020602    ....    DCD    84018690
        0x01105f98:    00000502    ....    DCD    1282
        0x01105f9c:    03000000    ....    DCD    50331648
        0x01105fa0:    03000201    ....    DCD    50332161
        0x01105fa4:    01010000    ....    DCD    16842752
        0x01105fa8:    03000101    ....    DCD    50331905
        0x01105fac:    00020002    ....    DCD    131074
        0x01105fb0:    05020502    ....    DCD    84018434
        0x01105fb4:    02010000    ....    DCD    33619968
        0x01105fb8:    00020302    ....    DCD    131842
        0x01105fbc:    00000400    ....    DCD    1024
        0x01105fc0:    00020101    ....    DCD    131329
        0x01105fc4:    00000400    ....    DCD    1024
    rmc_act_set
        0x01105fc8:    0110496d    mI..    DCD    17844589
        0x01105fcc:    01104979    yI..    DCD    17844601
        0x01105fd0:    01104a59    YJ..    DCD    17844825
        0x01105fd4:    01104b89    .K..    DCD    17845129
        0x01105fd8:    01104915    .I..    DCD    17844501
        0x01105fdc:    0110496f    oI..    DCD    17844591
        0x01105fe0:    011048c5    .H..    DCD    17844421
    .constdata
    dummy_nor_api
        0x01105fe4:    01102fb9    ./..    DCD    17838009
        0x01105fe8:    01102fbd    ./..    DCD    17838013
        0x01105fec:    01102fb5    ./..    DCD    17838005
        0x01105ff0:    01102fc1    ./..    DCD    17838017
    .constdata
    led_configs
        0x01105ff4:    0600000a    ....    DCD    100663306
        0x01105ff8:    02070001    ....    DCD    34013185
        0x01105ffc:    00          .       DCB    0
    .constdata
    ota_au_uuid
        0x01105ffd:    026578      .ex     DCB    2,101,120
        0x01106000:    4c746361    actL    DCD    1282696033
        0x01106004:    4ed5b045    E..N    DCD    1322627141
        0x01106008:    00052ff2    ./..    DCD    339954
        0x0110600c:    005f        _.      DCW    95
    .constdata
    wp_ctrl_uuid
        0x0110600e:    7802        .x      DCW    30722
        0x01106010:    99123456    V4..    DCD    2568107094
        0x01106014:    55667788    .wfU    DCD    1432778632
        0x01106018:    a3223344    D3".    DCD    2736927556
        0x0110601c:    00001120     ...    DCD    4384
    .constdata
    storage
        0x01106020:    011055d9    .U..    DCD    17847769
        0x01106024:    0110563d    =V..    DCD    17847869
        0x01106028:    011055a5    .U..    DCD    17847717
    .constdata
    uart_acts_dev_cfg_0
        0x0110602c:    4000d000    ...@    DCD    1073795072
        0x01106030:    00000000    ....    DCD    0
        0x01106034:    01100569    i...    DCD    17827177
    .constdata
    dma_acts_cdata
        0x01106038:    0110053d    =...    DCD    17827133
    .constdata
    factory_nvram_region_config
        0x0110603c:    74636146    Fact    DCD    1952670022
        0x01106040:    2079726f    ory     DCD    544830063
        0x01106044:    666e6f43    Conf    DCD    1718513475
        0x01106048:    00006769    ig..    DCD    26473
        0x0110604c:    00000000    ....    DCD    0
        0x01106050:    00070000    ....    DCD    458752
        0x01106054:    00002000    . ..    DCD    8192
    .constdata
    user_nvram_region_config
        0x01106058:    72657355    User    DCD    1919251285
        0x0110605c:    6e6f4320     Con    DCD    1852785440
        0x01106060:    00676966    fig.    DCD    6777190
        0x01106064:    00000000    ....    DCD    0
        0x01106068:    00000000    ....    DCD    0
        0x0110606c:    00072000    . ..    DCD    466944
        0x01106070:    00004000    .@..    DCD    16384
    .constdata
    acts_nvram_config_info0
        0x01106074:    0110603c    <`..    DCD    17850428
        0x01106078:    01106058    X`..    DCD    17850456
        0x0110607c:    20006984    .i.     DCD    536897924
    .constdata
    acts_gpio_config_info0
        0x01106080:    40016000    .`.@    DCD    1073831936
        0x01106084:    0000000e    ....    DCD    14
        0x01106088:    01103055    U0..    DCD    17838165
    .constdata
    adc_acts_cdata
        0x0110608c:    40008010    ...@    DCD    1073774608
        0x01106090:    00000013    ....    DCD    19
    .constdata
    pwm_acts_drv_api_funcs_new
        0x01106094:    01104665    eF..    DCD    17843813
        0x01106098:    00010d35    5...    DCD    68917
        0x0110609c:    011046b5    .F..    DCD    17843893
    .constdata
    pwm_acts_dev_cfg_1
        0x011060a0:    40017000    .p.@    DCD    1073836032
        0x011060a4:    40002024    $ .@    DCD    1073750052
        0x011060a8:    00000005    ....    DCD    5
        0x011060ac:    00000a0a    ....    DCD    2570
    .constdata
    irc_acts_drv_api_funcs
        0x011060b0:    00000000    ....    DCD    0
        0x011060b4:    00000000    ....    DCD    0
        0x011060b8:    00000000    ....    DCD    0
        0x011060bc:    00000000    ....    DCD    0
        0x011060c0:    0110345d    ]4..    DCD    17839197
    .constdata
    irc_acts_dev_cfg_info
        0x011060c4:    40010000    ...@    DCD    1073807360
        0x011060c8:    0001ff00    ....    DCD    130816
        0x011060cc:    001e1f1f    ....    DCD    1974047
    .constdata
    timer_acts_drv_api
        0x011060d0:    01105a59    YZ..    DCD    17848921
        0x011060d4:    01105a85    .Z..    DCD    17848965
        0x011060d8:    011059b1    .Y..    DCD    17848753
        0x011060dc:    01105aa3    .Z..    DCD    17848995
        0x011060e0:    01105a9d    .Z..    DCD    17848989
    .constdata
    adckey_acts_driver_api_new
        0x011060e4:    01101bc9    ....    DCD    17832905
        0x011060e8:    01101b95    ....    DCD    17832853
        0x011060ec:    01101e55    U...    DCD    17833557
        0x011060f0:    01101ead    ....    DCD    17833645
    .constdata
    adckey_0_acts_cdata
        0x011060f4:    01106210    .b..    DCD    17850896
        0x011060f8:    001e0002    ....    DCD    1966082
        0x011060fc:    00070002    ....    DCD    458754
        0x01106100:    200022ac    .".     DCD    536879788
        0x01106104:    01101d3d    =...    DCD    17833277
    .constdata
    acts_mxkeypad_maps
        0x01106108:    00000000    ....    DCD    0
        0x0110610c:    00000000    ....    DCD    0
        0x01106110:    00000080    ....    DCD    128
        0x01106114:    00000002    ....    DCD    2
        0x01106118:    00000000    ....    DCD    0
        0x0110611c:    00000000    ....    DCD    0
        0x01106120:    00000004    ....    DCD    4
        0x01106124:    00000003    ....    DCD    3
        0x01106128:    00000000    ....    DCD    0
        0x0110612c:    00000000    ....    DCD    0
        0x01106130:    00000400    ....    DCD    1024
        0x01106134:    00000004    ....    DCD    4
        0x01106138:    00000000    ....    DCD    0
        0x0110613c:    00000000    ....    DCD    0
        0x01106140:    00008000    ....    DCD    32768
        0x01106144:    00000005    ....    DCD    5
    .constdata
    mxkeypad_acts_cdata
        0x01106148:    40018000    ...@    DCD    1073840128
        0x0110614c:    01103bbd    .;..    DCD    17841085
        0x01106150:    000f000f    ....    DCD    983055
        0x01106154:    00200084    .. .    DCD    2097284
        0x01106158:    00640014    ..d.    DCD    6553620
        0x0110615c:    00040000    ....    DCD    262144
        0x01106160:    01106108    .a..    DCD    17850632
    .constdata
    audio_in_acts_cfg
        0x01106164:    03010109    ....    DCD    50397449
        0x01106168:    00000006    ....    DCD    6
    .constdata
    audio_in_acts_driver_api
        0x0110616c:    01101af3    ....    DCD    17832691
        0x01106170:    01101add    ....    DCD    17832669
    .constdata
    audio_out_acts_cfg
        0x01106174:    00000209    ....    DCD    521
    .constdata
    audio_out_acts_driver_api
        0x01106178:    01101b19    ....    DCD    17832729
        0x0110617c:    01101b03    ....    DCD    17832707
    .constdata
    ASC_II_AT7
        0x01106180:    000affe8    ....    DCD    720872
        0x01106184:    fff7001d    ....    DCD    4294377501
        0x01106188:    0007ffd6    ....    DCD    524246
        0x0110618c:    0000003f    ?...    DCD    63
        0x01106190:    fff2ffa3    ....    DCD    4294115235
        0x01106194:    00280085    ..(.    DCD    2621573
        0x01106198:    ffaeff4b    K...    DCD    4289658699
        0x0110619c:    009200ec    ....    DCD    9568492
        0x011061a0:    ff11fed7    ....    DCD    4279369431
        0x011061a4:    0172016a    j.r.    DCD    24248682
        0x011061a8:    fdd7fe56    V...    DCD    4258790998
        0x011061ac:    032e01e8    ....    DCD    53346792
        0x011061b0:    fb48fde0    ..H.    DCD    4215864800
        0x011061b4:    0755024f    O.U.    DCD    123011663
        0x011061b8:    f2ebfd8e    ....    DCD    4075552142
        0x011061bc:    28960288    ...(    DCD    680919688
        0x011061c0:    28963d76    v=.(    DCD    680934774
        0x011061c4:    f2eb0288    ....    DCD    4075487880
        0x011061c8:    0755fd8e    ..U.    DCD    123075982
        0x011061cc:    fb48024f    O.H.    DCD    4215800399
        0x011061d0:    032efde0    ....    DCD    53411296
        0x011061d4:    fdd701e8    ....    DCD    4258726376
        0x011061d8:    0172fe56    V.r.    DCD    24313430
        0x011061dc:    ff11016a    j...    DCD    4279304554
        0x011061e0:    0092fed7    ....    DCD    9633495
        0x011061e4:    ffae00ec    ....    DCD    4289593580
        0x011061e8:    0028ff4b    K.(.    DCD    2686795
        0x011061ec:    fff20085    ....    DCD    4294049925
        0x011061f0:    0000ffa3    ....    DCD    65443
        0x011061f4:    0007003f    ?...    DCD    458815
        0x011061f8:    fff7ffd6    ....    DCD    4294442966
        0x011061fc:    000a001d    ....    DCD    655389
        0x01106200:    0000ffe8    ....    DCD    65512
    .conststring
        0x01106204:    69627543    Cubi    DCD    1768060227
        0x01106208:    454c4265    eBLE    DCD    1162625637
        0x0110620c:    00000000    ....    DCD    0
    .conststring
        0x01106210:    5f434441    ADC_    DCD    1598243905
        0x01106214:    00000030    0...    DCD    48
    .conststring
        0x01106218:    6464613c    <add    DCD    1684300092
        0x0110621c:    73736572    ress    DCD    1936942450
        0x01106220:    5858203a    : XX    DCD    1482170426
        0x01106224:    3a58583a    :XX:    DCD    978868282
        0x01106228:    583a5858    XX:X    DCD    1480218712
        0x0110622c:    58583a58    X:XX    DCD    1482177112
        0x01106230:    3e58583a    :XX>    DCD    1045977146
        0x01106234:    00000000    ....    DCD    0
        0x01106238:    69747075    upti    DCD    1769238645
        0x0110623c:    0000656d    me..    DCD    25965
        0x01106240:    656e6f6e    none    DCD    1701736302
        0x01106244:    00000000    ....    DCD    0
        0x01106248:    6f626572    rebo    DCD    1868719474
        0x0110624c:    7320746f    ot s    DCD    1931506799
        0x01106250:    65747379    yste    DCD    1702130553
        0x01106254:    0000006d    m...    DCD    109
        0x01106258:    776f6873    show    DCD    2003789939
        0x0110625c:    72656b20     ker    DCD    1919249184
        0x01106260:    206c656e    nel     DCD    543974766
        0x01106264:    73726576    vers    DCD    1936876918
        0x01106268:    006e6f69    ion.    DCD    7237481
        0x0110626c:    75626564    debu    DCD    1969382756
        0x01106270:    666e4967    gInf    DCD    1718503783
        0x01106274:    0000006f    o...    DCD    111
        0x01106278:    5f746573    set_    DCD    1601463667
        0x0110627c:    615f7462    bt_a    DCD    1633645666
        0x01106280:    00726464    ddr.    DCD    7496804
        0x01106284:    776f6873    show    DCD    2003789939
        0x01106288:    73797320     sys    DCD    1937339168
        0x0110628c:    206d6574    tem     DCD    544040308
        0x01106290:    69747075    upti    DCD    1769238645
        0x01106294:    6920656d    me i    DCD    1763730797
        0x01106298:    696d206e    n mi    DCD    1768759406
        0x0110629c:    73696c6c    llis    DCD    1936288876
        0x011062a0:    6e6f6365    econ    DCD    1852793701
        0x011062a4:    00007364    ds..    DCD    29540
        0x011062a8:    776f6873    show    DCD    2003789939
        0x011062ac:    73797320     sys    DCD    1937339168
        0x011062b0:    206d6574    tem     DCD    544040308
        0x011062b4:    64726168    hard    DCD    1685217640
        0x011062b8:    65726177    ware    DCD    1701994871
        0x011062bc:    63796320     cyc    DCD    1668899616
        0x011062c0:    0073656c    les.    DCD    7562604
        0x011062c4:    6c637963    cycl    DCD    1818458467
        0x011062c8:    00007365    es..    DCD    29541
        0x011062cc:    776f6873    show    DCD    2003789939
        0x011062d0:    73797320     sys    DCD    1937339168
        0x011062d4:    206d6574    tem     DCD    544040308
        0x011062d8:    63617473    stac    DCD    1667331187
        0x011062dc:    0000736b    ks..    DCD    29547
        0x011062e0:    6f626572    rebo    DCD    1868719474
        0x011062e4:    0000746f    ot..    DCD    29807
    .conststrlit
        0x011062e8:    5f6d6370    pcm_    DCD    1601004400
        0x011062ec:    66667562    buff    DCD    1717990754
        0x011062f0:    705f7265    er_p    DCD    1885303397
        0x011062f4:    006c6f6f    ool.    DCD    7106415
    .conststrlit
        0x011062f8:    5f67736d    msg_    DCD    1600615277
        0x011062fc:    66667562    buff    DCD    1717990754
        0x01106300:    705f7265    er_p    DCD    1885303397
        0x01106304:    5f6c6f6f    ool_    DCD    1600941935
        0x01106308:    6e797361    asyn    DCD    1853453153
        0x0110630c:    00000063    c...    DCD    99
        0x01106310:    5f67736d    msg_    DCD    1600615277
        0x01106314:    66667562    buff    DCD    1717990754
        0x01106318:    705f7265    er_p    DCD    1885303397
        0x0110631c:    5f6c6f6f    ool_    DCD    1600941935
        0x01106320:    636e7973    sync    DCD    1668184435
        0x01106324:    00000000    ....    DCD    0
    .conststrlit
        0x01106328:    5f696368    hci_    DCD    1600742248
        0x0110632c:    5f646d63    cmd_    DCD    1600417123
        0x01106330:    6c6f6f70    pool    DCD    1819242352
        0x01106334:    00000000    ....    DCD    0
        0x01106338:    5f696368    hci_    DCD    1600742248
        0x0110633c:    705f7872    rx_p    DCD    1885304946
        0x01106340:    5f6c6f6f    ool_    DCD    1600941935
        0x01106344:    00000030    0...    DCD    48
        0x01106348:    5f696368    hci_    DCD    1600742248
        0x0110634c:    705f7872    rx_p    DCD    1885304946
        0x01106350:    5f6c6f6f    ool_    DCD    1600941935
        0x01106354:    00000032    2...    DCD    50
        0x01106358:    5f696368    hci_    DCD    1600742248
        0x0110635c:    705f7872    rx_p    DCD    1885304946
        0x01106360:    5f6c6f6f    ool_    DCD    1600941935
        0x01106364:    00000033    3...    DCD    51
        0x01106368:    5f6c6361    acl_    DCD    1600938849
        0x0110636c:    705f7874    tx_p    DCD    1885304948
        0x01106370:    006c6f6f    ool.    DCD    7106415
        0x01106374:    70657270    prep    DCD    1885696624
        0x01106378:    6f6f705f    _poo    DCD    1869574239
        0x0110637c:    0000006c    l...    DCD    108
        0x01106380:    00000000    ....    DCD    0
    .conststrlit
        0x01106384:    00000000    ....    DCD    0
    .conststrlit
        0x01106388:    00000000    ....    DCD    0
    .conststrlit
        0x0110638c:    00000000    ....    DCD    0
    .conststrlit
        0x01106390:    5f737973    sys_    DCD    1601403251
        0x01106394:    636f6c63    cloc    DCD    1668246627
        0x01106398:    0000006b    k...    DCD    107
    .conststrlit
        0x0110639c:    54524155    UART    DCD    1414676821
        0x011063a0:    0000305f    _0..    DCD    12383
    .conststrlit
        0x011063a4:    00000000    ....    DCD    0
    .conststrlit
        0x011063a8:    5f414d44    DMA_    DCD    1598115140
        0x011063ac:    00000030    0...    DCD    48
    .conststrlit
        0x011063b0:    69707378    xspi    DCD    1768977272
        0x011063b4:    726f6e5f    _nor    DCD    1919905375
        0x011063b8:    00000000    ....    DCD    0
    .conststrlit
        0x011063bc:    4152564e    NVRA    DCD    1095915086
        0x011063c0:    0000004d    M...    DCD    77
    .conststrlit
        0x011063c4:    4f495047    GPIO    DCD    1330204743
        0x011063c8:    00000000    ....    DCD    0
    .conststrlit
        0x011063cc:    5f434441    ADC_    DCD    1598243905
        0x011063d0:    00000030    0...    DCD    48
    .conststrlit
        0x011063d4:    5f4d5750    PWM_    DCD    1598904144
        0x011063d8:    00000030    0...    DCD    48
    .conststrlit
        0x011063dc:    00435249    IRC.    DCD    4411977
    .conststrlit
        0x011063e0:    454d4954    TIME    DCD    1162692948
        0x011063e4:    00315f52    R_1.    DCD    3235666
    .conststrlit
        0x011063e8:    4b434441    ADCK    DCD    1262699585
        0x011063ec:    305f5945    EY_0    DCD    811555141
        0x011063f0:    00000000    ....    DCD    0
    .conststrlit
        0x011063f4:    454b584d    MXKE    DCD    1162565709
        0x011063f8:    44415059    YPAD    DCD    1145131097
        0x011063fc:    00000000    ....    DCD    0
    .conststrlit
        0x01106400:    43544157    WATC    DCD    1129595223
        0x01106404:    474f4448    HDOG    DCD    1196377160
        0x01106408:    00000000    ....    DCD    0
    .conststrlit
        0x0110640c:    49445541    AUDI    DCD    1229215041
        0x01106410:    004e494f    OIN.    DCD    5130575
    .conststrlit
        0x01106414:    49445541    AUDI    DCD    1229215041
        0x01106418:    54554f4f    OOUT    DCD    1414877007
        0x0110641c:    00000000    ....    DCD    0
    .conststrlit
        0x01106420:    00000000    ....    DCD    0
    .conststrlit
        0x01106424:    6e72656b    kern    DCD    1852990827
        0x01106428:    00006c65    el..    DCD    27749
    .conststrlit
        0x0110642c:    00000000    ....    DCD    0
    .init.once.data."..\\..\\..\\..\\boards\\board.c".0
    board_pin_config
        0x01106430:    00000002    ....    DCD    2
        0x01106434:    00003803    .8..    DCD    14339
        0x01106438:    00000003    ....    DCD    3
        0x0110643c:    00003803    .8..    DCD    14339
        0x01106440:    0000000b    ....    DCD    11
        0x01106444:    0000000d    ....    DCD    13
        0x01106448:    0000001d    ....    DCD    29
        0x0110644c:    0000000d    ....    DCD    13
        0x01106450:    00000006    ....    DCD    6
        0x01106454:    00000002    ....    DCD    2
        0x01106458:    00000007    ....    DCD    7
        0x0110645c:    00000002    ....    DCD    2
        0x01106460:    0000000a    ....    DCD    10
        0x01106464:    00000002    ....    DCD    2
    Region$$Table$$Base
        0x01106468:    01106548    He..    DCD    17851720
        0x0110646c:    20001000    ...     DCD    536875008
        0x01106470:    00000038    8...    DCD    56
        0x01106474:    01101a24    $...    DCD    17832484
        0x01106478:    01106580    .e..    DCD    17851776
        0x0110647c:    20001038    8..     DCD    536875064
        0x01106480:    00000200    ....    DCD    512
        0x01106484:    01101a24    $...    DCD    17832484
        0x01106488:    01106780    .g..    DCD    17852288
        0x0110648c:    20001238    8..     DCD    536875576
        0x01106490:    00000490    ....    DCD    1168
        0x01106494:    01101a24    $...    DCD    17832484
        0x01106498:    01106c10    .l..    DCD    17853456
        0x0110649c:    200016c8    ...     DCD    536876744
        0x011064a0:    00000060    `...    DCD    96
        0x011064a4:    01101a24    $...    DCD    17832484
        0x011064a8:    01106c70    pl..    DCD    17853552
        0x011064ac:    20001728    (..     DCD    536876840
        0x011064b0:    00000018    ....    DCD    24
        0x011064b4:    01101a24    $...    DCD    17832484
        0x011064b8:    01106c88    .l..    DCD    17853576
        0x011064bc:    20001740    @..     DCD    536876864
        0x011064c0:    00000084    ....    DCD    132
        0x011064c4:    01101a24    $...    DCD    17832484
        0x011064c8:    01106d0c    .m..    DCD    17853708
        0x011064cc:    200017c4    ...     DCD    536876996
        0x011064d0:    00000018    ....    DCD    24
        0x011064d4:    01101a24    $...    DCD    17832484
        0x011064d8:    01106d24    $m..    DCD    17853732
        0x011064dc:    200017dc    ...     DCD    536877020
        0x011064e0:    00000008    ....    DCD    8
        0x011064e4:    01101a24    $...    DCD    17832484
        0x011064e8:    01106d2c    ,m..    DCD    17853740
        0x011064ec:    200017e4    ...     DCD    536877028
        0x011064f0:    00000168    h...    DCD    360
        0x011064f4:    01101a24    $...    DCD    17832484
        0x011064f8:    01106e94    .n..    DCD    17854100
        0x011064fc:    2000194c    L..     DCD    536877388
        0x01106500:    0000000c    ....    DCD    12
        0x01106504:    01101a24    $...    DCD    17832484
        0x01106508:    01106ea0    .n..    DCD    17854112
        0x0110650c:    20001958    X..     DCD    536877400
        0x01106510:    00000050    P...    DCD    80
        0x01106514:    01101a24    $...    DCD    17832484
        0x01106518:    01106ef0    .n..    DCD    17854192
        0x0110651c:    200019a8    ...     DCD    536877480
        0x01106520:    00000058    X...    DCD    88
        0x01106524:    01101a24    $...    DCD    17832484
        0x01106528:    01106f48    Ho..    DCD    17854280
        0x0110652c:    20001a00    ...     DCD    536877568
        0x01106530:    00003fb0    .?..    DCD    16304
        0x01106534:    01101a24    $...    DCD    17832484
        0x01106538:    0110aef8    ....    DCD    17870584
        0x0110653c:    200059b0    .Y.     DCD    536893872
        0x01106540:    00001574    t...    DCD    5492
        0x01106544:    01101a34    4...    DCD    17832500
    Region$$Table$$Limit

** Section #2 'RAM_RETENTION' (SHT_PROGBITS) [SHF_ALLOC + SHF_EXECINSTR]
    Size   : 56 bytes (alignment 4)
    Address: 0x20001000

    $t
    .asm_patch
    p_llcc_rx_cmd_valid
        0x20001000:    0008        ..      MOVS     r0,r1
        0x20001002:    0019        ..      MOVS     r1,r3
        0x20001004:    4a04        .J      LDR      r2,[pc,#16] ; [0x20001018] = 0x20001239
        0x20001006:    4790        .G      BLX      r2
        0x20001008:    0002        ..      MOVS     r2,r0
        0x2000100a:    b403        ..      PUSH     {r0,r1}
        0x2000100c:    4801        .H      LDR      r0,[pc,#4] ; [0x20001014] = 0xecd9
        0x2000100e:    9001        ..      STR      r0,[sp,#4]
        0x20001010:    bd01        ..      POP      {r0,pc}
    $d
        0x20001012:    0000        ..      DCW    0
        0x20001014:    0000ecd9    ....    DCD    60633
        0x20001018:    20001239    9..     DCD    536875577
    $t
    p_llcc_rx_dmal_done
        0x2000101c:    0028        (.      MOVS     r0,r5
        0x2000101e:    0039        9.      MOVS     r1,r7
        0x20001020:    4a04        .J      LDR      r2,[pc,#16] ; [0x20001034] = 0x20001239
        0x20001022:    4790        .G      BLX      r2
        0x20001024:    0002        ..      MOVS     r2,r0
        0x20001026:    b403        ..      PUSH     {r0,r1}
        0x20001028:    4801        .H      LDR      r0,[pc,#4] ; [0x20001030] = 0xedef
        0x2000102a:    9001        ..      STR      r0,[sp,#4]
        0x2000102c:    bd01        ..      POP      {r0,pc}
    $d
        0x2000102e:    0000        ..      DCW    0
        0x20001030:    0000edef    ....    DCD    60911
        0x20001034:    20001239    9..     DCD    536875577

** Section #3 'RAM_RETENTION' (SHT_PROGBITS) [SHF_ALLOC + SHF_WRITE]
    Size   : 512 bytes
    Address: 0x20001038


** Section #4 'RAM_FUNC' (SHT_PROGBITS) [SHF_ALLOC + SHF_EXECINSTR]
    Size   : 1168 bytes (alignment 4)
    Address: 0x20001238

    $t
    .ramfunc
    compute_checksum
        0x20001238:    b510        ..      PUSH     {r4,lr}
        0x2000123a:    2200        ."      MOVS     r2,#0
        0x2000123c:    4b83        .K      LDR      r3,[pc,#524] ; [0x2000144c] = 0x200015c8
        0x2000123e:    e003        ..      B        0x20001248 ; compute_checksum + 16
        0x20001240:    7804        .x      LDRB     r4,[r0,#0]
        0x20001242:    4054        T@      EORS     r4,r4,r2
        0x20001244:    5d1a        .]      LDRB     r2,[r3,r4]
        0x20001246:    1c40        @.      ADDS     r0,r0,#1
        0x20001248:    1e49        I.      SUBS     r1,r1,#1
        0x2000124a:    d2f9        ..      BCS      0x20001240 ; compute_checksum + 8
        0x2000124c:    4610        .F      MOV      r0,r2
        0x2000124e:    bd10        ..      POP      {r4,pc}
    llcc_write_new
        0x20001250:    b5ff        ..      PUSH     {r0-r7,lr}
        0x20001252:    078c        ..      LSLS     r4,r1,#30
        0x20001254:    4606        .F      MOV      r6,r0
        0x20001256:    0fa4        ..      LSRS     r4,r4,#30
        0x20001258:    b081        ..      SUB      sp,sp,#4
        0x2000125a:    2000        .       MOVS     r0,#0
        0x2000125c:    460f        .F      MOV      r7,r1
        0x2000125e:    9000        ..      STR      r0,[sp,#0]
        0x20001260:    e002        ..      B        0x20001268 ; llcc_write_new + 24
        0x20001262:    4628        (F      MOV      r0,r5
        0x20001264:    f000f938    ..8.    BL       $Ven$TT$L$$_arch_irq_unlock_s ; 0x200014d8
        0x20001268:    f000f93c    ..<.    BL       $Ven$TT$L$$_arch_irq_lock_s ; 0x200014e4
        0x2000126c:    4605        .F      MOV      r5,r0
        0x2000126e:    4878        xH      LDR      r0,[pc,#480] ; [0x20001450] = 0x20000b30
        0x20001270:    7881        .x      LDRB     r1,[r0,#2]
        0x20001272:    2902        .)      CMP      r1,#2
        0x20001274:    d1f5        ..      BNE      0x20001262 ; llcc_write_new + 18
        0x20001276:    7840        @x      LDRB     r0,[r0,#1]
        0x20001278:    2800        .(      CMP      r0,#0
        0x2000127a:    d1f2        ..      BNE      0x20001262 ; llcc_write_new + 18
        0x2000127c:    4874        tH      LDR      r0,[pc,#464] ; [0x20001450] = 0x20000b30
        0x2000127e:    7840        @x      LDRB     r0,[r0,#1]
        0x20001280:    2800        .(      CMP      r0,#0
        0x20001282:    d104        ..      BNE      0x2000128e ; llcc_write_new + 62
        0x20001284:    f000f934    ..4.    BL       $Ven$TT$L$$platform_wake_lock_inc ; 0x200014f0
        0x20001288:    4871        qH      LDR      r0,[pc,#452] ; [0x20001450] = 0x20000b30
        0x2000128a:    2101        .!      MOVS     r1,#1
        0x2000128c:    7041        Ap      STRB     r1,[r0,#1]
        0x2000128e:    4628        (F      MOV      r0,r5
        0x20001290:    f000f922    ..".    BL       $Ven$TT$L$$_arch_irq_unlock_s ; 0x200014d8
        0x20001294:    486f        oH      LDR      r0,[pc,#444] ; [0x20001454] = 0x20000aec
        0x20001296:    2e01        ..      CMP      r6,#1
        0x20001298:    d00c        ..      BEQ      0x200012b4 ; llcc_write_new + 100
        0x2000129a:    2e02        ..      CMP      r6,#2
        0x2000129c:    d002        ..      BEQ      0x200012a4 ; llcc_write_new + 84
        0x2000129e:    2e04        ..      CMP      r6,#4
        0x200012a0:    d10b        ..      BNE      0x200012ba ; llcc_write_new + 106
        0x200012a2:    e003        ..      B        0x200012ac ; llcc_write_new + 92
        0x200012a4:    8801        ..      LDRH     r1,[r0,#0]
        0x200012a6:    1c49        I.      ADDS     r1,r1,#1
        0x200012a8:    8001        ..      STRH     r1,[r0,#0]
        0x200012aa:    e006        ..      B        0x200012ba ; llcc_write_new + 106
        0x200012ac:    8941        A.      LDRH     r1,[r0,#0xa]
        0x200012ae:    1c49        I.      ADDS     r1,r1,#1
        0x200012b0:    8141        A.      STRH     r1,[r0,#0xa]
        0x200012b2:    e002        ..      B        0x200012ba ; llcc_write_new + 106
        0x200012b4:    88c1        ..      LDRH     r1,[r0,#6]
        0x200012b6:    1c49        I.      ADDS     r1,r1,#1
        0x200012b8:    80c1        ..      STRH     r1,[r0,#6]
        0x200012ba:    4d65        eM      LDR      r5,[pc,#404] ; [0x20001450] = 0x20000b30
        0x200012bc:    61af        .a      STR      r7,[r5,#0x18]
        0x200012be:    78e8        .x      LDRB     r0,[r5,#3]
        0x200012c0:    2800        .(      CMP      r0,#0
        0x200012c2:    d004        ..      BEQ      0x200012ce ; llcc_write_new + 126
        0x200012c4:    4638        8F      MOV      r0,r7
        0x200012c6:    9903        ..      LDR      r1,[sp,#0xc]
        0x200012c8:    f7ffffb6    ....    BL       compute_checksum ; 0x20001238
        0x200012cc:    9000        ..      STR      r0,[sp,#0]
        0x200012ce:    9803        ..      LDR      r0,[sp,#0xc]
        0x200012d0:    842e        ..      STRH     r6,[r5,#0x20]
        0x200012d2:    1cc0        ..      ADDS     r0,r0,#3
        0x200012d4:    0882        ..      LSRS     r2,r0,#2
        0x200012d6:    772c        ,w      STRB     r4,[r5,#0x1c]
        0x200012d8:    83ea        ..      STRH     r2,[r5,#0x1e]
        0x200012da:    9800        ..      LDR      r0,[sp,#0]
        0x200012dc:    7768        hw      STRB     r0,[r5,#0x1d]
        0x200012de:    9804        ..      LDR      r0,[sp,#0x10]
        0x200012e0:    64a8        .d      STR      r0,[r5,#0x48]
        0x200012e2:    78e8        .x      LDRB     r0,[r5,#3]
        0x200012e4:    1b3f        ?.      SUBS     r7,r7,r4
        0x200012e6:    4621        !F      MOV      r1,r4
        0x200012e8:    2800        .(      CMP      r0,#0
        0x200012ea:    d019        ..      BEQ      0x20001320 ; llcc_write_new + 208
        0x200012ec:    9803        ..      LDR      r0,[sp,#0xc]
        0x200012ee:    0092        ..      LSLS     r2,r2,#2
        0x200012f0:    1a10        ..      SUBS     r0,r2,r0
        0x200012f2:    1b00        ..      SUBS     r0,r0,r4
        0x200012f4:    0080        ..      LSLS     r0,r0,#2
        0x200012f6:    4c56        VL      LDR      r4,[pc,#344] ; [0x20001450] = 0x20000b30
        0x200012f8:    4301        .C      ORRS     r1,r1,r0
        0x200012fa:    7729        )w      STRB     r1,[r5,#0x1c]
        0x200012fc:    3420         4      ADDS     r4,r4,#0x20
        0x200012fe:    78e0        .x      LDRB     r0,[r4,#3]
        0x20001300:    1c40        @.      ADDS     r0,r0,#1
        0x20001302:    70e0        .p      STRB     r0,[r4,#3]
        0x20001304:    68a8        .h      LDR      r0,[r5,#8]
        0x20001306:    f000f8f9    ....    BL       $Ven$TT$L$$llcc_wdog_tx_ena ; 0x200014fc
        0x2000130a:    78e0        .x      LDRB     r0,[r4,#3]
        0x2000130c:    9000        ..      STR      r0,[sp,#0]
        0x2000130e:    8c28        (.      LDRH     r0,[r5,#0x20]
        0x20001310:    7f6b        k.      LDRB     r3,[r5,#0x1d]
        0x20001312:    8bea        ..      LDRH     r2,[r5,#0x1e]
        0x20001314:    7f29        ).      LDRB     r1,[r5,#0x1c]
        0x20001316:    b2c0        ..      UXTB     r0,r0
        0x20001318:    f000f8f6    ....    BL       $Ven$TT$L$$llcc_tx_xfer_req2_cmd ; 0x20001508
        0x2000131c:    b005        ..      ADD      sp,sp,#0x14
        0x2000131e:    bdf0        ..      POP      {r4-r7,pc}
        0x20001320:    b2f0        ..      UXTB     r0,r6
        0x20001322:    f000f8f7    ....    BL       $Ven$TT$L$$llcc_tx_xfer_req_cmd ; 0x20001514
        0x20001326:    8be9        ..      LDRH     r1,[r5,#0x1e]
        0x20001328:    4638        8F      MOV      r0,r7
        0x2000132a:    f000f8f9    ....    BL       $Ven$TT$L$$llcc_dma_setup_tx ; 0x20001520
        0x2000132e:    e7f5        ..      B        0x2000131c ; llcc_write_new + 204
    llcc_rx_cmd_valid_handler_new
        0x20001330:    b57c        |.      PUSH     {r2-r6,lr}
        0x20001332:    4849        IH      LDR      r0,[pc,#292] ; [0x20001458] = 0x40022000
        0x20001334:    6801        .h      LDR      r1,[r0,#0]
        0x20001336:    9100        ..      STR      r1,[sp,#0]
        0x20001338:    6840        @h      LDR      r0,[r0,#4]
        0x2000133a:    4c45        EL      LDR      r4,[pc,#276] ; [0x20001450] = 0x20000b30
        0x2000133c:    9001        ..      STR      r0,[sp,#4]
        0x2000133e:    78e0        .x      LDRB     r0,[r4,#3]
        0x20001340:    4d44        DM      LDR      r5,[pc,#272] ; [0x20001454] = 0x20000aec
        0x20001342:    2800        .(      CMP      r0,#0
        0x20001344:    d013        ..      BEQ      0x2000136e ; llcc_rx_cmd_valid_handler_new + 62
        0x20001346:    21ff        .!      MOVS     r1,#0xff
        0x20001348:    466a        jF      MOV      r2,sp
        0x2000134a:    2000        .       MOVS     r0,#0
        0x2000134c:    5c13        .\      LDRB     r3,[r2,r0]
        0x2000134e:    1c40        @.      ADDS     r0,r0,#1
        0x20001350:    1859        Y.      ADDS     r1,r3,r1
        0x20001352:    b2c9        ..      UXTB     r1,r1
        0x20001354:    2807        .(      CMP      r0,#7
        0x20001356:    dbf9        ..      BLT      0x2000134c ; llcc_rx_cmd_valid_handler_new + 28
        0x20001358:    79d0        .y      LDRB     r0,[r2,#7]
        0x2000135a:    4288        .B      CMP      r0,r1
        0x2000135c:    d007        ..      BEQ      0x2000136e ; llcc_rx_cmd_valid_handler_new + 62
        0x2000135e:    8a28        (.      LDRH     r0,[r5,#0x10]
        0x20001360:    2100        .!      MOVS     r1,#0
        0x20001362:    1c40        @.      ADDS     r0,r0,#1
        0x20001364:    8228        (.      STRH     r0,[r5,#0x10]
        0x20001366:    2001        .       MOVS     r0,#1
        0x20001368:    f000f8e0    ....    BL       $Ven$TT$L$$llcc_tx_error2_cmd ; 0x2000152c
        0x2000136c:    bd7c        |.      POP      {r2-r6,pc}
        0x2000136e:    4668        hF      MOV      r0,sp
        0x20001370:    7800        .x      LDRB     r0,[r0,#0]
        0x20001372:    2801        .(      CMP      r0,#1
        0x20001374:    d002        ..      BEQ      0x2000137c ; llcc_rx_cmd_valid_handler_new + 76
        0x20001376:    280e        .(      CMP      r0,#0xe
        0x20001378:    d11b        ..      BNE      0x200013b2 ; llcc_rx_cmd_valid_handler_new + 130
        0x2000137a:    e016        ..      B        0x200013aa ; llcc_rx_cmd_valid_handler_new + 122
        0x2000137c:    f000f8dc    ....    BL       $Ven$TT$L$$llcc_init ; 0x20001538
        0x20001380:    2002        .       MOVS     r0,#2
        0x20001382:    70a0        .p      STRB     r0,[r4,#2]
        0x20001384:    4832        2H      LDR      r0,[pc,#200] ; [0x20001450] = 0x20000b30
        0x20001386:    2100        .!      MOVS     r1,#0
        0x20001388:    3020         0      ADDS     r0,r0,#0x20
        0x2000138a:    70c1        .p      STRB     r1,[r0,#3]
        0x2000138c:    4668        hF      MOV      r0,sp
        0x2000138e:    7840        @x      LDRB     r0,[r0,#1]
        0x20001390:    285a        Z(      CMP      r0,#0x5a
        0x20001392:    d103        ..      BNE      0x2000139c ; llcc_rx_cmd_valid_handler_new + 108
        0x20001394:    4668        hF      MOV      r0,sp
        0x20001396:    7880        .x      LDRB     r0,[r0,#2]
        0x20001398:    28a5        .(      CMP      r0,#0xa5
        0x2000139a:    d004        ..      BEQ      0x200013a6 ; llcc_rx_cmd_valid_handler_new + 118
        0x2000139c:    2000        .       MOVS     r0,#0
        0x2000139e:    70e0        .p      STRB     r0,[r4,#3]
        0x200013a0:    f000f8d0    ....    BL       $Ven$TT$L$$llcc_tx_soft_reset_ack_cmd_new ; 0x20001544
        0x200013a4:    bd7c        |.      POP      {r2-r6,pc}
        0x200013a6:    2001        .       MOVS     r0,#1
        0x200013a8:    e7f9        ..      B        0x2000139e ; llcc_rx_cmd_valid_handler_new + 110
        0x200013aa:    4668        hF      MOV      r0,sp
        0x200013ac:    7840        @x      LDRB     r0,[r0,#1]
        0x200013ae:    2803        .(      CMP      r0,#3
        0x200013b0:    d004        ..      BEQ      0x200013bc ; llcc_rx_cmd_valid_handler_new + 140
        0x200013b2:    9901        ..      LDR      r1,[sp,#4]
        0x200013b4:    9800        ..      LDR      r0,[sp,#0]
        0x200013b6:    f000f8cb    ....    BL       $Ven$TT$L$$llcc_rxcmd_valid_handler ; 0x20001550
        0x200013ba:    bd7c        |.      POP      {r2-r6,pc}
        0x200013bc:    7860        `x      LDRB     r0,[r4,#1]
        0x200013be:    2800        .(      CMP      r0,#0
        0x200013c0:    d0fb        ..      BEQ      0x200013ba ; llcc_rx_cmd_valid_handler_new + 138
        0x200013c2:    7f21        !.      LDRB     r1,[r4,#0x1c]
        0x200013c4:    69a0        .i      LDR      r0,[r4,#0x18]
        0x200013c6:    078a        ..      LSLS     r2,r1,#30
        0x200013c8:    8be3        ..      LDRH     r3,[r4,#0x1e]
        0x200013ca:    0f92        ..      LSRS     r2,r2,#30
        0x200013cc:    1880        ..      ADDS     r0,r0,r2
        0x200013ce:    009b        ..      LSLS     r3,r3,#2
        0x200013d0:    0709        ..      LSLS     r1,r1,#28
        0x200013d2:    1a9a        ..      SUBS     r2,r3,r2
        0x200013d4:    0f89        ..      LSRS     r1,r1,#30
        0x200013d6:    1a51        Q.      SUBS     r1,r2,r1
        0x200013d8:    b289        ..      UXTH     r1,r1
        0x200013da:    f7ffff2d    ..-.    BL       compute_checksum ; 0x20001238
        0x200013de:    7f61        a.      LDRB     r1,[r4,#0x1d]
        0x200013e0:    4281        .B      CMP      r1,r0
        0x200013e2:    d005        ..      BEQ      0x200013f0 ; llcc_rx_cmd_valid_handler_new + 192
        0x200013e4:    8e28        (.      LDRH     r0,[r5,#0x30]
        0x200013e6:    1c40        @.      ADDS     r0,r0,#1
        0x200013e8:    8628        (.      STRH     r0,[r5,#0x30]
        0x200013ea:    20fa        .       MOVS     r0,#0xfa
        0x200013ec:    71a0        .q      STRB     r0,[r4,#6]
        0x200013ee:    e002        ..      B        0x200013f6 ; llcc_rx_cmd_valid_handler_new + 198
        0x200013f0:    8a68        h.      LDRH     r0,[r5,#0x12]
        0x200013f2:    1c40        @.      ADDS     r0,r0,#1
        0x200013f4:    8268        h.      STRH     r0,[r5,#0x12]
        0x200013f6:    2001        .       MOVS     r0,#1
        0x200013f8:    f000f8b0    ....    BL       $Ven$TT$L$$llcc_tx_retry_helper ; 0x2000155c
        0x200013fc:    bd7c        |.      POP      {r2-r6,pc}
    llcc_rxcmd_valid_handler_new
        0x200013fe:    e797        ..      B        llcc_rx_cmd_valid_handler_new ; 0x20001330
    llcc_rxdmal_done_handler_new
        0x20001400:    b510        ..      PUSH     {r4,lr}
        0x20001402:    f000f8b1    ....    BL       $Ven$TT$L$$llcc_rxdmal_done_handler ; 0x20001568
        0x20001406:    bd10        ..      POP      {r4,pc}
    hci_vs_read_done_new
        0x20001408:    b570        p.      PUSH     {r4-r6,lr}
        0x2000140a:    4616        .F      MOV      r6,r2
        0x2000140c:    4605        .F      MOV      r5,r0
        0x2000140e:    460c        .F      MOV      r4,r1
        0x20001410:    2804        .(      CMP      r0,#4
        0x20001412:    d115        ..      BNE      0x20001440 ; hci_vs_read_done_new + 56
        0x20001414:    7820         x      LDRB     r0,[r4,#0]
        0x20001416:    28ff        .(      CMP      r0,#0xff
        0x20001418:    d112        ..      BNE      0x20001440 ; hci_vs_read_done_new + 56
        0x2000141a:    7848        Hx      LDRB     r0,[r1,#1]
        0x2000141c:    283e        >(      CMP      r0,#0x3e
        0x2000141e:    d10f        ..      BNE      0x20001440 ; hci_vs_read_done_new + 56
        0x20001420:    7888        .x      LDRB     r0,[r1,#2]
        0x20001422:    2880        .(      CMP      r0,#0x80
        0x20001424:    d10c        ..      BNE      0x20001440 ; hci_vs_read_done_new + 56
        0x20001426:    78c8        .x      LDRB     r0,[r1,#3]
        0x20001428:    28fe        .(      CMP      r0,#0xfe
        0x2000142a:    d109        ..      BNE      0x20001440 ; hci_vs_read_done_new + 56
        0x2000142c:    79c8        .y      LDRB     r0,[r1,#7]
        0x2000142e:    2801        .(      CMP      r0,#1
        0x20001430:    d106        ..      BNE      0x20001440 ; hci_vs_read_done_new + 56
        0x20001432:    a00a        ..      ADR      r0,{pc}+0x2a ; 0x2000145c
        0x20001434:    f000f89e    ....    BL       $Ven$TT$L$$printk ; 0x20001574
        0x20001438:    2005        .       MOVS     r0,#5
        0x2000143a:    0280        ..      LSLS     r0,r0,#10
        0x2000143c:    f000f8a0    ....    BL       $Ven$TT$L$$sys_pm_reboot ; 0x20001580
        0x20001440:    4632        2F      MOV      r2,r6
        0x20001442:    4621        !F      MOV      r1,r4
        0x20001444:    4628        (F      MOV      r0,r5
        0x20001446:    f000f8a1    ....    BL       $Ven$TT$L$$hci_vs_read_done ; 0x2000158c
        0x2000144a:    bd70        p.      POP      {r4-r6,pc}
    $d
        0x2000144c:    200015c8    ...     DCD    536876488
        0x20001450:    20000b30    0..     DCD    536873776
        0x20001454:    20000aec    ...     DCD    536873708
        0x20001458:    40022000    . .@    DCD    1073881088
        0x2000145c:    6f626572    rebo    DCD    1868719474
        0x20001460:    6620746f    ot f    DCD    1713402991
        0x20001464:    7020726f    or p    DCD    1881174639
        0x20001468:    7265776f    ower    DCD    1919252335
        0x2000146c:    206e6f5f    _on     DCD    544108383
        0x20001470:    0a747665    evt.    DCD    175404645
        0x20001474:    00000000    ....    DCD    0
    $t
    .ramfunc
    acts_xspi_nor_init_new
        0x20001478:    b570        p.      PUSH     {r4-r6,lr}
        0x2000147a:    6884        .h      LDR      r4,[r0,#8]
        0x2000147c:    4605        .F      MOV      r5,r0
        0x2000147e:    207d        }       MOVS     r0,#0x7d
        0x20001480:    6921        !i      LDR      r1,[r4,#0x10]
        0x20001482:    0200        ..      LSLS     r0,r0,#8
        0x20001484:    2900        .)      CMP      r1,#0
        0x20001486:    d100        ..      BNE      0x2000148a ; acts_xspi_nor_init_new + 18
        0x20001488:    1141        A.      ASRS     r1,r0,#5
        0x2000148a:    f000f885    ....    BL       $Ven$TT$L$$__aeabi_uidivmod ; 0x20001598
        0x2000148e:    2800        .(      CMP      r0,#0
        0x20001490:    d002        ..      BEQ      0x20001498 ; acts_xspi_nor_init_new + 32
        0x20001492:    f000f887    ....    BL       $Ven$TT$L$$__ARM_common_ctz ; 0x200015a4
        0x20001496:    1c40        @.      ADDS     r0,r0,#1
        0x20001498:    1e40        @.      SUBS     r0,r0,#1
        0x2000149a:    2805        .(      CMP      r0,#5
        0x2000149c:    d900        ..      BLS      0x200014a0 ; acts_xspi_nor_init_new + 40
        0x2000149e:    2005        .       MOVS     r0,#5
        0x200014a0:    68e1        .h      LDR      r1,[r4,#0xc]
        0x200014a2:    6008        .`      STR      r0,[r1,#0]
        0x200014a4:    4620         F      MOV      r0,r4
        0x200014a6:    f000f883    ....    BL       $Ven$TT$L$$xspi_nor_read_chipid ; 0x200015b0
        0x200014aa:    6260        `b      STR      r0,[r4,#0x24]
        0x200014ac:    f000f81a    ....    BL       $Ven$TT$L$$_arch_irq_lock_s ; 0x200014e4
        0x200014b0:    4606        .F      MOV      r6,r0
        0x200014b2:    4620         F      MOV      r0,r4
        0x200014b4:    f000f882    ....    BL       $Ven$TT$L$$acts_xspi_nor_init_internal ; 0x200015bc
        0x200014b8:    6820         h      LDR      r0,[r4,#0]
        0x200014ba:    2201        ."      MOVS     r2,#1
        0x200014bc:    6801        .h      LDR      r1,[r0,#0]
        0x200014be:    06d2        ..      LSLS     r2,r2,#27
        0x200014c0:    4391        .C      BICS     r1,r1,r2
        0x200014c2:    4311        .C      ORRS     r1,r1,r2
        0x200014c4:    6001        .`      STR      r1,[r0,#0]
        0x200014c6:    4630        0F      MOV      r0,r6
        0x200014c8:    f000f806    ....    BL       $Ven$TT$L$$_arch_irq_unlock_s ; 0x200014d8
        0x200014cc:    4801        .H      LDR      r0,[pc,#4] ; [0x200014d4] = 0x26c1c
        0x200014ce:    6068        h`      STR      r0,[r5,#4]
        0x200014d0:    2000        .       MOVS     r0,#0
        0x200014d2:    bd70        p.      POP      {r4-r6,pc}
    $d
        0x200014d4:    00026c1c    .l..    DCD    158748
    $t
    $Ven$TT$L$$_arch_irq_unlock_s
        0x200014d8:    b403        ..      PUSH     {r0,r1}
        0x200014da:    4801        .H      LDR      r0,[pc,#4] ; [0x200014e0] = 0x1100e61
        0x200014dc:    9001        ..      STR      r0,[sp,#4]
        0x200014de:    bd01        ..      POP      {r0,pc}
    $d
        0x200014e0:    01100e61    a...    DCD    17829473
    $t
    $Ven$TT$L$$_arch_irq_lock_s
        0x200014e4:    b403        ..      PUSH     {r0,r1}
        0x200014e6:    4801        .H      LDR      r0,[pc,#4] ; [0x200014ec] = 0x1100e59
        0x200014e8:    9001        ..      STR      r0,[sp,#4]
        0x200014ea:    bd01        ..      POP      {r0,pc}
    $d
        0x200014ec:    01100e59    Y...    DCD    17829465
    $t
    $Ven$TT$L$$platform_wake_lock_inc
        0x200014f0:    b403        ..      PUSH     {r0,r1}
        0x200014f2:    4801        .H      LDR      r0,[pc,#4] ; [0x200014f8] = 0xe47d
        0x200014f4:    9001        ..      STR      r0,[sp,#4]
        0x200014f6:    bd01        ..      POP      {r0,pc}
    $d
        0x200014f8:    0000e47d    }...    DCD    58493
    $t
    $Ven$TT$L$$llcc_wdog_tx_ena
        0x200014fc:    b403        ..      PUSH     {r0,r1}
        0x200014fe:    4801        .H      LDR      r0,[pc,#4] ; [0x20001504] = 0xe171
        0x20001500:    9001        ..      STR      r0,[sp,#4]
        0x20001502:    bd01        ..      POP      {r0,pc}
    $d
        0x20001504:    0000e171    q...    DCD    57713
    $t
    $Ven$TT$L$$llcc_tx_xfer_req2_cmd
        0x20001508:    b403        ..      PUSH     {r0,r1}
        0x2000150a:    4801        .H      LDR      r0,[pc,#4] ; [0x20001510] = 0xe67f
        0x2000150c:    9001        ..      STR      r0,[sp,#4]
        0x2000150e:    bd01        ..      POP      {r0,pc}
    $d
        0x20001510:    0000e67f    ....    DCD    59007
    $t
    $Ven$TT$L$$llcc_tx_xfer_req_cmd
        0x20001514:    b403        ..      PUSH     {r0,r1}
        0x20001516:    4801        .H      LDR      r0,[pc,#4] ; [0x2000151c] = 0xe669
        0x20001518:    9001        ..      STR      r0,[sp,#4]
        0x2000151a:    bd01        ..      POP      {r0,pc}
    $d
        0x2000151c:    0000e669    i...    DCD    58985
    $t
    $Ven$TT$L$$llcc_dma_setup_tx
        0x20001520:    b403        ..      PUSH     {r0,r1}
        0x20001522:    4801        .H      LDR      r0,[pc,#4] ; [0x20001528] = 0xe79d
        0x20001524:    9001        ..      STR      r0,[sp,#4]
        0x20001526:    bd01        ..      POP      {r0,pc}
    $d
        0x20001528:    0000e79d    ....    DCD    59293
    $t
    $Ven$TT$L$$llcc_tx_error2_cmd
        0x2000152c:    b403        ..      PUSH     {r0,r1}
        0x2000152e:    4801        .H      LDR      r0,[pc,#4] ; [0x20001534] = 0xe6b1
        0x20001530:    9001        ..      STR      r0,[sp,#4]
        0x20001532:    bd01        ..      POP      {r0,pc}
    $d
        0x20001534:    0000e6b1    ....    DCD    59057
    $t
    $Ven$TT$L$$llcc_init
        0x20001538:    b403        ..      PUSH     {r0,r1}
        0x2000153a:    4801        .H      LDR      r0,[pc,#4] ; [0x20001540] = 0xe7c5
        0x2000153c:    9001        ..      STR      r0,[sp,#4]
        0x2000153e:    bd01        ..      POP      {r0,pc}
    $d
        0x20001540:    0000e7c5    ....    DCD    59333
    $t
    $Ven$TT$L$$llcc_tx_soft_reset_ack_cmd_new
        0x20001544:    b403        ..      PUSH     {r0,r1}
        0x20001546:    4801        .H      LDR      r0,[pc,#4] ; [0x2000154c] = 0x1103afd
        0x20001548:    9001        ..      STR      r0,[sp,#4]
        0x2000154a:    bd01        ..      POP      {r0,pc}
    $d
        0x2000154c:    01103afd    .:..    DCD    17840893
    $t
    $Ven$TT$L$$llcc_rxcmd_valid_handler
        0x20001550:    b403        ..      PUSH     {r0,r1}
        0x20001552:    4801        .H      LDR      r0,[pc,#4] ; [0x20001558] = 0xf05d
        0x20001554:    9001        ..      STR      r0,[sp,#4]
        0x20001556:    bd01        ..      POP      {r0,pc}
    $d
        0x20001558:    0000f05d    ]...    DCD    61533
    $t
    $Ven$TT$L$$llcc_tx_retry_helper
        0x2000155c:    b403        ..      PUSH     {r0,r1}
        0x2000155e:    4801        .H      LDR      r0,[pc,#4] ; [0x20001564] = 0xe9c5
        0x20001560:    9001        ..      STR      r0,[sp,#4]
        0x20001562:    bd01        ..      POP      {r0,pc}
    $d
        0x20001564:    0000e9c5    ....    DCD    59845
    $t
    $Ven$TT$L$$llcc_rxdmal_done_handler
        0x20001568:    b403        ..      PUSH     {r0,r1}
        0x2000156a:    4801        .H      LDR      r0,[pc,#4] ; [0x20001570] = 0xf06d
        0x2000156c:    9001        ..      STR      r0,[sp,#4]
        0x2000156e:    bd01        ..      POP      {r0,pc}
    $d
        0x20001570:    0000f06d    m...    DCD    61549
    $t
    $Ven$TT$L$$printk
        0x20001574:    b403        ..      PUSH     {r0,r1}
        0x20001576:    4801        .H      LDR      r0,[pc,#4] ; [0x2000157c] = 0x12ad5
        0x20001578:    9001        ..      STR      r0,[sp,#4]
        0x2000157a:    bd01        ..      POP      {r0,pc}
    $d
        0x2000157c:    00012ad5    .*..    DCD    76501
    $t
    $Ven$TT$L$$sys_pm_reboot
        0x20001580:    b403        ..      PUSH     {r0,r1}
        0x20001582:    4801        .H      LDR      r0,[pc,#4] ; [0x20001588] = 0x1105729
        0x20001584:    9001        ..      STR      r0,[sp,#4]
        0x20001586:    bd01        ..      POP      {r0,pc}
    $d
        0x20001588:    01105729    )W..    DCD    17848105
    $t
    $Ven$TT$L$$hci_vs_read_done
        0x2000158c:    b403        ..      PUSH     {r0,r1}
        0x2000158e:    4801        .H      LDR      r0,[pc,#4] ; [0x20001594] = 0xf809
        0x20001590:    9001        ..      STR      r0,[sp,#4]
        0x20001592:    bd01        ..      POP      {r0,pc}
    $d
        0x20001594:    0000f809    ....    DCD    63497
    $t
    $Ven$TT$L$$__aeabi_uidivmod
        0x20001598:    b403        ..      PUSH     {r0,r1}
        0x2000159a:    4801        .H      LDR      r0,[pc,#4] ; [0x200015a0] = 0x4285
        0x2000159c:    9001        ..      STR      r0,[sp,#4]
        0x2000159e:    bd01        ..      POP      {r0,pc}
    $d
        0x200015a0:    00004285    .B..    DCD    17029
    $t
    $Ven$TT$L$$__ARM_common_ctz
        0x200015a4:    b403        ..      PUSH     {r0,r1}
        0x200015a6:    4801        .H      LDR      r0,[pc,#4] ; [0x200015ac] = 0x11019d1
        0x200015a8:    9001        ..      STR      r0,[sp,#4]
        0x200015aa:    bd01        ..      POP      {r0,pc}
    $d
        0x200015ac:    011019d1    ....    DCD    17832401
    $t
    $Ven$TT$L$$xspi_nor_read_chipid
        0x200015b0:    b403        ..      PUSH     {r0,r1}
        0x200015b2:    4801        .H      LDR      r0,[pc,#4] ; [0x200015b8] = 0x10547
        0x200015b4:    9001        ..      STR      r0,[sp,#4]
        0x200015b6:    bd01        ..      POP      {r0,pc}
    $d
        0x200015b8:    00010547    G...    DCD    66887
    $t
    $Ven$TT$L$$acts_xspi_nor_init_internal
        0x200015bc:    b403        ..      PUSH     {r0,r1}
        0x200015be:    4801        .H      LDR      r0,[pc,#4] ; [0x200015c4] = 0x1073d
        0x200015c0:    9001        ..      STR      r0,[sp,#4]
        0x200015c2:    bd01        ..      POP      {r0,pc}
    $d
        0x200015c4:    0001073d    =...    DCD    67389
    $d.realdata
    .ramfunc
    crc8_table
        0x200015c8:    273a1d00    ..:'    DCD    658119936
        0x200015cc:    534e6974    tiNS    DCD    1397647732
        0x200015d0:    cfd2f5e8    ....    DCD    3486709224
        0x200015d4:    bba6819c    ....    DCD    3148251548
        0x200015d8:    eaf7d0cd    ....    DCD    3942109389
        0x200015dc:    9e83a4b9    ....    DCD    2659427513
        0x200015e0:    021f3825    %8..    DCD    35600421
        0x200015e4:    766b4c51    QLkv    DCD    1986743377
        0x200015e8:    a0bd9a87    ....    DCD    2696780423
        0x200015ec:    d4c9eef3    ....    DCD    3570003699
        0x200015f0:    4855726f    orUH    DCD    1213559407
        0x200015f4:    3c21061b    ..!<    DCD    1008797211
        0x200015f8:    6d70574a    JWpm    DCD    1836078922
        0x200015fc:    1904233e    >#..    DCD    419701566
        0x20001600:    8598bfa2    ....    DCD    2241380258
        0x20001604:    f1eccbd6    ....    DCD    4058827734
        0x20001608:    34290e13    ..)4    DCD    875105811
        0x2000160c:    405d7a67    gz]@    DCD    1079868007
        0x20001610:    dcc1e6fb    ....    DCD    3703695099
        0x20001614:    a8b5928f    ....    DCD    2830471823
        0x20001618:    f9e4c3de    ....    DCD    4192519134
        0x2000161c:    8d90b7aa    ....    DCD    2375071658
        0x20001620:    110c2b36    6+..    DCD    286010166
        0x20001624:    65785f42    B_xe    DCD    1702387522
        0x20001628:    b3ae8994    ....    DCD    3014560148
        0x2000162c:    c7dafde0    ....    DCD    3353017824
        0x20001630:    5b46617c    |aF[    DCD    1531339132
        0x20001634:    2f321508    ..2/    DCD    791811336
        0x20001638:    7e634459    YDc~    DCD    2120434777
        0x2000163c:    0a17302d    -0..    DCD    169291821
        0x20001640:    968bacb1    ....    DCD    2525736113
        0x20001644:    e2ffd8c5    ....    DCD    3808417989
        0x20001648:    011c3b26    &;..    DCD    18627366
        0x2000164c:    75684f52    ROhu    DCD    1969770322
        0x20001650:    e9f4d3ce    ....    DCD    3925136334
        0x20001654:    9d80a7ba    ....    DCD    2642454458
        0x20001658:    ccd1f6eb    ....    DCD    3436312299
        0x2000165c:    b8a5829f    ....    DCD    3097854623
        0x20001660:    24391e03    ..9$    DCD    607723011
        0x20001664:    504d6a77    wjMP    DCD    1347250807
        0x20001668:    869bbca1    ....    DCD    2258353313
        0x2000166c:    f2efc8d5    ....    DCD    4075800789
        0x20001670:    6e735449    ITsn    DCD    1853051977
        0x20001674:    1a07203d    = ..    DCD    436674621
        0x20001678:    4b56716c    lqVK    DCD    1263956332
        0x2000167c:    3f220518    .."?    DCD    1059194136
        0x20001680:    a3be9984    ....    DCD    2747177348
        0x20001684:    d7caedf0    ....    DCD    3620400624
        0x20001688:    120f2835    5(..    DCD    302983221
        0x2000168c:    667b5c41    A\{f    DCD    1719360577
        0x20001690:    fae7c0dd    ....    DCD    4209492189
        0x20001694:    8e93b4a9    ....    DCD    2392044713
        0x20001698:    dfc2e5f8    ....    DCD    3754092024
        0x2000169c:    abb6918c    ....    DCD    2880868748
        0x200016a0:    372a0d10    ..*7    DCD    925502736
        0x200016a4:    435e7964    dy^C    DCD    1130264932
        0x200016a8:    9588afb2    ....    DCD    2508763058
        0x200016ac:    e1fcdbc6    ....    DCD    3791444934
        0x200016b0:    7d60475a    ZG`}    DCD    2103461722
        0x200016b4:    0914332e    .3..    DCD    152318766
        0x200016b8:    5845627f    .bEX    DCD    1480942207
        0x200016bc:    2c31160b    ..1,    DCD    741414411
        0x200016c0:    b0ad8a97    ....    DCD    2964163223
        0x200016c4:    c4d9fee3    ....    DCD    3302620899

** Section #5 'RW_IRAM_DEVICE_PRE_KERNEL_1' (SHT_PROGBITS) [SHF_ALLOC + SHF_WRITE]
    Size   : 96 bytes (alignment 4)
    Address: 0x200016c8


** Section #6 'RW_IRAM_DEVICE_PRE_KERNEL_2' (SHT_PROGBITS) [SHF_ALLOC + SHF_WRITE]
    Size   : 24 bytes (alignment 4)
    Address: 0x20001728


** Section #7 'RW_IRAM_DEVICE_POST_KERNEL' (SHT_PROGBITS) [SHF_ALLOC + SHF_WRITE]
    Size   : 132 bytes (alignment 4)
    Address: 0x20001740


** Section #8 'RW_IRAM_DEVICE_APPLICATION' (SHT_PROGBITS) [SHF_ALLOC + SHF_WRITE]
    Size   : 24 bytes (alignment 4)
    Address: 0x200017c4


** Section #9 'RW_IRAM_DEVICE_BUSY' (SHT_PROGBITS) [SHF_ALLOC + SHF_WRITE]
    Size   : 8 bytes (alignment 4)
    Address: 0x200017dc


** Section #10 'RW_IRAM__net_buf_pool_area' (SHT_PROGBITS) [SHF_ALLOC + SHF_WRITE]
    Size   : 360 bytes (alignment 4)
    Address: 0x200017e4


** Section #11 'RW_IRAM_SHELL_CMD_START' (SHT_PROGBITS) [SHF_ALLOC + SHF_WRITE]
    Size   : 12 bytes (alignment 4)
    Address: 0x2000194c


** Section #12 'RW_IRAM_PATCH_HW_FUNC' (SHT_PROGBITS) [SHF_ALLOC + SHF_WRITE]
    Size   : 80 bytes (alignment 4)
    Address: 0x20001958


** Section #13 'RW_IRAM_PATCH_HW_CODE' (SHT_PROGBITS) [SHF_ALLOC + SHF_WRITE]
    Size   : 88 bytes (alignment 4)
    Address: 0x200019a8


** Section #14 'RW_IRAM2' (SHT_PROGBITS) [SHF_ALLOC + SHF_WRITE]
    Size   : 16304 bytes (alignment 8)
    Address: 0x20001a00


** Section #15 'RW_IRAM3' (SHT_NOBITS) [SHF_ALLOC + SHF_WRITE]
    Size   : 5492 bytes (alignment 8)
    Address: 0x200059b0


** Section #16 'RW_STACK' (SHT_NOBITS) [SHF_ALLOC + SHF_WRITE]
    Size   : 644 bytes (alignment 8)
    Address: 0x20006f24


** Section #17 'RW_END' (SHT_NOBITS) [SHF_ALLOC + SHF_WRITE]
    Size   : 16 bytes (alignment 4)
    Address: 0x20009ff0


** Section #18 '.debug_abbrev' (SHT_PROGBITS)
    Size   : 1476 bytes


** Section #19 '.debug_frame' (SHT_PROGBITS)
    Size   : 8472 bytes


** Section #20 '.debug_info' (SHT_PROGBITS)
    Size   : 351236 bytes


** Section #21 '.debug_line' (SHT_PROGBITS)
    Size   : 85220 bytes


** Section #22 '.debug_loc' (SHT_PROGBITS)
    Size   : 27860 bytes


** Section #23 '.debug_macinfo' (SHT_PROGBITS)
    Size   : 286624 bytes


** Section #24 '.debug_pubnames' (SHT_PROGBITS)
    Size   : 15563 bytes


** Section #25 '.symtab' (SHT_SYMTAB)
    Size   : 59328 bytes (alignment 4)
    String table #26 '.strtab'
    Last local symbol no. 1790


** Section #26 '.strtab' (SHT_STRTAB)
    Size   : 54196 bytes


** Section #27 '.note' (SHT_NOTE)
    Size   : 84 bytes (alignment 4)


** Section #28 '.comment' (SHT_PROGBITS)
    Size   : 83528 bytes


** Section #29 '.shstrtab' (SHT_STRTAB)
    Size   : 448 bytes


